ARM GAS  /tmp/ccUZW80p.s 			page 1


   1              		.syntax unified
   2              		.cpu cortex-m4
   3              		.eabi_attribute 27, 3
   4              		.eabi_attribute 28, 1
   5              		.fpu fpv4-sp-d16
   6              		.eabi_attribute 20, 1
   7              		.eabi_attribute 21, 1
   8              		.eabi_attribute 23, 1
   9              		.eabi_attribute 24, 1
  10              		.eabi_attribute 25, 1
  11              		.eabi_attribute 26, 1
  12              		.eabi_attribute 30, 1
  13              		.eabi_attribute 34, 1
  14              		.eabi_attribute 18, 4
  15              		.thumb
  16              		.file	"stm32f3xx_hal_dac.c"
  17              		.text
  18              	.Ltext0:
  19              		.cfi_sections	.debug_frame
  20              		.section	.text.HAL_DAC_MspInit,"ax",%progbits
  21              		.align	2
  22              		.weak	HAL_DAC_MspInit
  23              		.thumb
  24              		.thumb_func
  26              	HAL_DAC_MspInit:
  27              	.LFB125:
  28              		.file 1 "Drivers/STM32F3xx_HAL_Driver/Src/stm32f3xx_hal_dac.c"
   1:Drivers/STM32F3xx_HAL_Driver/Src/stm32f3xx_hal_dac.c **** /**
   2:Drivers/STM32F3xx_HAL_Driver/Src/stm32f3xx_hal_dac.c ****   ******************************************************************************
   3:Drivers/STM32F3xx_HAL_Driver/Src/stm32f3xx_hal_dac.c ****   * @file    stm32f3xx_hal_dac.c
   4:Drivers/STM32F3xx_HAL_Driver/Src/stm32f3xx_hal_dac.c ****   * @author  MCD Application Team
   5:Drivers/STM32F3xx_HAL_Driver/Src/stm32f3xx_hal_dac.c ****   * @version V1.4.0
   6:Drivers/STM32F3xx_HAL_Driver/Src/stm32f3xx_hal_dac.c ****   * @date    16-December-2016
   7:Drivers/STM32F3xx_HAL_Driver/Src/stm32f3xx_hal_dac.c ****   * @brief   DAC HAL module driver.
   8:Drivers/STM32F3xx_HAL_Driver/Src/stm32f3xx_hal_dac.c ****   *         This file provides firmware functions to manage the following 
   9:Drivers/STM32F3xx_HAL_Driver/Src/stm32f3xx_hal_dac.c ****   *         functionalities of the Digital to Analog Converter (DAC) peripheral:
  10:Drivers/STM32F3xx_HAL_Driver/Src/stm32f3xx_hal_dac.c ****   *           + Initialization and de-initialization functions
  11:Drivers/STM32F3xx_HAL_Driver/Src/stm32f3xx_hal_dac.c ****   *           + IO operation functions
  12:Drivers/STM32F3xx_HAL_Driver/Src/stm32f3xx_hal_dac.c ****   *           + Peripheral Control functions
  13:Drivers/STM32F3xx_HAL_Driver/Src/stm32f3xx_hal_dac.c ****   *           + Peripheral State and Errors functions      
  14:Drivers/STM32F3xx_HAL_Driver/Src/stm32f3xx_hal_dac.c ****   *
  15:Drivers/STM32F3xx_HAL_Driver/Src/stm32f3xx_hal_dac.c ****   *
  16:Drivers/STM32F3xx_HAL_Driver/Src/stm32f3xx_hal_dac.c ****  @verbatim      
  17:Drivers/STM32F3xx_HAL_Driver/Src/stm32f3xx_hal_dac.c ****   ==============================================================================
  18:Drivers/STM32F3xx_HAL_Driver/Src/stm32f3xx_hal_dac.c ****                       ##### DAC Peripheral features #####
  19:Drivers/STM32F3xx_HAL_Driver/Src/stm32f3xx_hal_dac.c ****   ==============================================================================
  20:Drivers/STM32F3xx_HAL_Driver/Src/stm32f3xx_hal_dac.c ****     [..]        
  21:Drivers/STM32F3xx_HAL_Driver/Src/stm32f3xx_hal_dac.c ****       *** DAC Channels ***
  22:Drivers/STM32F3xx_HAL_Driver/Src/stm32f3xx_hal_dac.c ****       ====================  
  23:Drivers/STM32F3xx_HAL_Driver/Src/stm32f3xx_hal_dac.c ****     [..]  
  24:Drivers/STM32F3xx_HAL_Driver/Src/stm32f3xx_hal_dac.c ****     The device integrates up to 3 12-bit Digital Analog Converters that can 
  25:Drivers/STM32F3xx_HAL_Driver/Src/stm32f3xx_hal_dac.c ****     be used independently or simultaneously (dual mode):
  26:Drivers/STM32F3xx_HAL_Driver/Src/stm32f3xx_hal_dac.c ****       (#) DAC1 channel1 with DAC1_OUT1 (PA4) as output
  27:Drivers/STM32F3xx_HAL_Driver/Src/stm32f3xx_hal_dac.c ****       (#) DAC1 channel2 with DAC1_OUT2 (PA5) as output 
  28:Drivers/STM32F3xx_HAL_Driver/Src/stm32f3xx_hal_dac.c ****           (for STM32F3 devices having 2 channels on DAC1)
  29:Drivers/STM32F3xx_HAL_Driver/Src/stm32f3xx_hal_dac.c ****       (#) DAC2 channel1 with DAC2_OUT1 (PA6) as output 
  30:Drivers/STM32F3xx_HAL_Driver/Src/stm32f3xx_hal_dac.c ****           (for STM32F3 devices having 2 DAC)
ARM GAS  /tmp/ccUZW80p.s 			page 2


  31:Drivers/STM32F3xx_HAL_Driver/Src/stm32f3xx_hal_dac.c **** 
  32:Drivers/STM32F3xx_HAL_Driver/Src/stm32f3xx_hal_dac.c ****       *** DAC Triggers ***
  33:Drivers/STM32F3xx_HAL_Driver/Src/stm32f3xx_hal_dac.c ****       ====================
  34:Drivers/STM32F3xx_HAL_Driver/Src/stm32f3xx_hal_dac.c ****     [..]
  35:Drivers/STM32F3xx_HAL_Driver/Src/stm32f3xx_hal_dac.c ****     Digital to Analog conversion can be non-triggered using DAC_TRIGGER_NONE
  36:Drivers/STM32F3xx_HAL_Driver/Src/stm32f3xx_hal_dac.c ****     and DAC1_OUT1/DAC1_OUT2/DAC2_OUT1 is available once writing to DHRx register. 
  37:Drivers/STM32F3xx_HAL_Driver/Src/stm32f3xx_hal_dac.c ****     [..] 
  38:Drivers/STM32F3xx_HAL_Driver/Src/stm32f3xx_hal_dac.c ****     Digital to Analog conversion can be triggered by:
  39:Drivers/STM32F3xx_HAL_Driver/Src/stm32f3xx_hal_dac.c ****       (#) External event: EXTI Line 9 (any GPIOx_PIN_9) using DAC_TRIGGER_EXT_IT9.
  40:Drivers/STM32F3xx_HAL_Driver/Src/stm32f3xx_hal_dac.c ****           The used pin (GPIOx_PIN_9) must be configured in input mode.
  41:Drivers/STM32F3xx_HAL_Driver/Src/stm32f3xx_hal_dac.c ****   
  42:Drivers/STM32F3xx_HAL_Driver/Src/stm32f3xx_hal_dac.c ****       (#) Timers TRGO: TIM2, TIM4, TIM5, TIM6, TIM7 and TIM8 
  43:Drivers/STM32F3xx_HAL_Driver/Src/stm32f3xx_hal_dac.c ****           (DAC_TRIGGER_T2_TRGO, DAC_TRIGGER_T4_TRGO...)
  44:Drivers/STM32F3xx_HAL_Driver/Src/stm32f3xx_hal_dac.c ****   
  45:Drivers/STM32F3xx_HAL_Driver/Src/stm32f3xx_hal_dac.c ****       (#) Software using DAC_TRIGGER_SOFTWARE
  46:Drivers/STM32F3xx_HAL_Driver/Src/stm32f3xx_hal_dac.c ****   
  47:Drivers/STM32F3xx_HAL_Driver/Src/stm32f3xx_hal_dac.c ****       *** DAC Buffer mode feature ***
  48:Drivers/STM32F3xx_HAL_Driver/Src/stm32f3xx_hal_dac.c ****       =============================== 
  49:Drivers/STM32F3xx_HAL_Driver/Src/stm32f3xx_hal_dac.c ****       [..] 
  50:Drivers/STM32F3xx_HAL_Driver/Src/stm32f3xx_hal_dac.c ****       Each DAC channel integrates an output buffer that can be used to 
  51:Drivers/STM32F3xx_HAL_Driver/Src/stm32f3xx_hal_dac.c ****       reduce the output impedance, and to drive external loads directly
  52:Drivers/STM32F3xx_HAL_Driver/Src/stm32f3xx_hal_dac.c ****       without having to add an external operational amplifier.
  53:Drivers/STM32F3xx_HAL_Driver/Src/stm32f3xx_hal_dac.c ****       To enable, the output buffer use  
  54:Drivers/STM32F3xx_HAL_Driver/Src/stm32f3xx_hal_dac.c ****       sConfig.DAC_OutputBuffer = DAC_OUTPUTBUFFER_ENABLE;
  55:Drivers/STM32F3xx_HAL_Driver/Src/stm32f3xx_hal_dac.c ****       Or
  56:Drivers/STM32F3xx_HAL_Driver/Src/stm32f3xx_hal_dac.c ****       An output switch 
  57:Drivers/STM32F3xx_HAL_Driver/Src/stm32f3xx_hal_dac.c ****          (in STM32F303x4, STM32F303x6, STM32F303x8
  58:Drivers/STM32F3xx_HAL_Driver/Src/stm32f3xx_hal_dac.c ****              c, STM32F334x6, STM32F334x8
  59:Drivers/STM32F3xx_HAL_Driver/Src/stm32f3xx_hal_dac.c ****            & STM32F334xx).
  60:Drivers/STM32F3xx_HAL_Driver/Src/stm32f3xx_hal_dac.c ****       To enable, the output switch
  61:Drivers/STM32F3xx_HAL_Driver/Src/stm32f3xx_hal_dac.c ****       sConfig.DAC_OutputSwitch = DAC_OUTPUTSWITCH_ENABLE;
  62:Drivers/STM32F3xx_HAL_Driver/Src/stm32f3xx_hal_dac.c ****       [..]         
  63:Drivers/STM32F3xx_HAL_Driver/Src/stm32f3xx_hal_dac.c ****       (@) Refer to the device datasheet for more details about output 
  64:Drivers/STM32F3xx_HAL_Driver/Src/stm32f3xx_hal_dac.c ****           impedance value with and without output buffer.
  65:Drivers/STM32F3xx_HAL_Driver/Src/stm32f3xx_hal_dac.c **** 
  66:Drivers/STM32F3xx_HAL_Driver/Src/stm32f3xx_hal_dac.c ****       *** GPIO configurations guidelines ***
  67:Drivers/STM32F3xx_HAL_Driver/Src/stm32f3xx_hal_dac.c ****       =====================
  68:Drivers/STM32F3xx_HAL_Driver/Src/stm32f3xx_hal_dac.c ****       [..] 
  69:Drivers/STM32F3xx_HAL_Driver/Src/stm32f3xx_hal_dac.c ****       When a DAC channel is used (ex channel1 on PA4) and the other is not 
  70:Drivers/STM32F3xx_HAL_Driver/Src/stm32f3xx_hal_dac.c ****       (ex channel2 on PA5 is configured in Analog and disabled).
  71:Drivers/STM32F3xx_HAL_Driver/Src/stm32f3xx_hal_dac.c ****       Channel1 may disturb channel2 as coupling effect.
  72:Drivers/STM32F3xx_HAL_Driver/Src/stm32f3xx_hal_dac.c ****       Note that there is no coupling on channel2 as soon as channel2 is turned on.
  73:Drivers/STM32F3xx_HAL_Driver/Src/stm32f3xx_hal_dac.c ****       Coupling on adjacent channel could be avoided as follows:
  74:Drivers/STM32F3xx_HAL_Driver/Src/stm32f3xx_hal_dac.c ****       when unused PA5 is configured as INPUT PULL-UP or DOWN. 
  75:Drivers/STM32F3xx_HAL_Driver/Src/stm32f3xx_hal_dac.c ****       PA5 is configured in ANALOG just before it is turned on.     
  76:Drivers/STM32F3xx_HAL_Driver/Src/stm32f3xx_hal_dac.c **** 
  77:Drivers/STM32F3xx_HAL_Driver/Src/stm32f3xx_hal_dac.c ****             
  78:Drivers/STM32F3xx_HAL_Driver/Src/stm32f3xx_hal_dac.c ****        *** DAC wave generation feature ***
  79:Drivers/STM32F3xx_HAL_Driver/Src/stm32f3xx_hal_dac.c ****        =================================== 
  80:Drivers/STM32F3xx_HAL_Driver/Src/stm32f3xx_hal_dac.c ****        [..]     
  81:Drivers/STM32F3xx_HAL_Driver/Src/stm32f3xx_hal_dac.c ****        Both DAC channels of DAC1 can be used to generate
  82:Drivers/STM32F3xx_HAL_Driver/Src/stm32f3xx_hal_dac.c ****        note that wave generation is not available in DAC2.
  83:Drivers/STM32F3xx_HAL_Driver/Src/stm32f3xx_hal_dac.c ****          (#) Noise wave
  84:Drivers/STM32F3xx_HAL_Driver/Src/stm32f3xx_hal_dac.c ****          (#) Triangle wave
  85:Drivers/STM32F3xx_HAL_Driver/Src/stm32f3xx_hal_dac.c ****       
  86:Drivers/STM32F3xx_HAL_Driver/Src/stm32f3xx_hal_dac.c ****        Wave generation is NOT available in DAC2.
  87:Drivers/STM32F3xx_HAL_Driver/Src/stm32f3xx_hal_dac.c **** 
ARM GAS  /tmp/ccUZW80p.s 			page 3


  88:Drivers/STM32F3xx_HAL_Driver/Src/stm32f3xx_hal_dac.c ****        *** DAC data format ***
  89:Drivers/STM32F3xx_HAL_Driver/Src/stm32f3xx_hal_dac.c ****        =======================
  90:Drivers/STM32F3xx_HAL_Driver/Src/stm32f3xx_hal_dac.c ****        [..]   
  91:Drivers/STM32F3xx_HAL_Driver/Src/stm32f3xx_hal_dac.c ****        The DAC data format can be:
  92:Drivers/STM32F3xx_HAL_Driver/Src/stm32f3xx_hal_dac.c ****          (#) 8-bit right alignment using DAC_ALIGN_8B_R
  93:Drivers/STM32F3xx_HAL_Driver/Src/stm32f3xx_hal_dac.c ****          (#) 12-bit left alignment using DAC_ALIGN_12B_L
  94:Drivers/STM32F3xx_HAL_Driver/Src/stm32f3xx_hal_dac.c ****          (#) 12-bit right alignment using DAC_ALIGN_12B_R
  95:Drivers/STM32F3xx_HAL_Driver/Src/stm32f3xx_hal_dac.c ****   
  96:Drivers/STM32F3xx_HAL_Driver/Src/stm32f3xx_hal_dac.c ****        *** DAC data value to voltage correspondance ***  
  97:Drivers/STM32F3xx_HAL_Driver/Src/stm32f3xx_hal_dac.c ****        ================================================ 
  98:Drivers/STM32F3xx_HAL_Driver/Src/stm32f3xx_hal_dac.c ****        [..] 
  99:Drivers/STM32F3xx_HAL_Driver/Src/stm32f3xx_hal_dac.c ****        The analog output voltage on each DAC channel pin is determined
 100:Drivers/STM32F3xx_HAL_Driver/Src/stm32f3xx_hal_dac.c ****        by the following equation: 
 101:Drivers/STM32F3xx_HAL_Driver/Src/stm32f3xx_hal_dac.c ****        [..] 
 102:Drivers/STM32F3xx_HAL_Driver/Src/stm32f3xx_hal_dac.c ****        DAC_OUTx = VREF+ * DOR / 4095     
 103:Drivers/STM32F3xx_HAL_Driver/Src/stm32f3xx_hal_dac.c ****        (+) with  DOR is the Data Output Register
 104:Drivers/STM32F3xx_HAL_Driver/Src/stm32f3xx_hal_dac.c ****        [..]  
 105:Drivers/STM32F3xx_HAL_Driver/Src/stm32f3xx_hal_dac.c ****           VEF+ is the input voltage reference (refer to the device datasheet)
 106:Drivers/STM32F3xx_HAL_Driver/Src/stm32f3xx_hal_dac.c ****        [..]        
 107:Drivers/STM32F3xx_HAL_Driver/Src/stm32f3xx_hal_dac.c ****         e.g. To set DAC_OUT1 to 0.7V, use
 108:Drivers/STM32F3xx_HAL_Driver/Src/stm32f3xx_hal_dac.c ****        (+)  Assuming that VREF+ = 3.3V, DAC_OUT1 = (3.3U * 868U) / 4095U = 0.7V
 109:Drivers/STM32F3xx_HAL_Driver/Src/stm32f3xx_hal_dac.c ****   
 110:Drivers/STM32F3xx_HAL_Driver/Src/stm32f3xx_hal_dac.c ****        *** DMA requests  ***
 111:Drivers/STM32F3xx_HAL_Driver/Src/stm32f3xx_hal_dac.c ****        =====================
 112:Drivers/STM32F3xx_HAL_Driver/Src/stm32f3xx_hal_dac.c ****        [..]    
 113:Drivers/STM32F3xx_HAL_Driver/Src/stm32f3xx_hal_dac.c ****        A DMA1 or DMA2 request can be generated when an external trigger 
 114:Drivers/STM32F3xx_HAL_Driver/Src/stm32f3xx_hal_dac.c ****        (but not a software trigger) occurs if DMA1 or DMA2 requests are 
 115:Drivers/STM32F3xx_HAL_Driver/Src/stm32f3xx_hal_dac.c ****        enabled using HAL_DAC_Start_DMA().
 116:Drivers/STM32F3xx_HAL_Driver/Src/stm32f3xx_hal_dac.c ****        [..]
 117:Drivers/STM32F3xx_HAL_Driver/Src/stm32f3xx_hal_dac.c ****        DMA1 requests are mapped as following:
 118:Drivers/STM32F3xx_HAL_Driver/Src/stm32f3xx_hal_dac.c ****          (#) DAC1 channel1: mapped either on
 119:Drivers/STM32F3xx_HAL_Driver/Src/stm32f3xx_hal_dac.c ****          (++) DMA1 channel3 
 120:Drivers/STM32F3xx_HAL_Driver/Src/stm32f3xx_hal_dac.c ****          (++) or DMA2 channel3 (for STM32F3 devices having 2 DMA)
 121:Drivers/STM32F3xx_HAL_Driver/Src/stm32f3xx_hal_dac.c ****              which must be already configured
 122:Drivers/STM32F3xx_HAL_Driver/Src/stm32f3xx_hal_dac.c ****          (#) DAC1 channel2: 
 123:Drivers/STM32F3xx_HAL_Driver/Src/stm32f3xx_hal_dac.c ****              (for STM32F3 devices having 2 channels on DAC1)
 124:Drivers/STM32F3xx_HAL_Driver/Src/stm32f3xx_hal_dac.c ****              mapped either on
 125:Drivers/STM32F3xx_HAL_Driver/Src/stm32f3xx_hal_dac.c ****          (++) DMA1 channel4 
 126:Drivers/STM32F3xx_HAL_Driver/Src/stm32f3xx_hal_dac.c ****          (++) or DMA2 channel4 (for STM32F3 devices having 2 DMA)
 127:Drivers/STM32F3xx_HAL_Driver/Src/stm32f3xx_hal_dac.c ****              which must be already configured
 128:Drivers/STM32F3xx_HAL_Driver/Src/stm32f3xx_hal_dac.c ****       
 129:Drivers/STM32F3xx_HAL_Driver/Src/stm32f3xx_hal_dac.c ****          (#) DAC2 channel1: mapped either on 
 130:Drivers/STM32F3xx_HAL_Driver/Src/stm32f3xx_hal_dac.c ****              (for STM32F3 devices having 2 DAC)
 131:Drivers/STM32F3xx_HAL_Driver/Src/stm32f3xx_hal_dac.c ****          (++) DMA1 channel4 
 132:Drivers/STM32F3xx_HAL_Driver/Src/stm32f3xx_hal_dac.c ****          (++) or DMA2 channel4 (for STM32F3 devices having 2 DMA)
 133:Drivers/STM32F3xx_HAL_Driver/Src/stm32f3xx_hal_dac.c ****              which must be already configured
 134:Drivers/STM32F3xx_HAL_Driver/Src/stm32f3xx_hal_dac.c ****     
 135:Drivers/STM32F3xx_HAL_Driver/Src/stm32f3xx_hal_dac.c **** 
 136:Drivers/STM32F3xx_HAL_Driver/Src/stm32f3xx_hal_dac.c ****        (@) For Dual mode and specific signal (Triangle and noise) generation please 
 137:Drivers/STM32F3xx_HAL_Driver/Src/stm32f3xx_hal_dac.c ****        refer to Extended Features Driver description        
 138:Drivers/STM32F3xx_HAL_Driver/Src/stm32f3xx_hal_dac.c **** 
 139:Drivers/STM32F3xx_HAL_Driver/Src/stm32f3xx_hal_dac.c ****                       ##### How to use this driver #####
 140:Drivers/STM32F3xx_HAL_Driver/Src/stm32f3xx_hal_dac.c ****   ==============================================================================
 141:Drivers/STM32F3xx_HAL_Driver/Src/stm32f3xx_hal_dac.c ****     [..]          
 142:Drivers/STM32F3xx_HAL_Driver/Src/stm32f3xx_hal_dac.c ****       (+) DAC APB clock must be enabled to get write access to DAC
 143:Drivers/STM32F3xx_HAL_Driver/Src/stm32f3xx_hal_dac.c ****           registers using HAL_DAC_Init()
 144:Drivers/STM32F3xx_HAL_Driver/Src/stm32f3xx_hal_dac.c ****       (+) Configure DAC_OUTx (DAC_OUT1: PA4, DAC_OUT2: PA5) in analog mode.
ARM GAS  /tmp/ccUZW80p.s 			page 4


 145:Drivers/STM32F3xx_HAL_Driver/Src/stm32f3xx_hal_dac.c ****       (+) Configure the DAC channel using HAL_DAC_ConfigChannel() function.
 146:Drivers/STM32F3xx_HAL_Driver/Src/stm32f3xx_hal_dac.c ****       (+) Enable the DAC channel using HAL_DAC_Start() or HAL_DAC_Start_DMA() functions
 147:Drivers/STM32F3xx_HAL_Driver/Src/stm32f3xx_hal_dac.c **** 
 148:Drivers/STM32F3xx_HAL_Driver/Src/stm32f3xx_hal_dac.c ****      *** Polling mode IO operation ***
 149:Drivers/STM32F3xx_HAL_Driver/Src/stm32f3xx_hal_dac.c ****      =================================
 150:Drivers/STM32F3xx_HAL_Driver/Src/stm32f3xx_hal_dac.c ****      [..]    
 151:Drivers/STM32F3xx_HAL_Driver/Src/stm32f3xx_hal_dac.c ****        (+) Start the DAC peripheral using HAL_DAC_Start() 
 152:Drivers/STM32F3xx_HAL_Driver/Src/stm32f3xx_hal_dac.c ****        (+) To read the DAC last data output value, use the HAL_DAC_GetValue() function.
 153:Drivers/STM32F3xx_HAL_Driver/Src/stm32f3xx_hal_dac.c ****        (+) Stop the DAC peripheral using HAL_DAC_Stop()
 154:Drivers/STM32F3xx_HAL_Driver/Src/stm32f3xx_hal_dac.c ****        
 155:Drivers/STM32F3xx_HAL_Driver/Src/stm32f3xx_hal_dac.c ****      *** DMA mode IO operation ***    
 156:Drivers/STM32F3xx_HAL_Driver/Src/stm32f3xx_hal_dac.c ****      ==============================
 157:Drivers/STM32F3xx_HAL_Driver/Src/stm32f3xx_hal_dac.c ****      [..]    
 158:Drivers/STM32F3xx_HAL_Driver/Src/stm32f3xx_hal_dac.c ****        (+) Start the DAC peripheral using HAL_DAC_Start_DMA(), at this stage the user specify the l
 159:Drivers/STM32F3xx_HAL_Driver/Src/stm32f3xx_hal_dac.c ****            of data to be transferred at each end of conversion
 160:Drivers/STM32F3xx_HAL_Driver/Src/stm32f3xx_hal_dac.c ****        (+) At the middle of data transfer HAL_DAC_ConvHalfCpltCallbackCh1() or HAL_DACEx_ConvHalfCp
 161:Drivers/STM32F3xx_HAL_Driver/Src/stm32f3xx_hal_dac.c ****            function is executed and user can add his own code by customization of function pointer 
 162:Drivers/STM32F3xx_HAL_Driver/Src/stm32f3xx_hal_dac.c ****            HAL_DAC_ConvHalfCpltCallbackCh1() or HAL_DACEx_ConvHalfCpltCallbackCh2()
 163:Drivers/STM32F3xx_HAL_Driver/Src/stm32f3xx_hal_dac.c ****        (+) At The end of data transfer HAL_DAC_ConvCpltCallbackCh1() or HAL_DACEx_ConvHalfCpltCallb
 164:Drivers/STM32F3xx_HAL_Driver/Src/stm32f3xx_hal_dac.c ****            function is executed and user can add his own code by customization of function pointer 
 165:Drivers/STM32F3xx_HAL_Driver/Src/stm32f3xx_hal_dac.c ****            HAL_DAC_ConvCpltCallbackCh1() or HAL_DACEx_ConvHalfCpltCallbackCh2()
 166:Drivers/STM32F3xx_HAL_Driver/Src/stm32f3xx_hal_dac.c ****        (+) In case of transfer Error, HAL_DAC_ErrorCallbackCh1() function is executed and user can 
 167:Drivers/STM32F3xx_HAL_Driver/Src/stm32f3xx_hal_dac.c ****             add his own code by customization of function pointer HAL_DAC_ErrorCallbackCh1
 168:Drivers/STM32F3xx_HAL_Driver/Src/stm32f3xx_hal_dac.c ****        (+) In case of DMA underrun, DAC interruption triggers and execute internal function HAL_DAC
 169:Drivers/STM32F3xx_HAL_Driver/Src/stm32f3xx_hal_dac.c ****            HAL_DAC_DMAUnderrunCallbackCh1() or HAL_DACEx_DMAUnderrunCallbackCh2()  
 170:Drivers/STM32F3xx_HAL_Driver/Src/stm32f3xx_hal_dac.c ****            function is executed and user can add his own code by customization of function pointer 
 171:Drivers/STM32F3xx_HAL_Driver/Src/stm32f3xx_hal_dac.c ****            HAL_DAC_DMAUnderrunCallbackCh1() or HAL_DACEx_DMAUnderrunCallbackCh2() and
 172:Drivers/STM32F3xx_HAL_Driver/Src/stm32f3xx_hal_dac.c ****            add his own code by customization of function pointer HAL_DAC_ErrorCallbackCh1()
 173:Drivers/STM32F3xx_HAL_Driver/Src/stm32f3xx_hal_dac.c ****        (+) Stop the DAC peripheral using HAL_DAC_Stop_DMA()
 174:Drivers/STM32F3xx_HAL_Driver/Src/stm32f3xx_hal_dac.c **** 
 175:Drivers/STM32F3xx_HAL_Driver/Src/stm32f3xx_hal_dac.c ****      *** DAC HAL driver macros list ***
 176:Drivers/STM32F3xx_HAL_Driver/Src/stm32f3xx_hal_dac.c ****      ============================================= 
 177:Drivers/STM32F3xx_HAL_Driver/Src/stm32f3xx_hal_dac.c ****      [..]
 178:Drivers/STM32F3xx_HAL_Driver/Src/stm32f3xx_hal_dac.c ****        Below the list of most used macros in DAC HAL driver.
 179:Drivers/STM32F3xx_HAL_Driver/Src/stm32f3xx_hal_dac.c ****        
 180:Drivers/STM32F3xx_HAL_Driver/Src/stm32f3xx_hal_dac.c ****       (+) __HAL_DAC_ENABLE : Enable the DAC peripheral
 181:Drivers/STM32F3xx_HAL_Driver/Src/stm32f3xx_hal_dac.c ****       (+) __HAL_DAC_DISABLE : Disable the DAC peripheral
 182:Drivers/STM32F3xx_HAL_Driver/Src/stm32f3xx_hal_dac.c ****       (+) __HAL_DAC_CLEAR_FLAG: Clear the DAC's pending flags
 183:Drivers/STM32F3xx_HAL_Driver/Src/stm32f3xx_hal_dac.c ****       (+) __HAL_DAC_GET_FLAG: Get the selected DAC's flag status 
 184:Drivers/STM32F3xx_HAL_Driver/Src/stm32f3xx_hal_dac.c ****       
 185:Drivers/STM32F3xx_HAL_Driver/Src/stm32f3xx_hal_dac.c ****      [..]
 186:Drivers/STM32F3xx_HAL_Driver/Src/stm32f3xx_hal_dac.c ****       (@) You can refer to the DAC HAL driver header file for more useful macros  
 187:Drivers/STM32F3xx_HAL_Driver/Src/stm32f3xx_hal_dac.c ****    
 188:Drivers/STM32F3xx_HAL_Driver/Src/stm32f3xx_hal_dac.c ****  @endverbatim    
 189:Drivers/STM32F3xx_HAL_Driver/Src/stm32f3xx_hal_dac.c ****   ******************************************************************************
 190:Drivers/STM32F3xx_HAL_Driver/Src/stm32f3xx_hal_dac.c ****   * @attention
 191:Drivers/STM32F3xx_HAL_Driver/Src/stm32f3xx_hal_dac.c ****   *
 192:Drivers/STM32F3xx_HAL_Driver/Src/stm32f3xx_hal_dac.c ****   * <h2><center>&copy; COPYRIGHT(c) 2016 STMicroelectronics</center></h2>
 193:Drivers/STM32F3xx_HAL_Driver/Src/stm32f3xx_hal_dac.c ****   *
 194:Drivers/STM32F3xx_HAL_Driver/Src/stm32f3xx_hal_dac.c ****   * Redistribution and use in source and binary forms, with or without modification,
 195:Drivers/STM32F3xx_HAL_Driver/Src/stm32f3xx_hal_dac.c ****   * are permitted provided that the following conditions are met:
 196:Drivers/STM32F3xx_HAL_Driver/Src/stm32f3xx_hal_dac.c ****   *   1. Redistributions of source code must retain the above copyright notice,
 197:Drivers/STM32F3xx_HAL_Driver/Src/stm32f3xx_hal_dac.c ****   *      this list of conditions and the following disclaimer.
 198:Drivers/STM32F3xx_HAL_Driver/Src/stm32f3xx_hal_dac.c ****   *   2. Redistributions in binary form must reproduce the above copyright notice,
 199:Drivers/STM32F3xx_HAL_Driver/Src/stm32f3xx_hal_dac.c ****   *      this list of conditions and the following disclaimer in the documentation
 200:Drivers/STM32F3xx_HAL_Driver/Src/stm32f3xx_hal_dac.c ****   *      and/or other materials provided with the distribution.
 201:Drivers/STM32F3xx_HAL_Driver/Src/stm32f3xx_hal_dac.c ****   *   3. Neither the name of STMicroelectronics nor the names of its contributors
ARM GAS  /tmp/ccUZW80p.s 			page 5


 202:Drivers/STM32F3xx_HAL_Driver/Src/stm32f3xx_hal_dac.c ****   *      may be used to endorse or promote products derived from this software
 203:Drivers/STM32F3xx_HAL_Driver/Src/stm32f3xx_hal_dac.c ****   *      without specific prior written permission.
 204:Drivers/STM32F3xx_HAL_Driver/Src/stm32f3xx_hal_dac.c ****   *
 205:Drivers/STM32F3xx_HAL_Driver/Src/stm32f3xx_hal_dac.c ****   * THIS SOFTWARE IS PROVIDED BY THE COPYRIGHT HOLDERS AND CONTRIBUTORS "AS IS"
 206:Drivers/STM32F3xx_HAL_Driver/Src/stm32f3xx_hal_dac.c ****   * AND ANY EXPRESS OR IMPLIED WARRANTIES, INCLUDING, BUT NOT LIMITED TO, THE
 207:Drivers/STM32F3xx_HAL_Driver/Src/stm32f3xx_hal_dac.c ****   * IMPLIED WARRANTIES OF MERCHANTABILITY AND FITNESS FOR A PARTICULAR PURPOSE ARE
 208:Drivers/STM32F3xx_HAL_Driver/Src/stm32f3xx_hal_dac.c ****   * DISCLAIMED. IN NO EVENT SHALL THE COPYRIGHT HOLDER OR CONTRIBUTORS BE LIABLE
 209:Drivers/STM32F3xx_HAL_Driver/Src/stm32f3xx_hal_dac.c ****   * FOR ANY DIRECT, INDIRECT, INCIDENTAL, SPECIAL, EXEMPLARY, OR CONSEQUENTIAL
 210:Drivers/STM32F3xx_HAL_Driver/Src/stm32f3xx_hal_dac.c ****   * DAMAGES (INCLUDING, BUT NOT LIMITED TO, PROCUREMENT OF SUBSTITUTE GOODS OR
 211:Drivers/STM32F3xx_HAL_Driver/Src/stm32f3xx_hal_dac.c ****   * SERVICES; LOSS OF USE, DATA, OR PROFITS; OR BUSINESS INTERRUPTION) HOWEVER
 212:Drivers/STM32F3xx_HAL_Driver/Src/stm32f3xx_hal_dac.c ****   * CAUSED AND ON ANY THEORY OF LIABILITY, WHETHER IN CONTRACT, STRICT LIABILITY,
 213:Drivers/STM32F3xx_HAL_Driver/Src/stm32f3xx_hal_dac.c ****   * OR TORT (INCLUDING NEGLIGENCE OR OTHERWISE) ARISING IN ANY WAY OUT OF THE USE
 214:Drivers/STM32F3xx_HAL_Driver/Src/stm32f3xx_hal_dac.c ****   * OF THIS SOFTWARE, EVEN IF ADVISED OF THE POSSIBILITY OF SUCH DAMAGE.
 215:Drivers/STM32F3xx_HAL_Driver/Src/stm32f3xx_hal_dac.c ****   *
 216:Drivers/STM32F3xx_HAL_Driver/Src/stm32f3xx_hal_dac.c ****   ******************************************************************************
 217:Drivers/STM32F3xx_HAL_Driver/Src/stm32f3xx_hal_dac.c ****   */ 
 218:Drivers/STM32F3xx_HAL_Driver/Src/stm32f3xx_hal_dac.c **** 
 219:Drivers/STM32F3xx_HAL_Driver/Src/stm32f3xx_hal_dac.c **** 
 220:Drivers/STM32F3xx_HAL_Driver/Src/stm32f3xx_hal_dac.c **** /* Includes ------------------------------------------------------------------*/
 221:Drivers/STM32F3xx_HAL_Driver/Src/stm32f3xx_hal_dac.c **** #include "stm32f3xx_hal.h"
 222:Drivers/STM32F3xx_HAL_Driver/Src/stm32f3xx_hal_dac.c **** 
 223:Drivers/STM32F3xx_HAL_Driver/Src/stm32f3xx_hal_dac.c **** /** @addtogroup STM32F3xx_HAL_Driver
 224:Drivers/STM32F3xx_HAL_Driver/Src/stm32f3xx_hal_dac.c ****   * @{
 225:Drivers/STM32F3xx_HAL_Driver/Src/stm32f3xx_hal_dac.c ****   */
 226:Drivers/STM32F3xx_HAL_Driver/Src/stm32f3xx_hal_dac.c **** 
 227:Drivers/STM32F3xx_HAL_Driver/Src/stm32f3xx_hal_dac.c **** /** @defgroup DAC DAC
 228:Drivers/STM32F3xx_HAL_Driver/Src/stm32f3xx_hal_dac.c ****   * @brief DAC HAL module driver
 229:Drivers/STM32F3xx_HAL_Driver/Src/stm32f3xx_hal_dac.c ****   * @{
 230:Drivers/STM32F3xx_HAL_Driver/Src/stm32f3xx_hal_dac.c ****   */ 
 231:Drivers/STM32F3xx_HAL_Driver/Src/stm32f3xx_hal_dac.c ****  
 232:Drivers/STM32F3xx_HAL_Driver/Src/stm32f3xx_hal_dac.c **** #ifdef HAL_DAC_MODULE_ENABLED
 233:Drivers/STM32F3xx_HAL_Driver/Src/stm32f3xx_hal_dac.c **** 
 234:Drivers/STM32F3xx_HAL_Driver/Src/stm32f3xx_hal_dac.c **** /* Private typedef -----------------------------------------------------------*/
 235:Drivers/STM32F3xx_HAL_Driver/Src/stm32f3xx_hal_dac.c **** /* Private define ------------------------------------------------------------*/
 236:Drivers/STM32F3xx_HAL_Driver/Src/stm32f3xx_hal_dac.c **** /* Private macro -------------------------------------------------------------*/
 237:Drivers/STM32F3xx_HAL_Driver/Src/stm32f3xx_hal_dac.c **** /** @defgroup DAC_Private_Macros DAC Private Macros
 238:Drivers/STM32F3xx_HAL_Driver/Src/stm32f3xx_hal_dac.c ****   * @{
 239:Drivers/STM32F3xx_HAL_Driver/Src/stm32f3xx_hal_dac.c ****   */
 240:Drivers/STM32F3xx_HAL_Driver/Src/stm32f3xx_hal_dac.c **** /**
 241:Drivers/STM32F3xx_HAL_Driver/Src/stm32f3xx_hal_dac.c ****   * @}
 242:Drivers/STM32F3xx_HAL_Driver/Src/stm32f3xx_hal_dac.c ****   */
 243:Drivers/STM32F3xx_HAL_Driver/Src/stm32f3xx_hal_dac.c **** 
 244:Drivers/STM32F3xx_HAL_Driver/Src/stm32f3xx_hal_dac.c **** /* Private variables ---------------------------------------------------------*/
 245:Drivers/STM32F3xx_HAL_Driver/Src/stm32f3xx_hal_dac.c **** /* Private function prototypes -----------------------------------------------*/
 246:Drivers/STM32F3xx_HAL_Driver/Src/stm32f3xx_hal_dac.c **** /** @defgroup DAC_Private_Functions DAC Private Functions
 247:Drivers/STM32F3xx_HAL_Driver/Src/stm32f3xx_hal_dac.c ****   * @{
 248:Drivers/STM32F3xx_HAL_Driver/Src/stm32f3xx_hal_dac.c ****   */
 249:Drivers/STM32F3xx_HAL_Driver/Src/stm32f3xx_hal_dac.c **** /**
 250:Drivers/STM32F3xx_HAL_Driver/Src/stm32f3xx_hal_dac.c ****   * @}
 251:Drivers/STM32F3xx_HAL_Driver/Src/stm32f3xx_hal_dac.c ****   */
 252:Drivers/STM32F3xx_HAL_Driver/Src/stm32f3xx_hal_dac.c **** 
 253:Drivers/STM32F3xx_HAL_Driver/Src/stm32f3xx_hal_dac.c **** /* Exported functions -------------------------------------------------------*/
 254:Drivers/STM32F3xx_HAL_Driver/Src/stm32f3xx_hal_dac.c ****     
 255:Drivers/STM32F3xx_HAL_Driver/Src/stm32f3xx_hal_dac.c **** /** @defgroup DAC_Exported_Functions DAC Exported Functions
 256:Drivers/STM32F3xx_HAL_Driver/Src/stm32f3xx_hal_dac.c ****   * @{
 257:Drivers/STM32F3xx_HAL_Driver/Src/stm32f3xx_hal_dac.c ****   */
 258:Drivers/STM32F3xx_HAL_Driver/Src/stm32f3xx_hal_dac.c **** 
ARM GAS  /tmp/ccUZW80p.s 			page 6


 259:Drivers/STM32F3xx_HAL_Driver/Src/stm32f3xx_hal_dac.c **** /** @defgroup DAC_Exported_Functions_Group1 Initialization and de-initialization functions 
 260:Drivers/STM32F3xx_HAL_Driver/Src/stm32f3xx_hal_dac.c ****  *  @brief    Initialization and Configuration functions 
 261:Drivers/STM32F3xx_HAL_Driver/Src/stm32f3xx_hal_dac.c ****  *
 262:Drivers/STM32F3xx_HAL_Driver/Src/stm32f3xx_hal_dac.c **** @verbatim    
 263:Drivers/STM32F3xx_HAL_Driver/Src/stm32f3xx_hal_dac.c ****   ==============================================================================
 264:Drivers/STM32F3xx_HAL_Driver/Src/stm32f3xx_hal_dac.c ****               ##### Initialization and de-initialization functions #####
 265:Drivers/STM32F3xx_HAL_Driver/Src/stm32f3xx_hal_dac.c ****   ==============================================================================
 266:Drivers/STM32F3xx_HAL_Driver/Src/stm32f3xx_hal_dac.c ****     [..]  This section provides functions allowing to:
 267:Drivers/STM32F3xx_HAL_Driver/Src/stm32f3xx_hal_dac.c ****       (+) Initialize and configure the DAC. 
 268:Drivers/STM32F3xx_HAL_Driver/Src/stm32f3xx_hal_dac.c ****       (+) De-initialize the DAC. 
 269:Drivers/STM32F3xx_HAL_Driver/Src/stm32f3xx_hal_dac.c ****          
 270:Drivers/STM32F3xx_HAL_Driver/Src/stm32f3xx_hal_dac.c **** @endverbatim
 271:Drivers/STM32F3xx_HAL_Driver/Src/stm32f3xx_hal_dac.c ****   * @{
 272:Drivers/STM32F3xx_HAL_Driver/Src/stm32f3xx_hal_dac.c ****   */
 273:Drivers/STM32F3xx_HAL_Driver/Src/stm32f3xx_hal_dac.c **** 
 274:Drivers/STM32F3xx_HAL_Driver/Src/stm32f3xx_hal_dac.c **** /**
 275:Drivers/STM32F3xx_HAL_Driver/Src/stm32f3xx_hal_dac.c ****   * @brief  Initialize the DAC peripheral according to the specified parameters
 276:Drivers/STM32F3xx_HAL_Driver/Src/stm32f3xx_hal_dac.c ****   *         in the DAC_InitStruct and initialize the associated handle.
 277:Drivers/STM32F3xx_HAL_Driver/Src/stm32f3xx_hal_dac.c ****   * @param  hdac: pointer to a DAC_HandleTypeDef structure that contains
 278:Drivers/STM32F3xx_HAL_Driver/Src/stm32f3xx_hal_dac.c ****   *         the configuration information for the specified DAC.
 279:Drivers/STM32F3xx_HAL_Driver/Src/stm32f3xx_hal_dac.c ****   * @retval HAL status
 280:Drivers/STM32F3xx_HAL_Driver/Src/stm32f3xx_hal_dac.c ****   */
 281:Drivers/STM32F3xx_HAL_Driver/Src/stm32f3xx_hal_dac.c **** HAL_StatusTypeDef HAL_DAC_Init(DAC_HandleTypeDef* hdac)
 282:Drivers/STM32F3xx_HAL_Driver/Src/stm32f3xx_hal_dac.c **** { 
 283:Drivers/STM32F3xx_HAL_Driver/Src/stm32f3xx_hal_dac.c ****   /* Check DAC handle */
 284:Drivers/STM32F3xx_HAL_Driver/Src/stm32f3xx_hal_dac.c ****   if(hdac == NULL)
 285:Drivers/STM32F3xx_HAL_Driver/Src/stm32f3xx_hal_dac.c ****   {
 286:Drivers/STM32F3xx_HAL_Driver/Src/stm32f3xx_hal_dac.c ****      return HAL_ERROR;
 287:Drivers/STM32F3xx_HAL_Driver/Src/stm32f3xx_hal_dac.c ****   }
 288:Drivers/STM32F3xx_HAL_Driver/Src/stm32f3xx_hal_dac.c ****   /* Check the parameters */
 289:Drivers/STM32F3xx_HAL_Driver/Src/stm32f3xx_hal_dac.c ****   assert_param(IS_DAC_ALL_INSTANCE(hdac->Instance));
 290:Drivers/STM32F3xx_HAL_Driver/Src/stm32f3xx_hal_dac.c ****   
 291:Drivers/STM32F3xx_HAL_Driver/Src/stm32f3xx_hal_dac.c ****   if(hdac->State == HAL_DAC_STATE_RESET)
 292:Drivers/STM32F3xx_HAL_Driver/Src/stm32f3xx_hal_dac.c ****   {  
 293:Drivers/STM32F3xx_HAL_Driver/Src/stm32f3xx_hal_dac.c ****     /* Allocate lock resource and initialize it */
 294:Drivers/STM32F3xx_HAL_Driver/Src/stm32f3xx_hal_dac.c ****     hdac->Lock = HAL_UNLOCKED;
 295:Drivers/STM32F3xx_HAL_Driver/Src/stm32f3xx_hal_dac.c **** 
 296:Drivers/STM32F3xx_HAL_Driver/Src/stm32f3xx_hal_dac.c ****     /* Init the low level hardware */
 297:Drivers/STM32F3xx_HAL_Driver/Src/stm32f3xx_hal_dac.c ****     HAL_DAC_MspInit(hdac);
 298:Drivers/STM32F3xx_HAL_Driver/Src/stm32f3xx_hal_dac.c ****   }
 299:Drivers/STM32F3xx_HAL_Driver/Src/stm32f3xx_hal_dac.c ****   
 300:Drivers/STM32F3xx_HAL_Driver/Src/stm32f3xx_hal_dac.c ****   /* Initialize the DAC state*/
 301:Drivers/STM32F3xx_HAL_Driver/Src/stm32f3xx_hal_dac.c ****   hdac->State = HAL_DAC_STATE_BUSY;
 302:Drivers/STM32F3xx_HAL_Driver/Src/stm32f3xx_hal_dac.c ****        
 303:Drivers/STM32F3xx_HAL_Driver/Src/stm32f3xx_hal_dac.c ****   /* Set DAC error code to none */
 304:Drivers/STM32F3xx_HAL_Driver/Src/stm32f3xx_hal_dac.c ****   hdac->ErrorCode = HAL_DAC_ERROR_NONE;
 305:Drivers/STM32F3xx_HAL_Driver/Src/stm32f3xx_hal_dac.c ****   
 306:Drivers/STM32F3xx_HAL_Driver/Src/stm32f3xx_hal_dac.c ****   /* Initialize the DAC state*/
 307:Drivers/STM32F3xx_HAL_Driver/Src/stm32f3xx_hal_dac.c ****   hdac->State = HAL_DAC_STATE_READY;
 308:Drivers/STM32F3xx_HAL_Driver/Src/stm32f3xx_hal_dac.c ****   
 309:Drivers/STM32F3xx_HAL_Driver/Src/stm32f3xx_hal_dac.c ****   /* Return function status */
 310:Drivers/STM32F3xx_HAL_Driver/Src/stm32f3xx_hal_dac.c ****   return HAL_OK;
 311:Drivers/STM32F3xx_HAL_Driver/Src/stm32f3xx_hal_dac.c **** }
 312:Drivers/STM32F3xx_HAL_Driver/Src/stm32f3xx_hal_dac.c **** 
 313:Drivers/STM32F3xx_HAL_Driver/Src/stm32f3xx_hal_dac.c **** /**
 314:Drivers/STM32F3xx_HAL_Driver/Src/stm32f3xx_hal_dac.c ****   * @brief  Deinitialize the DAC peripheral registers to their default reset values.
 315:Drivers/STM32F3xx_HAL_Driver/Src/stm32f3xx_hal_dac.c ****   * @param  hdac: pointer to a DAC_HandleTypeDef structure that contains
ARM GAS  /tmp/ccUZW80p.s 			page 7


 316:Drivers/STM32F3xx_HAL_Driver/Src/stm32f3xx_hal_dac.c ****   *         the configuration information for the specified DAC.
 317:Drivers/STM32F3xx_HAL_Driver/Src/stm32f3xx_hal_dac.c ****   * @retval HAL status
 318:Drivers/STM32F3xx_HAL_Driver/Src/stm32f3xx_hal_dac.c ****   */
 319:Drivers/STM32F3xx_HAL_Driver/Src/stm32f3xx_hal_dac.c **** HAL_StatusTypeDef HAL_DAC_DeInit(DAC_HandleTypeDef* hdac)
 320:Drivers/STM32F3xx_HAL_Driver/Src/stm32f3xx_hal_dac.c **** {
 321:Drivers/STM32F3xx_HAL_Driver/Src/stm32f3xx_hal_dac.c ****   /* Check DAC handle */
 322:Drivers/STM32F3xx_HAL_Driver/Src/stm32f3xx_hal_dac.c ****   if(hdac == NULL)
 323:Drivers/STM32F3xx_HAL_Driver/Src/stm32f3xx_hal_dac.c ****   {
 324:Drivers/STM32F3xx_HAL_Driver/Src/stm32f3xx_hal_dac.c ****     return HAL_ERROR;
 325:Drivers/STM32F3xx_HAL_Driver/Src/stm32f3xx_hal_dac.c ****   }
 326:Drivers/STM32F3xx_HAL_Driver/Src/stm32f3xx_hal_dac.c **** 
 327:Drivers/STM32F3xx_HAL_Driver/Src/stm32f3xx_hal_dac.c ****   /* Check the parameters */
 328:Drivers/STM32F3xx_HAL_Driver/Src/stm32f3xx_hal_dac.c ****   assert_param(IS_DAC_ALL_INSTANCE(hdac->Instance));
 329:Drivers/STM32F3xx_HAL_Driver/Src/stm32f3xx_hal_dac.c **** 
 330:Drivers/STM32F3xx_HAL_Driver/Src/stm32f3xx_hal_dac.c ****   /* Change DAC state */
 331:Drivers/STM32F3xx_HAL_Driver/Src/stm32f3xx_hal_dac.c ****   hdac->State = HAL_DAC_STATE_BUSY;
 332:Drivers/STM32F3xx_HAL_Driver/Src/stm32f3xx_hal_dac.c ****   
 333:Drivers/STM32F3xx_HAL_Driver/Src/stm32f3xx_hal_dac.c ****   /* DeInit the low level hardware */
 334:Drivers/STM32F3xx_HAL_Driver/Src/stm32f3xx_hal_dac.c ****   HAL_DAC_MspDeInit(hdac);
 335:Drivers/STM32F3xx_HAL_Driver/Src/stm32f3xx_hal_dac.c ****   
 336:Drivers/STM32F3xx_HAL_Driver/Src/stm32f3xx_hal_dac.c ****   /* Set DAC error code to none */
 337:Drivers/STM32F3xx_HAL_Driver/Src/stm32f3xx_hal_dac.c ****   hdac->ErrorCode = HAL_DAC_ERROR_NONE;
 338:Drivers/STM32F3xx_HAL_Driver/Src/stm32f3xx_hal_dac.c ****   
 339:Drivers/STM32F3xx_HAL_Driver/Src/stm32f3xx_hal_dac.c ****   /* Change DAC state */
 340:Drivers/STM32F3xx_HAL_Driver/Src/stm32f3xx_hal_dac.c ****   hdac->State = HAL_DAC_STATE_RESET;
 341:Drivers/STM32F3xx_HAL_Driver/Src/stm32f3xx_hal_dac.c **** 
 342:Drivers/STM32F3xx_HAL_Driver/Src/stm32f3xx_hal_dac.c ****   /* Release Lock */
 343:Drivers/STM32F3xx_HAL_Driver/Src/stm32f3xx_hal_dac.c ****   __HAL_UNLOCK(hdac);
 344:Drivers/STM32F3xx_HAL_Driver/Src/stm32f3xx_hal_dac.c **** 
 345:Drivers/STM32F3xx_HAL_Driver/Src/stm32f3xx_hal_dac.c ****   /* Return function status */
 346:Drivers/STM32F3xx_HAL_Driver/Src/stm32f3xx_hal_dac.c ****   return HAL_OK;
 347:Drivers/STM32F3xx_HAL_Driver/Src/stm32f3xx_hal_dac.c **** }
 348:Drivers/STM32F3xx_HAL_Driver/Src/stm32f3xx_hal_dac.c **** 
 349:Drivers/STM32F3xx_HAL_Driver/Src/stm32f3xx_hal_dac.c **** /**
 350:Drivers/STM32F3xx_HAL_Driver/Src/stm32f3xx_hal_dac.c ****   * @brief  Initialize the DAC MSP.
 351:Drivers/STM32F3xx_HAL_Driver/Src/stm32f3xx_hal_dac.c ****   * @param  hdac: pointer to a DAC_HandleTypeDef structure that contains
 352:Drivers/STM32F3xx_HAL_Driver/Src/stm32f3xx_hal_dac.c ****   *         the configuration information for the specified DAC.
 353:Drivers/STM32F3xx_HAL_Driver/Src/stm32f3xx_hal_dac.c ****   * @retval None
 354:Drivers/STM32F3xx_HAL_Driver/Src/stm32f3xx_hal_dac.c ****   */
 355:Drivers/STM32F3xx_HAL_Driver/Src/stm32f3xx_hal_dac.c **** __weak void HAL_DAC_MspInit(DAC_HandleTypeDef* hdac)
 356:Drivers/STM32F3xx_HAL_Driver/Src/stm32f3xx_hal_dac.c **** {
  29              		.loc 1 356 0
  30              		.cfi_startproc
  31              		@ args = 0, pretend = 0, frame = 0
  32              		@ frame_needed = 0, uses_anonymous_args = 0
  33              		@ link register save eliminated.
  34              	.LVL0:
  35 0000 7047     		bx	lr
  36              		.cfi_endproc
  37              	.LFE125:
  39 0002 00BF     		.section	.text.HAL_DAC_Init,"ax",%progbits
  40              		.align	2
  41              		.global	HAL_DAC_Init
  42              		.thumb
  43              		.thumb_func
  45              	HAL_DAC_Init:
  46              	.LFB123:
ARM GAS  /tmp/ccUZW80p.s 			page 8


 282:Drivers/STM32F3xx_HAL_Driver/Src/stm32f3xx_hal_dac.c **** { 
  47              		.loc 1 282 0
  48              		.cfi_startproc
  49              		@ args = 0, pretend = 0, frame = 0
  50              		@ frame_needed = 0, uses_anonymous_args = 0
  51              	.LVL1:
 282:Drivers/STM32F3xx_HAL_Driver/Src/stm32f3xx_hal_dac.c **** { 
  52              		.loc 1 282 0
  53 0000 10B5     		push	{r4, lr}
  54              	.LCFI0:
  55              		.cfi_def_cfa_offset 8
  56              		.cfi_offset 4, -8
  57              		.cfi_offset 14, -4
 284:Drivers/STM32F3xx_HAL_Driver/Src/stm32f3xx_hal_dac.c ****   if(hdac == NULL)
  58              		.loc 1 284 0
  59 0002 0446     		mov	r4, r0
  60 0004 70B1     		cbz	r0, .L5
 291:Drivers/STM32F3xx_HAL_Driver/Src/stm32f3xx_hal_dac.c ****   if(hdac->State == HAL_DAC_STATE_RESET)
  61              		.loc 1 291 0
  62 0006 0379     		ldrb	r3, [r0, #4]	@ zero_extendqisi2
  63 0008 13F0FF0F 		tst	r3, #255
  64 000c 03D1     		bne	.L4
 294:Drivers/STM32F3xx_HAL_Driver/Src/stm32f3xx_hal_dac.c ****     hdac->Lock = HAL_UNLOCKED;
  65              		.loc 1 294 0
  66 000e 0023     		movs	r3, #0
  67 0010 4371     		strb	r3, [r0, #5]
 297:Drivers/STM32F3xx_HAL_Driver/Src/stm32f3xx_hal_dac.c ****     HAL_DAC_MspInit(hdac);
  68              		.loc 1 297 0
  69 0012 FFF7FEFF 		bl	HAL_DAC_MspInit
  70              	.LVL2:
  71              	.L4:
 301:Drivers/STM32F3xx_HAL_Driver/Src/stm32f3xx_hal_dac.c ****   hdac->State = HAL_DAC_STATE_BUSY;
  72              		.loc 1 301 0
  73 0016 0223     		movs	r3, #2
  74 0018 2371     		strb	r3, [r4, #4]
 304:Drivers/STM32F3xx_HAL_Driver/Src/stm32f3xx_hal_dac.c ****   hdac->ErrorCode = HAL_DAC_ERROR_NONE;
  75              		.loc 1 304 0
  76 001a 0020     		movs	r0, #0
  77 001c 2061     		str	r0, [r4, #16]
 307:Drivers/STM32F3xx_HAL_Driver/Src/stm32f3xx_hal_dac.c ****   hdac->State = HAL_DAC_STATE_READY;
  78              		.loc 1 307 0
  79 001e 0123     		movs	r3, #1
  80 0020 2371     		strb	r3, [r4, #4]
 310:Drivers/STM32F3xx_HAL_Driver/Src/stm32f3xx_hal_dac.c ****   return HAL_OK;
  81              		.loc 1 310 0
  82 0022 10BD     		pop	{r4, pc}
  83              	.LVL3:
  84              	.L5:
 286:Drivers/STM32F3xx_HAL_Driver/Src/stm32f3xx_hal_dac.c ****      return HAL_ERROR;
  85              		.loc 1 286 0
  86 0024 0120     		movs	r0, #1
  87              	.LVL4:
 311:Drivers/STM32F3xx_HAL_Driver/Src/stm32f3xx_hal_dac.c **** }
  88              		.loc 1 311 0
  89 0026 10BD     		pop	{r4, pc}
  90              		.cfi_endproc
  91              	.LFE123:
ARM GAS  /tmp/ccUZW80p.s 			page 9


  93              		.section	.text.HAL_DAC_MspDeInit,"ax",%progbits
  94              		.align	2
  95              		.weak	HAL_DAC_MspDeInit
  96              		.thumb
  97              		.thumb_func
  99              	HAL_DAC_MspDeInit:
 100              	.LFB126:
 357:Drivers/STM32F3xx_HAL_Driver/Src/stm32f3xx_hal_dac.c ****   /* Prevent unused argument(s) compilation warning */
 358:Drivers/STM32F3xx_HAL_Driver/Src/stm32f3xx_hal_dac.c ****   UNUSED(hdac);
 359:Drivers/STM32F3xx_HAL_Driver/Src/stm32f3xx_hal_dac.c **** 
 360:Drivers/STM32F3xx_HAL_Driver/Src/stm32f3xx_hal_dac.c ****   /* NOTE : This function should not be modified, when the callback is needed,
 361:Drivers/STM32F3xx_HAL_Driver/Src/stm32f3xx_hal_dac.c ****             the HAL_DAC_MspInit could be implemented in the user file
 362:Drivers/STM32F3xx_HAL_Driver/Src/stm32f3xx_hal_dac.c ****    */ 
 363:Drivers/STM32F3xx_HAL_Driver/Src/stm32f3xx_hal_dac.c **** }
 364:Drivers/STM32F3xx_HAL_Driver/Src/stm32f3xx_hal_dac.c **** 
 365:Drivers/STM32F3xx_HAL_Driver/Src/stm32f3xx_hal_dac.c **** /**
 366:Drivers/STM32F3xx_HAL_Driver/Src/stm32f3xx_hal_dac.c ****   * @brief  DeInitialize the DAC MSP.
 367:Drivers/STM32F3xx_HAL_Driver/Src/stm32f3xx_hal_dac.c ****   * @param  hdac: pointer to a DAC_HandleTypeDef structure that contains
 368:Drivers/STM32F3xx_HAL_Driver/Src/stm32f3xx_hal_dac.c ****   *         the configuration information for the specified DAC.  
 369:Drivers/STM32F3xx_HAL_Driver/Src/stm32f3xx_hal_dac.c ****   * @retval None
 370:Drivers/STM32F3xx_HAL_Driver/Src/stm32f3xx_hal_dac.c ****   */
 371:Drivers/STM32F3xx_HAL_Driver/Src/stm32f3xx_hal_dac.c **** __weak void HAL_DAC_MspDeInit(DAC_HandleTypeDef* hdac)
 372:Drivers/STM32F3xx_HAL_Driver/Src/stm32f3xx_hal_dac.c **** {
 101              		.loc 1 372 0
 102              		.cfi_startproc
 103              		@ args = 0, pretend = 0, frame = 0
 104              		@ frame_needed = 0, uses_anonymous_args = 0
 105              		@ link register save eliminated.
 106              	.LVL5:
 107 0000 7047     		bx	lr
 108              		.cfi_endproc
 109              	.LFE126:
 111 0002 00BF     		.section	.text.HAL_DAC_DeInit,"ax",%progbits
 112              		.align	2
 113              		.global	HAL_DAC_DeInit
 114              		.thumb
 115              		.thumb_func
 117              	HAL_DAC_DeInit:
 118              	.LFB124:
 320:Drivers/STM32F3xx_HAL_Driver/Src/stm32f3xx_hal_dac.c **** {
 119              		.loc 1 320 0
 120              		.cfi_startproc
 121              		@ args = 0, pretend = 0, frame = 0
 122              		@ frame_needed = 0, uses_anonymous_args = 0
 123              	.LVL6:
 320:Drivers/STM32F3xx_HAL_Driver/Src/stm32f3xx_hal_dac.c **** {
 124              		.loc 1 320 0
 125 0000 10B5     		push	{r4, lr}
 126              	.LCFI1:
 127              		.cfi_def_cfa_offset 8
 128              		.cfi_offset 4, -8
 129              		.cfi_offset 14, -4
 322:Drivers/STM32F3xx_HAL_Driver/Src/stm32f3xx_hal_dac.c ****   if(hdac == NULL)
 130              		.loc 1 322 0
 131 0002 0446     		mov	r4, r0
 132 0004 40B1     		cbz	r0, .L9
 331:Drivers/STM32F3xx_HAL_Driver/Src/stm32f3xx_hal_dac.c ****   hdac->State = HAL_DAC_STATE_BUSY;
ARM GAS  /tmp/ccUZW80p.s 			page 10


 133              		.loc 1 331 0
 134 0006 0223     		movs	r3, #2
 135 0008 0371     		strb	r3, [r0, #4]
 334:Drivers/STM32F3xx_HAL_Driver/Src/stm32f3xx_hal_dac.c ****   HAL_DAC_MspDeInit(hdac);
 136              		.loc 1 334 0
 137 000a FFF7FEFF 		bl	HAL_DAC_MspDeInit
 138              	.LVL7:
 337:Drivers/STM32F3xx_HAL_Driver/Src/stm32f3xx_hal_dac.c ****   hdac->ErrorCode = HAL_DAC_ERROR_NONE;
 139              		.loc 1 337 0
 140 000e 0020     		movs	r0, #0
 141 0010 2061     		str	r0, [r4, #16]
 340:Drivers/STM32F3xx_HAL_Driver/Src/stm32f3xx_hal_dac.c ****   hdac->State = HAL_DAC_STATE_RESET;
 142              		.loc 1 340 0
 143 0012 2071     		strb	r0, [r4, #4]
 343:Drivers/STM32F3xx_HAL_Driver/Src/stm32f3xx_hal_dac.c ****   __HAL_UNLOCK(hdac);
 144              		.loc 1 343 0
 145 0014 6071     		strb	r0, [r4, #5]
 346:Drivers/STM32F3xx_HAL_Driver/Src/stm32f3xx_hal_dac.c ****   return HAL_OK;
 146              		.loc 1 346 0
 147 0016 10BD     		pop	{r4, pc}
 148              	.LVL8:
 149              	.L9:
 324:Drivers/STM32F3xx_HAL_Driver/Src/stm32f3xx_hal_dac.c ****     return HAL_ERROR;
 150              		.loc 1 324 0
 151 0018 0120     		movs	r0, #1
 152              	.LVL9:
 347:Drivers/STM32F3xx_HAL_Driver/Src/stm32f3xx_hal_dac.c **** }
 153              		.loc 1 347 0
 154 001a 10BD     		pop	{r4, pc}
 155              		.cfi_endproc
 156              	.LFE124:
 158              		.section	.text.HAL_DAC_Start,"ax",%progbits
 159              		.align	2
 160              		.weak	HAL_DAC_Start
 161              		.thumb
 162              		.thumb_func
 164              	HAL_DAC_Start:
 165              	.LFB127:
 373:Drivers/STM32F3xx_HAL_Driver/Src/stm32f3xx_hal_dac.c ****   /* Prevent unused argument(s) compilation warning */
 374:Drivers/STM32F3xx_HAL_Driver/Src/stm32f3xx_hal_dac.c ****   UNUSED(hdac);
 375:Drivers/STM32F3xx_HAL_Driver/Src/stm32f3xx_hal_dac.c **** 
 376:Drivers/STM32F3xx_HAL_Driver/Src/stm32f3xx_hal_dac.c ****   /* NOTE : This function should not be modified, when the callback is needed,
 377:Drivers/STM32F3xx_HAL_Driver/Src/stm32f3xx_hal_dac.c ****             the HAL_DAC_MspDeInit could be implemented in the user file
 378:Drivers/STM32F3xx_HAL_Driver/Src/stm32f3xx_hal_dac.c ****    */ 
 379:Drivers/STM32F3xx_HAL_Driver/Src/stm32f3xx_hal_dac.c **** }
 380:Drivers/STM32F3xx_HAL_Driver/Src/stm32f3xx_hal_dac.c **** 
 381:Drivers/STM32F3xx_HAL_Driver/Src/stm32f3xx_hal_dac.c **** /**
 382:Drivers/STM32F3xx_HAL_Driver/Src/stm32f3xx_hal_dac.c ****   * @}
 383:Drivers/STM32F3xx_HAL_Driver/Src/stm32f3xx_hal_dac.c ****   */
 384:Drivers/STM32F3xx_HAL_Driver/Src/stm32f3xx_hal_dac.c **** 
 385:Drivers/STM32F3xx_HAL_Driver/Src/stm32f3xx_hal_dac.c **** /** @defgroup DAC_Exported_Functions_Group2 Input and Output operation functions
 386:Drivers/STM32F3xx_HAL_Driver/Src/stm32f3xx_hal_dac.c ****  *  @brief    IO operation functions 
 387:Drivers/STM32F3xx_HAL_Driver/Src/stm32f3xx_hal_dac.c ****  *
 388:Drivers/STM32F3xx_HAL_Driver/Src/stm32f3xx_hal_dac.c **** @verbatim   
 389:Drivers/STM32F3xx_HAL_Driver/Src/stm32f3xx_hal_dac.c ****   ==============================================================================
 390:Drivers/STM32F3xx_HAL_Driver/Src/stm32f3xx_hal_dac.c ****              ##### IO operation functions #####
 391:Drivers/STM32F3xx_HAL_Driver/Src/stm32f3xx_hal_dac.c ****   ==============================================================================  
ARM GAS  /tmp/ccUZW80p.s 			page 11


 392:Drivers/STM32F3xx_HAL_Driver/Src/stm32f3xx_hal_dac.c ****     [..]  This section provides functions allowing to:
 393:Drivers/STM32F3xx_HAL_Driver/Src/stm32f3xx_hal_dac.c ****       (+) Start conversion.
 394:Drivers/STM32F3xx_HAL_Driver/Src/stm32f3xx_hal_dac.c ****       (+) Stop conversion.
 395:Drivers/STM32F3xx_HAL_Driver/Src/stm32f3xx_hal_dac.c ****       (+) Start conversion and enable DMA transfer.
 396:Drivers/STM32F3xx_HAL_Driver/Src/stm32f3xx_hal_dac.c ****       (+) Stop conversion and disable DMA transfer.
 397:Drivers/STM32F3xx_HAL_Driver/Src/stm32f3xx_hal_dac.c ****       (+) Get result of conversion.
 398:Drivers/STM32F3xx_HAL_Driver/Src/stm32f3xx_hal_dac.c ****       (+) Get result of dual mode conversion.
 399:Drivers/STM32F3xx_HAL_Driver/Src/stm32f3xx_hal_dac.c ****                      
 400:Drivers/STM32F3xx_HAL_Driver/Src/stm32f3xx_hal_dac.c **** @endverbatim
 401:Drivers/STM32F3xx_HAL_Driver/Src/stm32f3xx_hal_dac.c ****   * @{
 402:Drivers/STM32F3xx_HAL_Driver/Src/stm32f3xx_hal_dac.c ****   */
 403:Drivers/STM32F3xx_HAL_Driver/Src/stm32f3xx_hal_dac.c **** 
 404:Drivers/STM32F3xx_HAL_Driver/Src/stm32f3xx_hal_dac.c **** /**
 405:Drivers/STM32F3xx_HAL_Driver/Src/stm32f3xx_hal_dac.c ****   * @brief  Enables DAC and starts conversion of channel.
 406:Drivers/STM32F3xx_HAL_Driver/Src/stm32f3xx_hal_dac.c ****   * @param  hdac: pointer to a DAC_HandleTypeDef structure that contains
 407:Drivers/STM32F3xx_HAL_Driver/Src/stm32f3xx_hal_dac.c ****   *         the configuration information for the specified DAC.
 408:Drivers/STM32F3xx_HAL_Driver/Src/stm32f3xx_hal_dac.c ****   * @param  Channel: The selected DAC channel. 
 409:Drivers/STM32F3xx_HAL_Driver/Src/stm32f3xx_hal_dac.c ****   *          This parameter can be one of the following values:
 410:Drivers/STM32F3xx_HAL_Driver/Src/stm32f3xx_hal_dac.c ****   *            @arg DAC_CHANNEL_1: DAC1 Channel1 selected
 411:Drivers/STM32F3xx_HAL_Driver/Src/stm32f3xx_hal_dac.c ****   *            @arg DAC_CHANNEL_2: DAC1 Channel2 selected  
 412:Drivers/STM32F3xx_HAL_Driver/Src/stm32f3xx_hal_dac.c ****   *            @arg DAC_CHANNEL_1: DAC2 Channel1 selected  
 413:Drivers/STM32F3xx_HAL_Driver/Src/stm32f3xx_hal_dac.c ****   * @retval HAL status
 414:Drivers/STM32F3xx_HAL_Driver/Src/stm32f3xx_hal_dac.c ****   */
 415:Drivers/STM32F3xx_HAL_Driver/Src/stm32f3xx_hal_dac.c **** __weak HAL_StatusTypeDef HAL_DAC_Start(DAC_HandleTypeDef* hdac, uint32_t Channel)
 416:Drivers/STM32F3xx_HAL_Driver/Src/stm32f3xx_hal_dac.c **** {
 166              		.loc 1 416 0
 167              		.cfi_startproc
 168              		@ args = 0, pretend = 0, frame = 0
 169              		@ frame_needed = 0, uses_anonymous_args = 0
 170              		@ link register save eliminated.
 171              	.LVL10:
 417:Drivers/STM32F3xx_HAL_Driver/Src/stm32f3xx_hal_dac.c ****   /* Prevent unused argument(s) compilation warning */
 418:Drivers/STM32F3xx_HAL_Driver/Src/stm32f3xx_hal_dac.c ****   UNUSED(hdac);
 419:Drivers/STM32F3xx_HAL_Driver/Src/stm32f3xx_hal_dac.c ****   UNUSED(Channel);
 420:Drivers/STM32F3xx_HAL_Driver/Src/stm32f3xx_hal_dac.c **** 
 421:Drivers/STM32F3xx_HAL_Driver/Src/stm32f3xx_hal_dac.c ****   /* Note : This function is defined into this file for library reference */
 422:Drivers/STM32F3xx_HAL_Driver/Src/stm32f3xx_hal_dac.c ****   /*        Function content is located into file stm32f3xx_hal_dac_ex.c  */
 423:Drivers/STM32F3xx_HAL_Driver/Src/stm32f3xx_hal_dac.c ****   
 424:Drivers/STM32F3xx_HAL_Driver/Src/stm32f3xx_hal_dac.c ****   /* Return function status */
 425:Drivers/STM32F3xx_HAL_Driver/Src/stm32f3xx_hal_dac.c ****   return HAL_ERROR;
 426:Drivers/STM32F3xx_HAL_Driver/Src/stm32f3xx_hal_dac.c **** }
 172              		.loc 1 426 0
 173 0000 0120     		movs	r0, #1
 174              	.LVL11:
 175 0002 7047     		bx	lr
 176              		.cfi_endproc
 177              	.LFE127:
 179              		.section	.text.HAL_DAC_Stop,"ax",%progbits
 180              		.align	2
 181              		.global	HAL_DAC_Stop
 182              		.thumb
 183              		.thumb_func
 185              	HAL_DAC_Stop:
 186              	.LFB128:
 427:Drivers/STM32F3xx_HAL_Driver/Src/stm32f3xx_hal_dac.c **** 
 428:Drivers/STM32F3xx_HAL_Driver/Src/stm32f3xx_hal_dac.c **** /**
 429:Drivers/STM32F3xx_HAL_Driver/Src/stm32f3xx_hal_dac.c ****   * @brief  Disables DAC and stop conversion of channel.
ARM GAS  /tmp/ccUZW80p.s 			page 12


 430:Drivers/STM32F3xx_HAL_Driver/Src/stm32f3xx_hal_dac.c ****   * @param  hdac: pointer to a DAC_HandleTypeDef structure that contains
 431:Drivers/STM32F3xx_HAL_Driver/Src/stm32f3xx_hal_dac.c ****   *         the configuration information for the specified DAC.
 432:Drivers/STM32F3xx_HAL_Driver/Src/stm32f3xx_hal_dac.c ****   * @param  Channel: The selected DAC channel. 
 433:Drivers/STM32F3xx_HAL_Driver/Src/stm32f3xx_hal_dac.c ****   *          This parameter can be one of the following values:
 434:Drivers/STM32F3xx_HAL_Driver/Src/stm32f3xx_hal_dac.c ****   *            @arg DAC_CHANNEL_1: DAC1 Channel1 selected
 435:Drivers/STM32F3xx_HAL_Driver/Src/stm32f3xx_hal_dac.c ****   *            @arg DAC_CHANNEL_2: DAC1 Channel2 selected  
 436:Drivers/STM32F3xx_HAL_Driver/Src/stm32f3xx_hal_dac.c ****   *            @arg DAC_CHANNEL_1: DAC2 Channel1 selected  
 437:Drivers/STM32F3xx_HAL_Driver/Src/stm32f3xx_hal_dac.c ****   * @retval HAL status
 438:Drivers/STM32F3xx_HAL_Driver/Src/stm32f3xx_hal_dac.c ****   */
 439:Drivers/STM32F3xx_HAL_Driver/Src/stm32f3xx_hal_dac.c **** HAL_StatusTypeDef HAL_DAC_Stop(DAC_HandleTypeDef* hdac, uint32_t Channel)
 440:Drivers/STM32F3xx_HAL_Driver/Src/stm32f3xx_hal_dac.c **** {
 187              		.loc 1 440 0
 188              		.cfi_startproc
 189              		@ args = 0, pretend = 0, frame = 0
 190              		@ frame_needed = 0, uses_anonymous_args = 0
 191              		@ link register save eliminated.
 192              	.LVL12:
 193 0000 10B4     		push	{r4}
 194              	.LCFI2:
 195              		.cfi_def_cfa_offset 4
 196              		.cfi_offset 4, -4
 441:Drivers/STM32F3xx_HAL_Driver/Src/stm32f3xx_hal_dac.c ****   /* Check the parameters */
 442:Drivers/STM32F3xx_HAL_Driver/Src/stm32f3xx_hal_dac.c ****   assert_param(IS_DAC_CHANNEL_INSTANCE(hdac->Instance, Channel));
 443:Drivers/STM32F3xx_HAL_Driver/Src/stm32f3xx_hal_dac.c ****   
 444:Drivers/STM32F3xx_HAL_Driver/Src/stm32f3xx_hal_dac.c ****   /* Disable the Peripheral */
 445:Drivers/STM32F3xx_HAL_Driver/Src/stm32f3xx_hal_dac.c ****   __HAL_DAC_DISABLE(hdac, Channel);
 197              		.loc 1 445 0
 198 0002 0268     		ldr	r2, [r0]
 199 0004 1468     		ldr	r4, [r2]
 200 0006 0123     		movs	r3, #1
 201 0008 03FA01F1 		lsl	r1, r3, r1
 202              	.LVL13:
 203 000c 24EA0104 		bic	r4, r4, r1
 204 0010 1460     		str	r4, [r2]
 446:Drivers/STM32F3xx_HAL_Driver/Src/stm32f3xx_hal_dac.c ****   
 447:Drivers/STM32F3xx_HAL_Driver/Src/stm32f3xx_hal_dac.c ****   /* Change DAC state */
 448:Drivers/STM32F3xx_HAL_Driver/Src/stm32f3xx_hal_dac.c ****   hdac->State = HAL_DAC_STATE_READY;
 205              		.loc 1 448 0
 206 0012 0371     		strb	r3, [r0, #4]
 449:Drivers/STM32F3xx_HAL_Driver/Src/stm32f3xx_hal_dac.c ****   
 450:Drivers/STM32F3xx_HAL_Driver/Src/stm32f3xx_hal_dac.c ****   /* Return function status */
 451:Drivers/STM32F3xx_HAL_Driver/Src/stm32f3xx_hal_dac.c ****   return HAL_OK;
 452:Drivers/STM32F3xx_HAL_Driver/Src/stm32f3xx_hal_dac.c **** }
 207              		.loc 1 452 0
 208 0014 0020     		movs	r0, #0
 209              	.LVL14:
 210 0016 5DF8044B 		ldr	r4, [sp], #4
 211 001a 7047     		bx	lr
 212              		.cfi_endproc
 213              	.LFE128:
 215              		.section	.text.HAL_DAC_Stop_DMA,"ax",%progbits
 216              		.align	2
 217              		.global	HAL_DAC_Stop_DMA
 218              		.thumb
 219              		.thumb_func
 221              	HAL_DAC_Stop_DMA:
 222              	.LFB129:
ARM GAS  /tmp/ccUZW80p.s 			page 13


 453:Drivers/STM32F3xx_HAL_Driver/Src/stm32f3xx_hal_dac.c **** 
 454:Drivers/STM32F3xx_HAL_Driver/Src/stm32f3xx_hal_dac.c **** /**
 455:Drivers/STM32F3xx_HAL_Driver/Src/stm32f3xx_hal_dac.c ****   * @brief  Disables DAC and stop conversion of channel.
 456:Drivers/STM32F3xx_HAL_Driver/Src/stm32f3xx_hal_dac.c ****   * @param  hdac: pointer to a DAC_HandleTypeDef structure that contains
 457:Drivers/STM32F3xx_HAL_Driver/Src/stm32f3xx_hal_dac.c ****   *         the configuration information for the specified DAC.
 458:Drivers/STM32F3xx_HAL_Driver/Src/stm32f3xx_hal_dac.c ****   * @param  Channel: The selected DAC channel. 
 459:Drivers/STM32F3xx_HAL_Driver/Src/stm32f3xx_hal_dac.c ****   *          This parameter can be one of the following values:
 460:Drivers/STM32F3xx_HAL_Driver/Src/stm32f3xx_hal_dac.c ****   *            @arg DAC_CHANNEL_1: DAC1 Channel1 selected
 461:Drivers/STM32F3xx_HAL_Driver/Src/stm32f3xx_hal_dac.c ****   *            @arg DAC_CHANNEL_2: DAC1 Channel2 selected  
 462:Drivers/STM32F3xx_HAL_Driver/Src/stm32f3xx_hal_dac.c ****   *            @arg DAC_CHANNEL_1: DAC2 Channel1 selected    
 463:Drivers/STM32F3xx_HAL_Driver/Src/stm32f3xx_hal_dac.c ****   * @retval HAL status
 464:Drivers/STM32F3xx_HAL_Driver/Src/stm32f3xx_hal_dac.c ****   */
 465:Drivers/STM32F3xx_HAL_Driver/Src/stm32f3xx_hal_dac.c **** HAL_StatusTypeDef HAL_DAC_Stop_DMA(DAC_HandleTypeDef* hdac, uint32_t Channel)
 466:Drivers/STM32F3xx_HAL_Driver/Src/stm32f3xx_hal_dac.c **** {
 223              		.loc 1 466 0
 224              		.cfi_startproc
 225              		@ args = 0, pretend = 0, frame = 0
 226              		@ frame_needed = 0, uses_anonymous_args = 0
 227              	.LVL15:
 228 0000 10B5     		push	{r4, lr}
 229              	.LCFI3:
 230              		.cfi_def_cfa_offset 8
 231              		.cfi_offset 4, -8
 232              		.cfi_offset 14, -4
 233 0002 0446     		mov	r4, r0
 234              	.LVL16:
 467:Drivers/STM32F3xx_HAL_Driver/Src/stm32f3xx_hal_dac.c ****   HAL_StatusTypeDef status = HAL_OK;
 468:Drivers/STM32F3xx_HAL_Driver/Src/stm32f3xx_hal_dac.c ****     
 469:Drivers/STM32F3xx_HAL_Driver/Src/stm32f3xx_hal_dac.c ****   /* Check the parameters */
 470:Drivers/STM32F3xx_HAL_Driver/Src/stm32f3xx_hal_dac.c ****   assert_param(IS_DAC_CHANNEL_INSTANCE(hdac->Instance, Channel));
 471:Drivers/STM32F3xx_HAL_Driver/Src/stm32f3xx_hal_dac.c ****   
 472:Drivers/STM32F3xx_HAL_Driver/Src/stm32f3xx_hal_dac.c ****   /* Disable the selected DAC channel DMA request */
 473:Drivers/STM32F3xx_HAL_Driver/Src/stm32f3xx_hal_dac.c ****     hdac->Instance->CR &= ~(DAC_CR_DMAEN1 << Channel);
 235              		.loc 1 473 0
 236 0004 0368     		ldr	r3, [r0]
 237 0006 1868     		ldr	r0, [r3]
 238              	.LVL17:
 239 0008 4FF48052 		mov	r2, #4096
 240 000c 8A40     		lsls	r2, r2, r1
 241 000e 20EA0202 		bic	r2, r0, r2
 242 0012 1A60     		str	r2, [r3]
 474:Drivers/STM32F3xx_HAL_Driver/Src/stm32f3xx_hal_dac.c ****     
 475:Drivers/STM32F3xx_HAL_Driver/Src/stm32f3xx_hal_dac.c ****   /* Disable the Peripheral */
 476:Drivers/STM32F3xx_HAL_Driver/Src/stm32f3xx_hal_dac.c ****   __HAL_DAC_DISABLE(hdac, Channel);
 243              		.loc 1 476 0
 244 0014 2368     		ldr	r3, [r4]
 245 0016 1868     		ldr	r0, [r3]
 246 0018 0122     		movs	r2, #1
 247 001a 8A40     		lsls	r2, r2, r1
 248 001c 20EA0202 		bic	r2, r0, r2
 249 0020 1A60     		str	r2, [r3]
 477:Drivers/STM32F3xx_HAL_Driver/Src/stm32f3xx_hal_dac.c ****   
 478:Drivers/STM32F3xx_HAL_Driver/Src/stm32f3xx_hal_dac.c ****   /* Disable the DMA channel */
 479:Drivers/STM32F3xx_HAL_Driver/Src/stm32f3xx_hal_dac.c ****   /* Channel1 is used */
 480:Drivers/STM32F3xx_HAL_Driver/Src/stm32f3xx_hal_dac.c ****   if (Channel == DAC_CHANNEL_1)
 250              		.loc 1 480 0
 251 0022 41B9     		cbnz	r1, .L13
ARM GAS  /tmp/ccUZW80p.s 			page 14


 481:Drivers/STM32F3xx_HAL_Driver/Src/stm32f3xx_hal_dac.c ****   {
 482:Drivers/STM32F3xx_HAL_Driver/Src/stm32f3xx_hal_dac.c ****     /* Disable the DMA channel */
 483:Drivers/STM32F3xx_HAL_Driver/Src/stm32f3xx_hal_dac.c ****     status = HAL_DMA_Abort(hdac->DMA_Handle1);   
 252              		.loc 1 483 0
 253 0024 A068     		ldr	r0, [r4, #8]
 254 0026 FFF7FEFF 		bl	HAL_DMA_Abort
 255              	.LVL18:
 484:Drivers/STM32F3xx_HAL_Driver/Src/stm32f3xx_hal_dac.c ****     
 485:Drivers/STM32F3xx_HAL_Driver/Src/stm32f3xx_hal_dac.c ****     /* Disable the DAC DMA underrun interrupt */
 486:Drivers/STM32F3xx_HAL_Driver/Src/stm32f3xx_hal_dac.c ****     __HAL_DAC_DISABLE_IT(hdac, DAC_IT_DMAUDR1);
 256              		.loc 1 486 0
 257 002a 2368     		ldr	r3, [r4]
 258 002c 1A68     		ldr	r2, [r3]
 259 002e 22F40052 		bic	r2, r2, #8192
 260 0032 1A60     		str	r2, [r3]
 261 0034 07E0     		b	.L14
 262              	.LVL19:
 263              	.L13:
 487:Drivers/STM32F3xx_HAL_Driver/Src/stm32f3xx_hal_dac.c ****   }   
 488:Drivers/STM32F3xx_HAL_Driver/Src/stm32f3xx_hal_dac.c **** #if defined(STM32F303xE) || defined(STM32F398xx)                         || \
 489:Drivers/STM32F3xx_HAL_Driver/Src/stm32f3xx_hal_dac.c ****     defined(STM32F303xC) || defined(STM32F358xx)                         || \
 490:Drivers/STM32F3xx_HAL_Driver/Src/stm32f3xx_hal_dac.c ****     defined(STM32F303x8) || defined(STM32F334x8) || defined(STM32F328xx) || \
 491:Drivers/STM32F3xx_HAL_Driver/Src/stm32f3xx_hal_dac.c ****     defined(STM32F373xC) || defined(STM32F378xx) 
 492:Drivers/STM32F3xx_HAL_Driver/Src/stm32f3xx_hal_dac.c **** 
 493:Drivers/STM32F3xx_HAL_Driver/Src/stm32f3xx_hal_dac.c ****   /* For all products including channel 2U */
 494:Drivers/STM32F3xx_HAL_Driver/Src/stm32f3xx_hal_dac.c ****   /* DAC channel 2 is available on top of DAC channel 1U */
 495:Drivers/STM32F3xx_HAL_Driver/Src/stm32f3xx_hal_dac.c ****   else /* Channel2 is used for */
 496:Drivers/STM32F3xx_HAL_Driver/Src/stm32f3xx_hal_dac.c ****   {
 497:Drivers/STM32F3xx_HAL_Driver/Src/stm32f3xx_hal_dac.c ****     /* Disable the DMA channel */
 498:Drivers/STM32F3xx_HAL_Driver/Src/stm32f3xx_hal_dac.c ****     status = HAL_DMA_Abort(hdac->DMA_Handle2);   
 264              		.loc 1 498 0
 265 0036 E068     		ldr	r0, [r4, #12]
 266 0038 FFF7FEFF 		bl	HAL_DMA_Abort
 267              	.LVL20:
 499:Drivers/STM32F3xx_HAL_Driver/Src/stm32f3xx_hal_dac.c ****     
 500:Drivers/STM32F3xx_HAL_Driver/Src/stm32f3xx_hal_dac.c ****     /* Disable the DAC DMA underrun interrupt */
 501:Drivers/STM32F3xx_HAL_Driver/Src/stm32f3xx_hal_dac.c ****     __HAL_DAC_DISABLE_IT(hdac, DAC_IT_DMAUDR2);
 268              		.loc 1 501 0
 269 003c 2368     		ldr	r3, [r4]
 270 003e 1A68     		ldr	r2, [r3]
 271 0040 22F00052 		bic	r2, r2, #536870912
 272 0044 1A60     		str	r2, [r3]
 273              	.LVL21:
 274              	.L14:
 502:Drivers/STM32F3xx_HAL_Driver/Src/stm32f3xx_hal_dac.c ****   }
 503:Drivers/STM32F3xx_HAL_Driver/Src/stm32f3xx_hal_dac.c **** #endif
 504:Drivers/STM32F3xx_HAL_Driver/Src/stm32f3xx_hal_dac.c ****     
 505:Drivers/STM32F3xx_HAL_Driver/Src/stm32f3xx_hal_dac.c ****   /* Check if DMA Channel effectively disabled */
 506:Drivers/STM32F3xx_HAL_Driver/Src/stm32f3xx_hal_dac.c ****   if (status != HAL_OK)
 275              		.loc 1 506 0
 276 0046 10B1     		cbz	r0, .L15
 507:Drivers/STM32F3xx_HAL_Driver/Src/stm32f3xx_hal_dac.c ****   {
 508:Drivers/STM32F3xx_HAL_Driver/Src/stm32f3xx_hal_dac.c ****     /* Update DAC state machine to error */
 509:Drivers/STM32F3xx_HAL_Driver/Src/stm32f3xx_hal_dac.c ****     hdac->State = HAL_DAC_STATE_ERROR;      
 277              		.loc 1 509 0
 278 0048 0423     		movs	r3, #4
 279 004a 2371     		strb	r3, [r4, #4]
ARM GAS  /tmp/ccUZW80p.s 			page 15


 280 004c 10BD     		pop	{r4, pc}
 281              	.LVL22:
 282              	.L15:
 510:Drivers/STM32F3xx_HAL_Driver/Src/stm32f3xx_hal_dac.c ****   }
 511:Drivers/STM32F3xx_HAL_Driver/Src/stm32f3xx_hal_dac.c ****   else
 512:Drivers/STM32F3xx_HAL_Driver/Src/stm32f3xx_hal_dac.c ****   {
 513:Drivers/STM32F3xx_HAL_Driver/Src/stm32f3xx_hal_dac.c ****     /* Change DAC state */
 514:Drivers/STM32F3xx_HAL_Driver/Src/stm32f3xx_hal_dac.c ****     hdac->State = HAL_DAC_STATE_READY;
 283              		.loc 1 514 0
 284 004e 0123     		movs	r3, #1
 285 0050 2371     		strb	r3, [r4, #4]
 515:Drivers/STM32F3xx_HAL_Driver/Src/stm32f3xx_hal_dac.c ****   }
 516:Drivers/STM32F3xx_HAL_Driver/Src/stm32f3xx_hal_dac.c ****   
 517:Drivers/STM32F3xx_HAL_Driver/Src/stm32f3xx_hal_dac.c ****   /* Return function status */
 518:Drivers/STM32F3xx_HAL_Driver/Src/stm32f3xx_hal_dac.c ****   return status;
 519:Drivers/STM32F3xx_HAL_Driver/Src/stm32f3xx_hal_dac.c **** }
 286              		.loc 1 519 0
 287 0052 10BD     		pop	{r4, pc}
 288              		.cfi_endproc
 289              	.LFE129:
 291              		.section	.text.HAL_DAC_GetValue,"ax",%progbits
 292              		.align	2
 293              		.weak	HAL_DAC_GetValue
 294              		.thumb
 295              		.thumb_func
 297              	HAL_DAC_GetValue:
 298              	.LFB130:
 520:Drivers/STM32F3xx_HAL_Driver/Src/stm32f3xx_hal_dac.c **** 
 521:Drivers/STM32F3xx_HAL_Driver/Src/stm32f3xx_hal_dac.c **** /**
 522:Drivers/STM32F3xx_HAL_Driver/Src/stm32f3xx_hal_dac.c ****   * @brief  Returns the last data output value of the selected DAC channel.
 523:Drivers/STM32F3xx_HAL_Driver/Src/stm32f3xx_hal_dac.c ****   * @param  hdac: pointer to a DAC_HandleTypeDef structure that contains
 524:Drivers/STM32F3xx_HAL_Driver/Src/stm32f3xx_hal_dac.c ****   *         the configuration information for the specified DAC.
 525:Drivers/STM32F3xx_HAL_Driver/Src/stm32f3xx_hal_dac.c ****   * @param  Channel: The selected DAC channel. 
 526:Drivers/STM32F3xx_HAL_Driver/Src/stm32f3xx_hal_dac.c ****   *          This parameter can be one of the following values:
 527:Drivers/STM32F3xx_HAL_Driver/Src/stm32f3xx_hal_dac.c ****   *            @arg DAC_CHANNEL_1: DAC1 Channel1 selected
 528:Drivers/STM32F3xx_HAL_Driver/Src/stm32f3xx_hal_dac.c ****   *            @arg DAC_CHANNEL_2: DAC1 Channel2 selected  
 529:Drivers/STM32F3xx_HAL_Driver/Src/stm32f3xx_hal_dac.c ****   *            @arg DAC_CHANNEL_1: DAC2 Channel1 selected 
 530:Drivers/STM32F3xx_HAL_Driver/Src/stm32f3xx_hal_dac.c ****   * @retval The selected DAC channel data output value.
 531:Drivers/STM32F3xx_HAL_Driver/Src/stm32f3xx_hal_dac.c ****   */
 532:Drivers/STM32F3xx_HAL_Driver/Src/stm32f3xx_hal_dac.c **** __weak uint32_t HAL_DAC_GetValue(DAC_HandleTypeDef* hdac, uint32_t Channel)
 533:Drivers/STM32F3xx_HAL_Driver/Src/stm32f3xx_hal_dac.c **** {
 299              		.loc 1 533 0
 300              		.cfi_startproc
 301              		@ args = 0, pretend = 0, frame = 0
 302              		@ frame_needed = 0, uses_anonymous_args = 0
 303              		@ link register save eliminated.
 304              	.LVL23:
 534:Drivers/STM32F3xx_HAL_Driver/Src/stm32f3xx_hal_dac.c ****   /* Prevent unused argument(s) compilation warning */
 535:Drivers/STM32F3xx_HAL_Driver/Src/stm32f3xx_hal_dac.c ****   UNUSED(hdac);
 536:Drivers/STM32F3xx_HAL_Driver/Src/stm32f3xx_hal_dac.c ****   UNUSED(Channel);
 537:Drivers/STM32F3xx_HAL_Driver/Src/stm32f3xx_hal_dac.c **** 
 538:Drivers/STM32F3xx_HAL_Driver/Src/stm32f3xx_hal_dac.c ****   /* Note : This function is defined into this file for library reference */
 539:Drivers/STM32F3xx_HAL_Driver/Src/stm32f3xx_hal_dac.c ****   /*        Function content is located into file stm32f3xx_hal_dac_ex.c  */
 540:Drivers/STM32F3xx_HAL_Driver/Src/stm32f3xx_hal_dac.c **** 
 541:Drivers/STM32F3xx_HAL_Driver/Src/stm32f3xx_hal_dac.c ****   /* Return function status */
 542:Drivers/STM32F3xx_HAL_Driver/Src/stm32f3xx_hal_dac.c ****   return HAL_OK;
 543:Drivers/STM32F3xx_HAL_Driver/Src/stm32f3xx_hal_dac.c **** }
ARM GAS  /tmp/ccUZW80p.s 			page 16


 305              		.loc 1 543 0
 306 0000 0020     		movs	r0, #0
 307              	.LVL24:
 308 0002 7047     		bx	lr
 309              		.cfi_endproc
 310              	.LFE130:
 312              		.section	.text.HAL_DACEx_DualGetValue,"ax",%progbits
 313              		.align	2
 314              		.weak	HAL_DACEx_DualGetValue
 315              		.thumb
 316              		.thumb_func
 318              	HAL_DACEx_DualGetValue:
 319              	.LFB131:
 544:Drivers/STM32F3xx_HAL_Driver/Src/stm32f3xx_hal_dac.c **** 
 545:Drivers/STM32F3xx_HAL_Driver/Src/stm32f3xx_hal_dac.c **** /**
 546:Drivers/STM32F3xx_HAL_Driver/Src/stm32f3xx_hal_dac.c ****   * @brief  Returns the last data output value of the selected DAC channel.
 547:Drivers/STM32F3xx_HAL_Driver/Src/stm32f3xx_hal_dac.c ****   * @param  hdac: pointer to a DAC_HandleTypeDef structure that contains
 548:Drivers/STM32F3xx_HAL_Driver/Src/stm32f3xx_hal_dac.c ****   *         the configuration information for the specified DAC.
 549:Drivers/STM32F3xx_HAL_Driver/Src/stm32f3xx_hal_dac.c ****   * @retval The selected DAC channel data output value.
 550:Drivers/STM32F3xx_HAL_Driver/Src/stm32f3xx_hal_dac.c ****   */
 551:Drivers/STM32F3xx_HAL_Driver/Src/stm32f3xx_hal_dac.c **** __weak uint32_t HAL_DACEx_DualGetValue(DAC_HandleTypeDef* hdac)
 552:Drivers/STM32F3xx_HAL_Driver/Src/stm32f3xx_hal_dac.c **** {
 320              		.loc 1 552 0
 321              		.cfi_startproc
 322              		@ args = 0, pretend = 0, frame = 0
 323              		@ frame_needed = 0, uses_anonymous_args = 0
 324              		@ link register save eliminated.
 325              	.LVL25:
 553:Drivers/STM32F3xx_HAL_Driver/Src/stm32f3xx_hal_dac.c ****   /* Prevent unused argument(s) compilation warning */
 554:Drivers/STM32F3xx_HAL_Driver/Src/stm32f3xx_hal_dac.c ****   UNUSED(hdac);
 555:Drivers/STM32F3xx_HAL_Driver/Src/stm32f3xx_hal_dac.c **** 
 556:Drivers/STM32F3xx_HAL_Driver/Src/stm32f3xx_hal_dac.c ****   /* Note : This function is defined into this file for library reference */
 557:Drivers/STM32F3xx_HAL_Driver/Src/stm32f3xx_hal_dac.c ****   /*        Function content is located into file stm32f3xx_hal_dac_ex.c  */
 558:Drivers/STM32F3xx_HAL_Driver/Src/stm32f3xx_hal_dac.c **** 
 559:Drivers/STM32F3xx_HAL_Driver/Src/stm32f3xx_hal_dac.c ****   /* Return function status */
 560:Drivers/STM32F3xx_HAL_Driver/Src/stm32f3xx_hal_dac.c ****   return HAL_OK;
 561:Drivers/STM32F3xx_HAL_Driver/Src/stm32f3xx_hal_dac.c **** }
 326              		.loc 1 561 0
 327 0000 0020     		movs	r0, #0
 328              	.LVL26:
 329 0002 7047     		bx	lr
 330              		.cfi_endproc
 331              	.LFE131:
 333              		.section	.text.HAL_DAC_ConfigChannel,"ax",%progbits
 334              		.align	2
 335              		.weak	HAL_DAC_ConfigChannel
 336              		.thumb
 337              		.thumb_func
 339              	HAL_DAC_ConfigChannel:
 340              	.LFB132:
 562:Drivers/STM32F3xx_HAL_Driver/Src/stm32f3xx_hal_dac.c **** 
 563:Drivers/STM32F3xx_HAL_Driver/Src/stm32f3xx_hal_dac.c **** /**
 564:Drivers/STM32F3xx_HAL_Driver/Src/stm32f3xx_hal_dac.c ****   * @}
 565:Drivers/STM32F3xx_HAL_Driver/Src/stm32f3xx_hal_dac.c ****   */
 566:Drivers/STM32F3xx_HAL_Driver/Src/stm32f3xx_hal_dac.c ****   
 567:Drivers/STM32F3xx_HAL_Driver/Src/stm32f3xx_hal_dac.c **** /** @defgroup DAC_Exported_Functions_Group3 Peripheral Control functions
 568:Drivers/STM32F3xx_HAL_Driver/Src/stm32f3xx_hal_dac.c ****  *  @brief    Peripheral Control functions 
ARM GAS  /tmp/ccUZW80p.s 			page 17


 569:Drivers/STM32F3xx_HAL_Driver/Src/stm32f3xx_hal_dac.c ****  *
 570:Drivers/STM32F3xx_HAL_Driver/Src/stm32f3xx_hal_dac.c **** @verbatim   
 571:Drivers/STM32F3xx_HAL_Driver/Src/stm32f3xx_hal_dac.c ****   ==============================================================================
 572:Drivers/STM32F3xx_HAL_Driver/Src/stm32f3xx_hal_dac.c ****              ##### Peripheral Control functions #####
 573:Drivers/STM32F3xx_HAL_Driver/Src/stm32f3xx_hal_dac.c ****   ==============================================================================  
 574:Drivers/STM32F3xx_HAL_Driver/Src/stm32f3xx_hal_dac.c ****     [..]  This section provides functions allowing to:
 575:Drivers/STM32F3xx_HAL_Driver/Src/stm32f3xx_hal_dac.c ****       (+) Configure channels. 
 576:Drivers/STM32F3xx_HAL_Driver/Src/stm32f3xx_hal_dac.c ****       (+) Configure Triangle wave generation.
 577:Drivers/STM32F3xx_HAL_Driver/Src/stm32f3xx_hal_dac.c ****       (+) Configure Noise wave generation.
 578:Drivers/STM32F3xx_HAL_Driver/Src/stm32f3xx_hal_dac.c ****       (+) Set the specified data holding register value for DAC channel.
 579:Drivers/STM32F3xx_HAL_Driver/Src/stm32f3xx_hal_dac.c ****       (+) Set the specified data holding register value for Dual DAC channels.
 580:Drivers/STM32F3xx_HAL_Driver/Src/stm32f3xx_hal_dac.c ****       
 581:Drivers/STM32F3xx_HAL_Driver/Src/stm32f3xx_hal_dac.c **** @endverbatim
 582:Drivers/STM32F3xx_HAL_Driver/Src/stm32f3xx_hal_dac.c ****   * @{
 583:Drivers/STM32F3xx_HAL_Driver/Src/stm32f3xx_hal_dac.c ****   */
 584:Drivers/STM32F3xx_HAL_Driver/Src/stm32f3xx_hal_dac.c **** 
 585:Drivers/STM32F3xx_HAL_Driver/Src/stm32f3xx_hal_dac.c **** /**
 586:Drivers/STM32F3xx_HAL_Driver/Src/stm32f3xx_hal_dac.c ****   * @brief  Configures the selected DAC channel.
 587:Drivers/STM32F3xx_HAL_Driver/Src/stm32f3xx_hal_dac.c ****   * @param  hdac: pointer to a DAC_HandleTypeDef structure that contains
 588:Drivers/STM32F3xx_HAL_Driver/Src/stm32f3xx_hal_dac.c ****   *         the configuration information for the specified DAC.
 589:Drivers/STM32F3xx_HAL_Driver/Src/stm32f3xx_hal_dac.c ****   * @param  sConfig: DAC configuration structure.
 590:Drivers/STM32F3xx_HAL_Driver/Src/stm32f3xx_hal_dac.c ****   * @param  Channel: The selected DAC channel. 
 591:Drivers/STM32F3xx_HAL_Driver/Src/stm32f3xx_hal_dac.c ****   *          This parameter can be one of the following values:
 592:Drivers/STM32F3xx_HAL_Driver/Src/stm32f3xx_hal_dac.c ****   *            @arg DAC_CHANNEL_1: DAC1 Channel1 selected
 593:Drivers/STM32F3xx_HAL_Driver/Src/stm32f3xx_hal_dac.c ****   *            @arg DAC_CHANNEL_2: DAC1 Channel2 selected  
 594:Drivers/STM32F3xx_HAL_Driver/Src/stm32f3xx_hal_dac.c ****   *            @arg DAC_CHANNEL_1: DAC2 Channel1 selected 
 595:Drivers/STM32F3xx_HAL_Driver/Src/stm32f3xx_hal_dac.c ****   * @retval HAL status
 596:Drivers/STM32F3xx_HAL_Driver/Src/stm32f3xx_hal_dac.c ****   */
 597:Drivers/STM32F3xx_HAL_Driver/Src/stm32f3xx_hal_dac.c **** 
 598:Drivers/STM32F3xx_HAL_Driver/Src/stm32f3xx_hal_dac.c **** __weak HAL_StatusTypeDef HAL_DAC_ConfigChannel(DAC_HandleTypeDef* hdac, DAC_ChannelConfTypeDef* sCo
 599:Drivers/STM32F3xx_HAL_Driver/Src/stm32f3xx_hal_dac.c **** {
 341              		.loc 1 599 0
 342              		.cfi_startproc
 343              		@ args = 0, pretend = 0, frame = 0
 344              		@ frame_needed = 0, uses_anonymous_args = 0
 345              		@ link register save eliminated.
 346              	.LVL27:
 600:Drivers/STM32F3xx_HAL_Driver/Src/stm32f3xx_hal_dac.c ****   /* Prevent unused argument(s) compilation warning */
 601:Drivers/STM32F3xx_HAL_Driver/Src/stm32f3xx_hal_dac.c ****   UNUSED(hdac);
 602:Drivers/STM32F3xx_HAL_Driver/Src/stm32f3xx_hal_dac.c ****   UNUSED(sConfig);
 603:Drivers/STM32F3xx_HAL_Driver/Src/stm32f3xx_hal_dac.c ****   UNUSED(Channel);
 604:Drivers/STM32F3xx_HAL_Driver/Src/stm32f3xx_hal_dac.c **** 
 605:Drivers/STM32F3xx_HAL_Driver/Src/stm32f3xx_hal_dac.c ****   /* Return function status */
 606:Drivers/STM32F3xx_HAL_Driver/Src/stm32f3xx_hal_dac.c ****   return HAL_OK;
 607:Drivers/STM32F3xx_HAL_Driver/Src/stm32f3xx_hal_dac.c **** }
 347              		.loc 1 607 0
 348 0000 0020     		movs	r0, #0
 349              	.LVL28:
 350 0002 7047     		bx	lr
 351              		.cfi_endproc
 352              	.LFE132:
 354              		.section	.text.HAL_DAC_SetValue,"ax",%progbits
 355              		.align	2
 356              		.weak	HAL_DAC_SetValue
 357              		.thumb
 358              		.thumb_func
 360              	HAL_DAC_SetValue:
ARM GAS  /tmp/ccUZW80p.s 			page 18


 361              	.LFB133:
 608:Drivers/STM32F3xx_HAL_Driver/Src/stm32f3xx_hal_dac.c **** 
 609:Drivers/STM32F3xx_HAL_Driver/Src/stm32f3xx_hal_dac.c **** __weak HAL_StatusTypeDef HAL_DAC_SetValue(DAC_HandleTypeDef* hdac, uint32_t Channel, uint32_t Align
 610:Drivers/STM32F3xx_HAL_Driver/Src/stm32f3xx_hal_dac.c **** { 
 362              		.loc 1 610 0
 363              		.cfi_startproc
 364              		@ args = 0, pretend = 0, frame = 0
 365              		@ frame_needed = 0, uses_anonymous_args = 0
 366              		@ link register save eliminated.
 367              	.LVL29:
 611:Drivers/STM32F3xx_HAL_Driver/Src/stm32f3xx_hal_dac.c ****   /* Prevent unused argument(s) compilation warning */
 612:Drivers/STM32F3xx_HAL_Driver/Src/stm32f3xx_hal_dac.c ****   UNUSED(hdac);
 613:Drivers/STM32F3xx_HAL_Driver/Src/stm32f3xx_hal_dac.c ****   UNUSED(Channel);
 614:Drivers/STM32F3xx_HAL_Driver/Src/stm32f3xx_hal_dac.c ****   UNUSED(Alignment);
 615:Drivers/STM32F3xx_HAL_Driver/Src/stm32f3xx_hal_dac.c ****   UNUSED(Data);
 616:Drivers/STM32F3xx_HAL_Driver/Src/stm32f3xx_hal_dac.c **** 
 617:Drivers/STM32F3xx_HAL_Driver/Src/stm32f3xx_hal_dac.c ****   /* Note : This function is defined into this file for library reference */
 618:Drivers/STM32F3xx_HAL_Driver/Src/stm32f3xx_hal_dac.c ****   /*        Function content is located into file stm32f3xx_hal_dac_ex.c  */
 619:Drivers/STM32F3xx_HAL_Driver/Src/stm32f3xx_hal_dac.c **** 
 620:Drivers/STM32F3xx_HAL_Driver/Src/stm32f3xx_hal_dac.c ****   /* Return function status */
 621:Drivers/STM32F3xx_HAL_Driver/Src/stm32f3xx_hal_dac.c ****   return HAL_ERROR;
 622:Drivers/STM32F3xx_HAL_Driver/Src/stm32f3xx_hal_dac.c **** }
 368              		.loc 1 622 0
 369 0000 0120     		movs	r0, #1
 370              	.LVL30:
 371 0002 7047     		bx	lr
 372              		.cfi_endproc
 373              	.LFE133:
 375              		.section	.text.HAL_DACEx_DualSetValue,"ax",%progbits
 376              		.align	2
 377              		.weak	HAL_DACEx_DualSetValue
 378              		.thumb
 379              		.thumb_func
 381              	HAL_DACEx_DualSetValue:
 382              	.LFB134:
 623:Drivers/STM32F3xx_HAL_Driver/Src/stm32f3xx_hal_dac.c **** 
 624:Drivers/STM32F3xx_HAL_Driver/Src/stm32f3xx_hal_dac.c **** __weak HAL_StatusTypeDef HAL_DACEx_DualSetValue(DAC_HandleTypeDef* hdac, uint32_t Alignment, uint32
 625:Drivers/STM32F3xx_HAL_Driver/Src/stm32f3xx_hal_dac.c **** { 
 383              		.loc 1 625 0
 384              		.cfi_startproc
 385              		@ args = 0, pretend = 0, frame = 0
 386              		@ frame_needed = 0, uses_anonymous_args = 0
 387              		@ link register save eliminated.
 388              	.LVL31:
 626:Drivers/STM32F3xx_HAL_Driver/Src/stm32f3xx_hal_dac.c ****   /* Prevent unused argument(s) compilation warning */
 627:Drivers/STM32F3xx_HAL_Driver/Src/stm32f3xx_hal_dac.c ****   UNUSED(hdac);
 628:Drivers/STM32F3xx_HAL_Driver/Src/stm32f3xx_hal_dac.c ****   UNUSED(Alignment);
 629:Drivers/STM32F3xx_HAL_Driver/Src/stm32f3xx_hal_dac.c ****   UNUSED(Data1);
 630:Drivers/STM32F3xx_HAL_Driver/Src/stm32f3xx_hal_dac.c ****   UNUSED(Data2);
 631:Drivers/STM32F3xx_HAL_Driver/Src/stm32f3xx_hal_dac.c **** 
 632:Drivers/STM32F3xx_HAL_Driver/Src/stm32f3xx_hal_dac.c ****   /* Note : This function is defined into this file for library reference */
 633:Drivers/STM32F3xx_HAL_Driver/Src/stm32f3xx_hal_dac.c ****   /*        Function content is located into file stm32f3xx_hal_dac_ex.c  */
 634:Drivers/STM32F3xx_HAL_Driver/Src/stm32f3xx_hal_dac.c **** 
 635:Drivers/STM32F3xx_HAL_Driver/Src/stm32f3xx_hal_dac.c ****   /* Return function status */
 636:Drivers/STM32F3xx_HAL_Driver/Src/stm32f3xx_hal_dac.c ****   return HAL_ERROR;
 637:Drivers/STM32F3xx_HAL_Driver/Src/stm32f3xx_hal_dac.c **** }
 389              		.loc 1 637 0
ARM GAS  /tmp/ccUZW80p.s 			page 19


 390 0000 0120     		movs	r0, #1
 391              	.LVL32:
 392 0002 7047     		bx	lr
 393              		.cfi_endproc
 394              	.LFE134:
 396              		.section	.text.HAL_DAC_GetState,"ax",%progbits
 397              		.align	2
 398              		.global	HAL_DAC_GetState
 399              		.thumb
 400              		.thumb_func
 402              	HAL_DAC_GetState:
 403              	.LFB135:
 638:Drivers/STM32F3xx_HAL_Driver/Src/stm32f3xx_hal_dac.c **** 
 639:Drivers/STM32F3xx_HAL_Driver/Src/stm32f3xx_hal_dac.c **** /**
 640:Drivers/STM32F3xx_HAL_Driver/Src/stm32f3xx_hal_dac.c ****   * @}
 641:Drivers/STM32F3xx_HAL_Driver/Src/stm32f3xx_hal_dac.c ****   */
 642:Drivers/STM32F3xx_HAL_Driver/Src/stm32f3xx_hal_dac.c **** 
 643:Drivers/STM32F3xx_HAL_Driver/Src/stm32f3xx_hal_dac.c **** /** @defgroup DAC_Exported_Functions_Group4 Peripheral State and Error functions
 644:Drivers/STM32F3xx_HAL_Driver/Src/stm32f3xx_hal_dac.c ****  *  @brief   DAC Peripheral State and Error functions 
 645:Drivers/STM32F3xx_HAL_Driver/Src/stm32f3xx_hal_dac.c ****  *
 646:Drivers/STM32F3xx_HAL_Driver/Src/stm32f3xx_hal_dac.c **** @verbatim   
 647:Drivers/STM32F3xx_HAL_Driver/Src/stm32f3xx_hal_dac.c ****   ==============================================================================
 648:Drivers/STM32F3xx_HAL_Driver/Src/stm32f3xx_hal_dac.c ****             ##### DAC Peripheral State and Error functions #####
 649:Drivers/STM32F3xx_HAL_Driver/Src/stm32f3xx_hal_dac.c ****   ==============================================================================  
 650:Drivers/STM32F3xx_HAL_Driver/Src/stm32f3xx_hal_dac.c ****     [..]
 651:Drivers/STM32F3xx_HAL_Driver/Src/stm32f3xx_hal_dac.c ****     This subsection provides functions allowing to
 652:Drivers/STM32F3xx_HAL_Driver/Src/stm32f3xx_hal_dac.c ****       (+) Check the DAC state.
 653:Drivers/STM32F3xx_HAL_Driver/Src/stm32f3xx_hal_dac.c ****       (+) Check the DAC Errors.
 654:Drivers/STM32F3xx_HAL_Driver/Src/stm32f3xx_hal_dac.c **** 
 655:Drivers/STM32F3xx_HAL_Driver/Src/stm32f3xx_hal_dac.c ****         
 656:Drivers/STM32F3xx_HAL_Driver/Src/stm32f3xx_hal_dac.c **** @endverbatim
 657:Drivers/STM32F3xx_HAL_Driver/Src/stm32f3xx_hal_dac.c ****   * @{
 658:Drivers/STM32F3xx_HAL_Driver/Src/stm32f3xx_hal_dac.c ****   */
 659:Drivers/STM32F3xx_HAL_Driver/Src/stm32f3xx_hal_dac.c **** 
 660:Drivers/STM32F3xx_HAL_Driver/Src/stm32f3xx_hal_dac.c **** /**
 661:Drivers/STM32F3xx_HAL_Driver/Src/stm32f3xx_hal_dac.c ****   * @brief  return the DAC handle state
 662:Drivers/STM32F3xx_HAL_Driver/Src/stm32f3xx_hal_dac.c ****   * @param  hdac: pointer to a DAC_HandleTypeDef structure that contains
 663:Drivers/STM32F3xx_HAL_Driver/Src/stm32f3xx_hal_dac.c ****   *         the configuration information for the specified DAC.
 664:Drivers/STM32F3xx_HAL_Driver/Src/stm32f3xx_hal_dac.c ****   * @retval HAL state
 665:Drivers/STM32F3xx_HAL_Driver/Src/stm32f3xx_hal_dac.c ****   */
 666:Drivers/STM32F3xx_HAL_Driver/Src/stm32f3xx_hal_dac.c **** HAL_DAC_StateTypeDef HAL_DAC_GetState(DAC_HandleTypeDef* hdac)
 667:Drivers/STM32F3xx_HAL_Driver/Src/stm32f3xx_hal_dac.c **** {
 404              		.loc 1 667 0
 405              		.cfi_startproc
 406              		@ args = 0, pretend = 0, frame = 0
 407              		@ frame_needed = 0, uses_anonymous_args = 0
 408              		@ link register save eliminated.
 409              	.LVL33:
 668:Drivers/STM32F3xx_HAL_Driver/Src/stm32f3xx_hal_dac.c ****   /* Return DAC handle state */
 669:Drivers/STM32F3xx_HAL_Driver/Src/stm32f3xx_hal_dac.c ****   return hdac->State;
 410              		.loc 1 669 0
 411 0000 0079     		ldrb	r0, [r0, #4]	@ zero_extendqisi2
 412              	.LVL34:
 670:Drivers/STM32F3xx_HAL_Driver/Src/stm32f3xx_hal_dac.c **** }
 413              		.loc 1 670 0
 414 0002 7047     		bx	lr
 415              		.cfi_endproc
ARM GAS  /tmp/ccUZW80p.s 			page 20


 416              	.LFE135:
 418              		.section	.text.HAL_DAC_GetError,"ax",%progbits
 419              		.align	2
 420              		.global	HAL_DAC_GetError
 421              		.thumb
 422              		.thumb_func
 424              	HAL_DAC_GetError:
 425              	.LFB136:
 671:Drivers/STM32F3xx_HAL_Driver/Src/stm32f3xx_hal_dac.c **** 
 672:Drivers/STM32F3xx_HAL_Driver/Src/stm32f3xx_hal_dac.c **** /**
 673:Drivers/STM32F3xx_HAL_Driver/Src/stm32f3xx_hal_dac.c ****   * @brief  Return the DAC error code
 674:Drivers/STM32F3xx_HAL_Driver/Src/stm32f3xx_hal_dac.c ****   * @param  hdac: pointer to a DAC_HandleTypeDef structure that contains
 675:Drivers/STM32F3xx_HAL_Driver/Src/stm32f3xx_hal_dac.c ****   *         the configuration information for the specified DAC.
 676:Drivers/STM32F3xx_HAL_Driver/Src/stm32f3xx_hal_dac.c ****   * @retval DAC Error Code
 677:Drivers/STM32F3xx_HAL_Driver/Src/stm32f3xx_hal_dac.c ****   */
 678:Drivers/STM32F3xx_HAL_Driver/Src/stm32f3xx_hal_dac.c **** uint32_t HAL_DAC_GetError(DAC_HandleTypeDef *hdac)
 679:Drivers/STM32F3xx_HAL_Driver/Src/stm32f3xx_hal_dac.c **** {
 426              		.loc 1 679 0
 427              		.cfi_startproc
 428              		@ args = 0, pretend = 0, frame = 0
 429              		@ frame_needed = 0, uses_anonymous_args = 0
 430              		@ link register save eliminated.
 431              	.LVL35:
 680:Drivers/STM32F3xx_HAL_Driver/Src/stm32f3xx_hal_dac.c ****   return hdac->ErrorCode;
 432              		.loc 1 680 0
 433 0000 0069     		ldr	r0, [r0, #16]
 434              	.LVL36:
 681:Drivers/STM32F3xx_HAL_Driver/Src/stm32f3xx_hal_dac.c **** }
 435              		.loc 1 681 0
 436 0002 7047     		bx	lr
 437              		.cfi_endproc
 438              	.LFE136:
 440              		.section	.text.HAL_DAC_ConvCpltCallbackCh1,"ax",%progbits
 441              		.align	2
 442              		.weak	HAL_DAC_ConvCpltCallbackCh1
 443              		.thumb
 444              		.thumb_func
 446              	HAL_DAC_ConvCpltCallbackCh1:
 447              	.LFB137:
 682:Drivers/STM32F3xx_HAL_Driver/Src/stm32f3xx_hal_dac.c **** 
 683:Drivers/STM32F3xx_HAL_Driver/Src/stm32f3xx_hal_dac.c **** /**
 684:Drivers/STM32F3xx_HAL_Driver/Src/stm32f3xx_hal_dac.c ****   * @}
 685:Drivers/STM32F3xx_HAL_Driver/Src/stm32f3xx_hal_dac.c ****   */
 686:Drivers/STM32F3xx_HAL_Driver/Src/stm32f3xx_hal_dac.c **** 
 687:Drivers/STM32F3xx_HAL_Driver/Src/stm32f3xx_hal_dac.c **** /** @addtogroup DAC_Exported_Functions_Group2 Input and Output operation functions
 688:Drivers/STM32F3xx_HAL_Driver/Src/stm32f3xx_hal_dac.c ****   * @{
 689:Drivers/STM32F3xx_HAL_Driver/Src/stm32f3xx_hal_dac.c ****   */
 690:Drivers/STM32F3xx_HAL_Driver/Src/stm32f3xx_hal_dac.c **** 
 691:Drivers/STM32F3xx_HAL_Driver/Src/stm32f3xx_hal_dac.c **** /**
 692:Drivers/STM32F3xx_HAL_Driver/Src/stm32f3xx_hal_dac.c ****   * @brief  Conversion complete callback in non blocking mode for Channel1 
 693:Drivers/STM32F3xx_HAL_Driver/Src/stm32f3xx_hal_dac.c ****   * @param  hdac: pointer to a DAC_HandleTypeDef structure that contains
 694:Drivers/STM32F3xx_HAL_Driver/Src/stm32f3xx_hal_dac.c ****   *         the configuration information for the specified DAC.
 695:Drivers/STM32F3xx_HAL_Driver/Src/stm32f3xx_hal_dac.c ****   * @retval None
 696:Drivers/STM32F3xx_HAL_Driver/Src/stm32f3xx_hal_dac.c ****   */
 697:Drivers/STM32F3xx_HAL_Driver/Src/stm32f3xx_hal_dac.c **** __weak void HAL_DAC_ConvCpltCallbackCh1(DAC_HandleTypeDef* hdac)
 698:Drivers/STM32F3xx_HAL_Driver/Src/stm32f3xx_hal_dac.c **** {
 448              		.loc 1 698 0
ARM GAS  /tmp/ccUZW80p.s 			page 21


 449              		.cfi_startproc
 450              		@ args = 0, pretend = 0, frame = 0
 451              		@ frame_needed = 0, uses_anonymous_args = 0
 452              		@ link register save eliminated.
 453              	.LVL37:
 454 0000 7047     		bx	lr
 455              		.cfi_endproc
 456              	.LFE137:
 458 0002 00BF     		.section	.text.HAL_DAC_ConvHalfCpltCallbackCh1,"ax",%progbits
 459              		.align	2
 460              		.weak	HAL_DAC_ConvHalfCpltCallbackCh1
 461              		.thumb
 462              		.thumb_func
 464              	HAL_DAC_ConvHalfCpltCallbackCh1:
 465              	.LFB138:
 699:Drivers/STM32F3xx_HAL_Driver/Src/stm32f3xx_hal_dac.c ****   /* Prevent unused argument(s) compilation warning */
 700:Drivers/STM32F3xx_HAL_Driver/Src/stm32f3xx_hal_dac.c ****   UNUSED(hdac);
 701:Drivers/STM32F3xx_HAL_Driver/Src/stm32f3xx_hal_dac.c **** 
 702:Drivers/STM32F3xx_HAL_Driver/Src/stm32f3xx_hal_dac.c ****   /* NOTE : This function Should not be modified, when the callback is needed,
 703:Drivers/STM32F3xx_HAL_Driver/Src/stm32f3xx_hal_dac.c ****             the HAL_DAC_ConvCpltCallback1 could be implemented in the user file
 704:Drivers/STM32F3xx_HAL_Driver/Src/stm32f3xx_hal_dac.c ****    */
 705:Drivers/STM32F3xx_HAL_Driver/Src/stm32f3xx_hal_dac.c **** }
 706:Drivers/STM32F3xx_HAL_Driver/Src/stm32f3xx_hal_dac.c **** 
 707:Drivers/STM32F3xx_HAL_Driver/Src/stm32f3xx_hal_dac.c **** /**
 708:Drivers/STM32F3xx_HAL_Driver/Src/stm32f3xx_hal_dac.c ****   * @brief  Conversion half DMA transfer callback in non blocking mode for Channel1 
 709:Drivers/STM32F3xx_HAL_Driver/Src/stm32f3xx_hal_dac.c ****   * @param  hdac: pointer to a DAC_HandleTypeDef structure that contains
 710:Drivers/STM32F3xx_HAL_Driver/Src/stm32f3xx_hal_dac.c ****   *         the configuration information for the specified DAC.
 711:Drivers/STM32F3xx_HAL_Driver/Src/stm32f3xx_hal_dac.c ****   * @retval None
 712:Drivers/STM32F3xx_HAL_Driver/Src/stm32f3xx_hal_dac.c ****   */
 713:Drivers/STM32F3xx_HAL_Driver/Src/stm32f3xx_hal_dac.c **** __weak void HAL_DAC_ConvHalfCpltCallbackCh1(DAC_HandleTypeDef* hdac)
 714:Drivers/STM32F3xx_HAL_Driver/Src/stm32f3xx_hal_dac.c **** {
 466              		.loc 1 714 0
 467              		.cfi_startproc
 468              		@ args = 0, pretend = 0, frame = 0
 469              		@ frame_needed = 0, uses_anonymous_args = 0
 470              		@ link register save eliminated.
 471              	.LVL38:
 472 0000 7047     		bx	lr
 473              		.cfi_endproc
 474              	.LFE138:
 476 0002 00BF     		.section	.text.HAL_DAC_ErrorCallbackCh1,"ax",%progbits
 477              		.align	2
 478              		.weak	HAL_DAC_ErrorCallbackCh1
 479              		.thumb
 480              		.thumb_func
 482              	HAL_DAC_ErrorCallbackCh1:
 483              	.LFB139:
 715:Drivers/STM32F3xx_HAL_Driver/Src/stm32f3xx_hal_dac.c ****   /* Prevent unused argument(s) compilation warning */
 716:Drivers/STM32F3xx_HAL_Driver/Src/stm32f3xx_hal_dac.c ****   UNUSED(hdac);
 717:Drivers/STM32F3xx_HAL_Driver/Src/stm32f3xx_hal_dac.c **** 
 718:Drivers/STM32F3xx_HAL_Driver/Src/stm32f3xx_hal_dac.c ****   /* NOTE : This function Should not be modified, when the callback is needed,
 719:Drivers/STM32F3xx_HAL_Driver/Src/stm32f3xx_hal_dac.c ****             the HAL_DAC_ConvHalfCpltCallbackCh1 could be implemented in the user file
 720:Drivers/STM32F3xx_HAL_Driver/Src/stm32f3xx_hal_dac.c ****    */
 721:Drivers/STM32F3xx_HAL_Driver/Src/stm32f3xx_hal_dac.c **** }
 722:Drivers/STM32F3xx_HAL_Driver/Src/stm32f3xx_hal_dac.c **** 
 723:Drivers/STM32F3xx_HAL_Driver/Src/stm32f3xx_hal_dac.c **** /**
 724:Drivers/STM32F3xx_HAL_Driver/Src/stm32f3xx_hal_dac.c ****   * @brief  Error DAC callback for Channel1.
ARM GAS  /tmp/ccUZW80p.s 			page 22


 725:Drivers/STM32F3xx_HAL_Driver/Src/stm32f3xx_hal_dac.c ****   * @param  hdac: pointer to a DAC_HandleTypeDef structure that contains
 726:Drivers/STM32F3xx_HAL_Driver/Src/stm32f3xx_hal_dac.c ****   *         the configuration information for the specified DAC.
 727:Drivers/STM32F3xx_HAL_Driver/Src/stm32f3xx_hal_dac.c ****   * @retval None
 728:Drivers/STM32F3xx_HAL_Driver/Src/stm32f3xx_hal_dac.c ****   */
 729:Drivers/STM32F3xx_HAL_Driver/Src/stm32f3xx_hal_dac.c **** __weak void HAL_DAC_ErrorCallbackCh1(DAC_HandleTypeDef *hdac)
 730:Drivers/STM32F3xx_HAL_Driver/Src/stm32f3xx_hal_dac.c **** {
 484              		.loc 1 730 0
 485              		.cfi_startproc
 486              		@ args = 0, pretend = 0, frame = 0
 487              		@ frame_needed = 0, uses_anonymous_args = 0
 488              		@ link register save eliminated.
 489              	.LVL39:
 490 0000 7047     		bx	lr
 491              		.cfi_endproc
 492              	.LFE139:
 494 0002 00BF     		.section	.text.HAL_DAC_DMAUnderrunCallbackCh1,"ax",%progbits
 495              		.align	2
 496              		.weak	HAL_DAC_DMAUnderrunCallbackCh1
 497              		.thumb
 498              		.thumb_func
 500              	HAL_DAC_DMAUnderrunCallbackCh1:
 501              	.LFB140:
 731:Drivers/STM32F3xx_HAL_Driver/Src/stm32f3xx_hal_dac.c ****   /* Prevent unused argument(s) compilation warning */
 732:Drivers/STM32F3xx_HAL_Driver/Src/stm32f3xx_hal_dac.c ****   UNUSED(hdac);
 733:Drivers/STM32F3xx_HAL_Driver/Src/stm32f3xx_hal_dac.c **** 
 734:Drivers/STM32F3xx_HAL_Driver/Src/stm32f3xx_hal_dac.c ****   /* NOTE : This function Should not be modified, when the callback is needed,
 735:Drivers/STM32F3xx_HAL_Driver/Src/stm32f3xx_hal_dac.c ****             the HAL_DAC_ErrorCallback could be implemented in the user file
 736:Drivers/STM32F3xx_HAL_Driver/Src/stm32f3xx_hal_dac.c ****    */
 737:Drivers/STM32F3xx_HAL_Driver/Src/stm32f3xx_hal_dac.c **** }
 738:Drivers/STM32F3xx_HAL_Driver/Src/stm32f3xx_hal_dac.c **** 
 739:Drivers/STM32F3xx_HAL_Driver/Src/stm32f3xx_hal_dac.c **** 
 740:Drivers/STM32F3xx_HAL_Driver/Src/stm32f3xx_hal_dac.c **** /**
 741:Drivers/STM32F3xx_HAL_Driver/Src/stm32f3xx_hal_dac.c ****   * @brief  DMA underrun DAC callback for Channel1.
 742:Drivers/STM32F3xx_HAL_Driver/Src/stm32f3xx_hal_dac.c ****   * @param  hdac: pointer to a DAC_HandleTypeDef structure that contains
 743:Drivers/STM32F3xx_HAL_Driver/Src/stm32f3xx_hal_dac.c ****   *         the configuration information for the specified DAC.
 744:Drivers/STM32F3xx_HAL_Driver/Src/stm32f3xx_hal_dac.c ****   * @retval None
 745:Drivers/STM32F3xx_HAL_Driver/Src/stm32f3xx_hal_dac.c ****   */
 746:Drivers/STM32F3xx_HAL_Driver/Src/stm32f3xx_hal_dac.c **** __weak void HAL_DAC_DMAUnderrunCallbackCh1(DAC_HandleTypeDef *hdac)
 747:Drivers/STM32F3xx_HAL_Driver/Src/stm32f3xx_hal_dac.c **** {
 502              		.loc 1 747 0
 503              		.cfi_startproc
 504              		@ args = 0, pretend = 0, frame = 0
 505              		@ frame_needed = 0, uses_anonymous_args = 0
 506              		@ link register save eliminated.
 507              	.LVL40:
 508 0000 7047     		bx	lr
 509              		.cfi_endproc
 510              	.LFE140:
 512 0002 00BF     		.text
 513              	.Letext0:
 514              		.file 2 "/home/niklas/Downloads/gcc-arm-none-eabi-4_8-2014q3/arm-none-eabi/include/machine/_defaul
 515              		.file 3 "/home/niklas/Downloads/gcc-arm-none-eabi-4_8-2014q3/arm-none-eabi/include/stdint.h"
 516              		.file 4 "Drivers/CMSIS/Device/ST/STM32F3xx/Include/stm32f334x8.h"
 517              		.file 5 "Drivers/STM32F3xx_HAL_Driver/Inc/stm32f3xx_hal_def.h"
 518              		.file 6 "Drivers/STM32F3xx_HAL_Driver/Inc/stm32f3xx_hal_dma.h"
 519              		.file 7 "Drivers/STM32F3xx_HAL_Driver/Inc/stm32f3xx_hal_dac.h"
 520              		.file 8 "Drivers/CMSIS/Include/core_cm4.h"
ARM GAS  /tmp/ccUZW80p.s 			page 23


ARM GAS  /tmp/ccUZW80p.s 			page 24

