ARM GAS  /tmp/ccVYEPWf.s 			page 1


   1              		.syntax unified
   2              		.cpu cortex-m4
   3              		.eabi_attribute 27, 3
   4              		.eabi_attribute 28, 1
   5              		.fpu fpv4-sp-d16
   6              		.eabi_attribute 20, 1
   7              		.eabi_attribute 21, 1
   8              		.eabi_attribute 23, 1
   9              		.eabi_attribute 24, 1
  10              		.eabi_attribute 25, 1
  11              		.eabi_attribute 26, 1
  12              		.eabi_attribute 30, 1
  13              		.eabi_attribute 34, 1
  14              		.eabi_attribute 18, 4
  15              		.thumb
  16              		.file	"stm32f3xx_hal_dac_ex.c"
  17              		.text
  18              	.Ltext0:
  19              		.cfi_sections	.debug_frame
  20              		.section	.text.DAC_DMAErrorCh1,"ax",%progbits
  21              		.align	2
  22              		.thumb
  23              		.thumb_func
  25              	DAC_DMAErrorCh1:
  26              	.LFB139:
  27              		.file 1 "Drivers/STM32F3xx_HAL_Driver/Src/stm32f3xx_hal_dac_ex.c"
   1:Drivers/STM32F3xx_HAL_Driver/Src/stm32f3xx_hal_dac_ex.c **** /**
   2:Drivers/STM32F3xx_HAL_Driver/Src/stm32f3xx_hal_dac_ex.c ****   ******************************************************************************
   3:Drivers/STM32F3xx_HAL_Driver/Src/stm32f3xx_hal_dac_ex.c ****   * @file    stm32f3xx_hal_dac_ex.c
   4:Drivers/STM32F3xx_HAL_Driver/Src/stm32f3xx_hal_dac_ex.c ****   * @author  MCD Application Team
   5:Drivers/STM32F3xx_HAL_Driver/Src/stm32f3xx_hal_dac_ex.c ****   * @version V1.4.0
   6:Drivers/STM32F3xx_HAL_Driver/Src/stm32f3xx_hal_dac_ex.c ****   * @date    16-December-2016
   7:Drivers/STM32F3xx_HAL_Driver/Src/stm32f3xx_hal_dac_ex.c ****   * @brief   DACEx HAL module driver.
   8:Drivers/STM32F3xx_HAL_Driver/Src/stm32f3xx_hal_dac_ex.c ****   *          This file provides firmware functions to manage the extended 
   9:Drivers/STM32F3xx_HAL_Driver/Src/stm32f3xx_hal_dac_ex.c ****   *          functionalities of the DAC peripheral.  
  10:Drivers/STM32F3xx_HAL_Driver/Src/stm32f3xx_hal_dac_ex.c ****   *     
  11:Drivers/STM32F3xx_HAL_Driver/Src/stm32f3xx_hal_dac_ex.c ****   *
  12:Drivers/STM32F3xx_HAL_Driver/Src/stm32f3xx_hal_dac_ex.c ****   @verbatim   
  13:Drivers/STM32F3xx_HAL_Driver/Src/stm32f3xx_hal_dac_ex.c ****   ==============================================================================
  14:Drivers/STM32F3xx_HAL_Driver/Src/stm32f3xx_hal_dac_ex.c ****                       ##### How to use this driver #####
  15:Drivers/STM32F3xx_HAL_Driver/Src/stm32f3xx_hal_dac_ex.c ****   ==============================================================================
  16:Drivers/STM32F3xx_HAL_Driver/Src/stm32f3xx_hal_dac_ex.c ****     [..]          
  17:Drivers/STM32F3xx_HAL_Driver/Src/stm32f3xx_hal_dac_ex.c ****       (+) When Dual mode is enabled (i.e. DAC Channel1 and Channel2 are used simultaneously) :
  18:Drivers/STM32F3xx_HAL_Driver/Src/stm32f3xx_hal_dac_ex.c ****           Use HAL_DACEx_DualGetValue() to get digital data to be converted and use
  19:Drivers/STM32F3xx_HAL_Driver/Src/stm32f3xx_hal_dac_ex.c ****           HAL_DACEx_DualSetValue() to set digital value to converted simultaneously in Channel 1 an
  20:Drivers/STM32F3xx_HAL_Driver/Src/stm32f3xx_hal_dac_ex.c ****       (+) Use HAL_DACEx_TriangleWaveGenerate() to generate Triangle signal.
  21:Drivers/STM32F3xx_HAL_Driver/Src/stm32f3xx_hal_dac_ex.c ****       (+) Use HAL_DACEx_NoiseWaveGenerate() to generate Noise signal.
  22:Drivers/STM32F3xx_HAL_Driver/Src/stm32f3xx_hal_dac_ex.c **** 
  23:Drivers/STM32F3xx_HAL_Driver/Src/stm32f3xx_hal_dac_ex.c ****  @endverbatim    
  24:Drivers/STM32F3xx_HAL_Driver/Src/stm32f3xx_hal_dac_ex.c ****   ******************************************************************************
  25:Drivers/STM32F3xx_HAL_Driver/Src/stm32f3xx_hal_dac_ex.c ****   * @attention
  26:Drivers/STM32F3xx_HAL_Driver/Src/stm32f3xx_hal_dac_ex.c ****   *
  27:Drivers/STM32F3xx_HAL_Driver/Src/stm32f3xx_hal_dac_ex.c ****   * <h2><center>&copy; COPYRIGHT(c) 2016 STMicroelectronics</center></h2>
  28:Drivers/STM32F3xx_HAL_Driver/Src/stm32f3xx_hal_dac_ex.c ****   *
  29:Drivers/STM32F3xx_HAL_Driver/Src/stm32f3xx_hal_dac_ex.c ****   * Redistribution and use in source and binary forms, with or without modification,
  30:Drivers/STM32F3xx_HAL_Driver/Src/stm32f3xx_hal_dac_ex.c ****   * are permitted provided that the following conditions are met:
  31:Drivers/STM32F3xx_HAL_Driver/Src/stm32f3xx_hal_dac_ex.c ****   *   1. Redistributions of source code must retain the above copyright notice,
ARM GAS  /tmp/ccVYEPWf.s 			page 2


  32:Drivers/STM32F3xx_HAL_Driver/Src/stm32f3xx_hal_dac_ex.c ****   *      this list of conditions and the following disclaimer.
  33:Drivers/STM32F3xx_HAL_Driver/Src/stm32f3xx_hal_dac_ex.c ****   *   2. Redistributions in binary form must reproduce the above copyright notice,
  34:Drivers/STM32F3xx_HAL_Driver/Src/stm32f3xx_hal_dac_ex.c ****   *      this list of conditions and the following disclaimer in the documentation
  35:Drivers/STM32F3xx_HAL_Driver/Src/stm32f3xx_hal_dac_ex.c ****   *      and/or other materials provided with the distribution.
  36:Drivers/STM32F3xx_HAL_Driver/Src/stm32f3xx_hal_dac_ex.c ****   *   3. Neither the name of STMicroelectronics nor the names of its contributors
  37:Drivers/STM32F3xx_HAL_Driver/Src/stm32f3xx_hal_dac_ex.c ****   *      may be used to endorse or promote products derived from this software
  38:Drivers/STM32F3xx_HAL_Driver/Src/stm32f3xx_hal_dac_ex.c ****   *      without specific prior written permission.
  39:Drivers/STM32F3xx_HAL_Driver/Src/stm32f3xx_hal_dac_ex.c ****   *
  40:Drivers/STM32F3xx_HAL_Driver/Src/stm32f3xx_hal_dac_ex.c ****   * THIS SOFTWARE IS PROVIDED BY THE COPYRIGHT HOLDERS AND CONTRIBUTORS "AS IS"
  41:Drivers/STM32F3xx_HAL_Driver/Src/stm32f3xx_hal_dac_ex.c ****   * AND ANY EXPRESS OR IMPLIED WARRANTIES, INCLUDING, BUT NOT LIMITED TO, THE
  42:Drivers/STM32F3xx_HAL_Driver/Src/stm32f3xx_hal_dac_ex.c ****   * IMPLIED WARRANTIES OF MERCHANTABILITY AND FITNESS FOR A PARTICULAR PURPOSE ARE
  43:Drivers/STM32F3xx_HAL_Driver/Src/stm32f3xx_hal_dac_ex.c ****   * DISCLAIMED. IN NO EVENT SHALL THE COPYRIGHT HOLDER OR CONTRIBUTORS BE LIABLE
  44:Drivers/STM32F3xx_HAL_Driver/Src/stm32f3xx_hal_dac_ex.c ****   * FOR ANY DIRECT, INDIRECT, INCIDENTAL, SPECIAL, EXEMPLARY, OR CONSEQUENTIAL
  45:Drivers/STM32F3xx_HAL_Driver/Src/stm32f3xx_hal_dac_ex.c ****   * DAMAGES (INCLUDING, BUT NOT LIMITED TO, PROCUREMENT OF SUBSTITUTE GOODS OR
  46:Drivers/STM32F3xx_HAL_Driver/Src/stm32f3xx_hal_dac_ex.c ****   * SERVICES; LOSS OF USE, DATA, OR PROFITS; OR BUSINESS INTERRUPTION) HOWEVER
  47:Drivers/STM32F3xx_HAL_Driver/Src/stm32f3xx_hal_dac_ex.c ****   * CAUSED AND ON ANY THEORY OF LIABILITY, WHETHER IN CONTRACT, STRICT LIABILITY,
  48:Drivers/STM32F3xx_HAL_Driver/Src/stm32f3xx_hal_dac_ex.c ****   * OR TORT (INCLUDING NEGLIGENCE OR OTHERWISE) ARISING IN ANY WAY OUT OF THE USE
  49:Drivers/STM32F3xx_HAL_Driver/Src/stm32f3xx_hal_dac_ex.c ****   * OF THIS SOFTWARE, EVEN IF ADVISED OF THE POSSIBILITY OF SUCH DAMAGE.
  50:Drivers/STM32F3xx_HAL_Driver/Src/stm32f3xx_hal_dac_ex.c ****   *
  51:Drivers/STM32F3xx_HAL_Driver/Src/stm32f3xx_hal_dac_ex.c ****   ******************************************************************************  
  52:Drivers/STM32F3xx_HAL_Driver/Src/stm32f3xx_hal_dac_ex.c ****   */
  53:Drivers/STM32F3xx_HAL_Driver/Src/stm32f3xx_hal_dac_ex.c **** 
  54:Drivers/STM32F3xx_HAL_Driver/Src/stm32f3xx_hal_dac_ex.c **** /* Includes ------------------------------------------------------------------*/
  55:Drivers/STM32F3xx_HAL_Driver/Src/stm32f3xx_hal_dac_ex.c **** #include "stm32f3xx_hal.h"
  56:Drivers/STM32F3xx_HAL_Driver/Src/stm32f3xx_hal_dac_ex.c **** 
  57:Drivers/STM32F3xx_HAL_Driver/Src/stm32f3xx_hal_dac_ex.c **** /** @addtogroup STM32F3xx_HAL_Driver
  58:Drivers/STM32F3xx_HAL_Driver/Src/stm32f3xx_hal_dac_ex.c ****   * @{
  59:Drivers/STM32F3xx_HAL_Driver/Src/stm32f3xx_hal_dac_ex.c ****   */
  60:Drivers/STM32F3xx_HAL_Driver/Src/stm32f3xx_hal_dac_ex.c **** 
  61:Drivers/STM32F3xx_HAL_Driver/Src/stm32f3xx_hal_dac_ex.c **** #ifdef HAL_DAC_MODULE_ENABLED
  62:Drivers/STM32F3xx_HAL_Driver/Src/stm32f3xx_hal_dac_ex.c **** 
  63:Drivers/STM32F3xx_HAL_Driver/Src/stm32f3xx_hal_dac_ex.c **** /** @defgroup DACEx DACEx
  64:Drivers/STM32F3xx_HAL_Driver/Src/stm32f3xx_hal_dac_ex.c ****   * @brief DAC HAL module driver
  65:Drivers/STM32F3xx_HAL_Driver/Src/stm32f3xx_hal_dac_ex.c ****   * @{
  66:Drivers/STM32F3xx_HAL_Driver/Src/stm32f3xx_hal_dac_ex.c ****   */
  67:Drivers/STM32F3xx_HAL_Driver/Src/stm32f3xx_hal_dac_ex.c **** 
  68:Drivers/STM32F3xx_HAL_Driver/Src/stm32f3xx_hal_dac_ex.c **** /* Private typedef -----------------------------------------------------------*/
  69:Drivers/STM32F3xx_HAL_Driver/Src/stm32f3xx_hal_dac_ex.c **** /* Private define ------------------------------------------------------------*/
  70:Drivers/STM32F3xx_HAL_Driver/Src/stm32f3xx_hal_dac_ex.c **** /* Private macro -------------------------------------------------------------*/
  71:Drivers/STM32F3xx_HAL_Driver/Src/stm32f3xx_hal_dac_ex.c **** /* Private variables ---------------------------------------------------------*/
  72:Drivers/STM32F3xx_HAL_Driver/Src/stm32f3xx_hal_dac_ex.c **** /* Private function prototypes -----------------------------------------------*/
  73:Drivers/STM32F3xx_HAL_Driver/Src/stm32f3xx_hal_dac_ex.c **** /** @defgroup DACEx_Private_Functions DACEx Private Functions
  74:Drivers/STM32F3xx_HAL_Driver/Src/stm32f3xx_hal_dac_ex.c ****   * @{
  75:Drivers/STM32F3xx_HAL_Driver/Src/stm32f3xx_hal_dac_ex.c ****   */
  76:Drivers/STM32F3xx_HAL_Driver/Src/stm32f3xx_hal_dac_ex.c **** static void DAC_DMAConvCpltCh1(DMA_HandleTypeDef *hdma);
  77:Drivers/STM32F3xx_HAL_Driver/Src/stm32f3xx_hal_dac_ex.c **** static void DAC_DMAErrorCh1(DMA_HandleTypeDef *hdma);
  78:Drivers/STM32F3xx_HAL_Driver/Src/stm32f3xx_hal_dac_ex.c **** static void DAC_DMAHalfConvCpltCh1(DMA_HandleTypeDef *hdma); 
  79:Drivers/STM32F3xx_HAL_Driver/Src/stm32f3xx_hal_dac_ex.c **** 
  80:Drivers/STM32F3xx_HAL_Driver/Src/stm32f3xx_hal_dac_ex.c **** #if defined(STM32F303xE) || defined(STM32F398xx)                         || \
  81:Drivers/STM32F3xx_HAL_Driver/Src/stm32f3xx_hal_dac_ex.c ****     defined(STM32F303xC) || defined(STM32F358xx)                         || \
  82:Drivers/STM32F3xx_HAL_Driver/Src/stm32f3xx_hal_dac_ex.c ****     defined(STM32F303x8) || defined(STM32F334x8) || defined(STM32F328xx) || \
  83:Drivers/STM32F3xx_HAL_Driver/Src/stm32f3xx_hal_dac_ex.c ****     defined(STM32F373xC) || defined(STM32F378xx) 
  84:Drivers/STM32F3xx_HAL_Driver/Src/stm32f3xx_hal_dac_ex.c **** /* DAC channel 2 is available on top of DAC channel 1U */
  85:Drivers/STM32F3xx_HAL_Driver/Src/stm32f3xx_hal_dac_ex.c **** static void DAC_DMAConvCpltCh2(DMA_HandleTypeDef *hdma);
  86:Drivers/STM32F3xx_HAL_Driver/Src/stm32f3xx_hal_dac_ex.c **** static void DAC_DMAErrorCh2(DMA_HandleTypeDef *hdma);
  87:Drivers/STM32F3xx_HAL_Driver/Src/stm32f3xx_hal_dac_ex.c **** static void DAC_DMAHalfConvCpltCh2(DMA_HandleTypeDef *hdma); 
  88:Drivers/STM32F3xx_HAL_Driver/Src/stm32f3xx_hal_dac_ex.c **** #endif /* STM32F303xE || STM32F398xx                || */
ARM GAS  /tmp/ccVYEPWf.s 			page 3


  89:Drivers/STM32F3xx_HAL_Driver/Src/stm32f3xx_hal_dac_ex.c ****        /* STM32F303xC || STM32F358xx                || */
  90:Drivers/STM32F3xx_HAL_Driver/Src/stm32f3xx_hal_dac_ex.c ****        /* STM32F303x8 || STM32F334x8 || STM32F328xx || */
  91:Drivers/STM32F3xx_HAL_Driver/Src/stm32f3xx_hal_dac_ex.c ****        /* STM32F373xC || STM32F378xx                   */
  92:Drivers/STM32F3xx_HAL_Driver/Src/stm32f3xx_hal_dac_ex.c **** /**
  93:Drivers/STM32F3xx_HAL_Driver/Src/stm32f3xx_hal_dac_ex.c ****   * @}
  94:Drivers/STM32F3xx_HAL_Driver/Src/stm32f3xx_hal_dac_ex.c ****   */
  95:Drivers/STM32F3xx_HAL_Driver/Src/stm32f3xx_hal_dac_ex.c **** 
  96:Drivers/STM32F3xx_HAL_Driver/Src/stm32f3xx_hal_dac_ex.c **** /* Exported functions ---------------------------------------------------------*/
  97:Drivers/STM32F3xx_HAL_Driver/Src/stm32f3xx_hal_dac_ex.c **** /** @defgroup DACEx_Exported_Functions DACEx Exported Functions
  98:Drivers/STM32F3xx_HAL_Driver/Src/stm32f3xx_hal_dac_ex.c ****   * @{
  99:Drivers/STM32F3xx_HAL_Driver/Src/stm32f3xx_hal_dac_ex.c ****   */
 100:Drivers/STM32F3xx_HAL_Driver/Src/stm32f3xx_hal_dac_ex.c **** 
 101:Drivers/STM32F3xx_HAL_Driver/Src/stm32f3xx_hal_dac_ex.c **** /** @defgroup DACEx_Exported_Functions_Group3 DACEx Peripheral Control functions
 102:Drivers/STM32F3xx_HAL_Driver/Src/stm32f3xx_hal_dac_ex.c ****  *  @brief   	Peripheral Control functions 
 103:Drivers/STM32F3xx_HAL_Driver/Src/stm32f3xx_hal_dac_ex.c ****  *
 104:Drivers/STM32F3xx_HAL_Driver/Src/stm32f3xx_hal_dac_ex.c **** @verbatim   
 105:Drivers/STM32F3xx_HAL_Driver/Src/stm32f3xx_hal_dac_ex.c ****   ==============================================================================
 106:Drivers/STM32F3xx_HAL_Driver/Src/stm32f3xx_hal_dac_ex.c ****              ##### Peripheral Control functions #####
 107:Drivers/STM32F3xx_HAL_Driver/Src/stm32f3xx_hal_dac_ex.c ****   ==============================================================================  
 108:Drivers/STM32F3xx_HAL_Driver/Src/stm32f3xx_hal_dac_ex.c ****     [..]  This section provides functions allowing to:
 109:Drivers/STM32F3xx_HAL_Driver/Src/stm32f3xx_hal_dac_ex.c ****       (+) Set the specified data holding register value for DAC channel.
 110:Drivers/STM32F3xx_HAL_Driver/Src/stm32f3xx_hal_dac_ex.c ****       (+) Set the specified data holding register value for dual DAC channel
 111:Drivers/STM32F3xx_HAL_Driver/Src/stm32f3xx_hal_dac_ex.c **** 	      (when DAC channel 2 is present in DAC 1U)
 112:Drivers/STM32F3xx_HAL_Driver/Src/stm32f3xx_hal_dac_ex.c ****       
 113:Drivers/STM32F3xx_HAL_Driver/Src/stm32f3xx_hal_dac_ex.c **** @endverbatim
 114:Drivers/STM32F3xx_HAL_Driver/Src/stm32f3xx_hal_dac_ex.c ****   * @{
 115:Drivers/STM32F3xx_HAL_Driver/Src/stm32f3xx_hal_dac_ex.c ****   */
 116:Drivers/STM32F3xx_HAL_Driver/Src/stm32f3xx_hal_dac_ex.c **** 
 117:Drivers/STM32F3xx_HAL_Driver/Src/stm32f3xx_hal_dac_ex.c **** /**
 118:Drivers/STM32F3xx_HAL_Driver/Src/stm32f3xx_hal_dac_ex.c ****   * @brief  Set the specified data holding register value for DAC channel.
 119:Drivers/STM32F3xx_HAL_Driver/Src/stm32f3xx_hal_dac_ex.c ****   * @param  hdac: pointer to a DAC_HandleTypeDef structure that contains
 120:Drivers/STM32F3xx_HAL_Driver/Src/stm32f3xx_hal_dac_ex.c ****   *         the configuration information for the specified DAC.
 121:Drivers/STM32F3xx_HAL_Driver/Src/stm32f3xx_hal_dac_ex.c ****   * @param  Channel: The selected DAC channel. 
 122:Drivers/STM32F3xx_HAL_Driver/Src/stm32f3xx_hal_dac_ex.c ****   * @param  Alignment: Specifies the data alignment for DAC channel.
 123:Drivers/STM32F3xx_HAL_Driver/Src/stm32f3xx_hal_dac_ex.c ****   *          This parameter can be one of the following values:
 124:Drivers/STM32F3xx_HAL_Driver/Src/stm32f3xx_hal_dac_ex.c ****   *            @arg DAC_ALIGN_8B_R: 8bit right data alignment selected
 125:Drivers/STM32F3xx_HAL_Driver/Src/stm32f3xx_hal_dac_ex.c ****   *            @arg DAC_ALIGN_12B_L: 12bit left data alignment selected
 126:Drivers/STM32F3xx_HAL_Driver/Src/stm32f3xx_hal_dac_ex.c ****   *            @arg DAC_ALIGN_12B_R: 12bit right data alignment selected
 127:Drivers/STM32F3xx_HAL_Driver/Src/stm32f3xx_hal_dac_ex.c ****   * @param  Data: Data to be loaded in the selected data holding register.
 128:Drivers/STM32F3xx_HAL_Driver/Src/stm32f3xx_hal_dac_ex.c ****   * @retval HAL status
 129:Drivers/STM32F3xx_HAL_Driver/Src/stm32f3xx_hal_dac_ex.c ****   */
 130:Drivers/STM32F3xx_HAL_Driver/Src/stm32f3xx_hal_dac_ex.c **** HAL_StatusTypeDef HAL_DAC_SetValue(DAC_HandleTypeDef* hdac, uint32_t Channel, uint32_t Alignment, u
 131:Drivers/STM32F3xx_HAL_Driver/Src/stm32f3xx_hal_dac_ex.c **** {  
 132:Drivers/STM32F3xx_HAL_Driver/Src/stm32f3xx_hal_dac_ex.c ****   __IO uint32_t tmp = 0U;
 133:Drivers/STM32F3xx_HAL_Driver/Src/stm32f3xx_hal_dac_ex.c ****   
 134:Drivers/STM32F3xx_HAL_Driver/Src/stm32f3xx_hal_dac_ex.c ****   /* Check the parameters */
 135:Drivers/STM32F3xx_HAL_Driver/Src/stm32f3xx_hal_dac_ex.c ****   assert_param(IS_DAC_CHANNEL(Channel));
 136:Drivers/STM32F3xx_HAL_Driver/Src/stm32f3xx_hal_dac_ex.c ****   assert_param(IS_DAC_ALIGN(Alignment));
 137:Drivers/STM32F3xx_HAL_Driver/Src/stm32f3xx_hal_dac_ex.c ****   assert_param(IS_DAC_DATA(Data));
 138:Drivers/STM32F3xx_HAL_Driver/Src/stm32f3xx_hal_dac_ex.c ****    
 139:Drivers/STM32F3xx_HAL_Driver/Src/stm32f3xx_hal_dac_ex.c ****   tmp = (uint32_t) (hdac->Instance);
 140:Drivers/STM32F3xx_HAL_Driver/Src/stm32f3xx_hal_dac_ex.c **** 
 141:Drivers/STM32F3xx_HAL_Driver/Src/stm32f3xx_hal_dac_ex.c **** /* DAC 1 has 1 or 2 channels - no DAC2 */
 142:Drivers/STM32F3xx_HAL_Driver/Src/stm32f3xx_hal_dac_ex.c **** /* DAC 1 has 2 channels 1U & 2U - DAC 2 has one channel 1U */
 143:Drivers/STM32F3xx_HAL_Driver/Src/stm32f3xx_hal_dac_ex.c **** 
 144:Drivers/STM32F3xx_HAL_Driver/Src/stm32f3xx_hal_dac_ex.c ****   if(Channel == DAC_CHANNEL_1)
 145:Drivers/STM32F3xx_HAL_Driver/Src/stm32f3xx_hal_dac_ex.c ****   {
ARM GAS  /tmp/ccVYEPWf.s 			page 4


 146:Drivers/STM32F3xx_HAL_Driver/Src/stm32f3xx_hal_dac_ex.c ****     tmp += DAC_DHR12R1_ALIGNMENT(Alignment);
 147:Drivers/STM32F3xx_HAL_Driver/Src/stm32f3xx_hal_dac_ex.c ****   }
 148:Drivers/STM32F3xx_HAL_Driver/Src/stm32f3xx_hal_dac_ex.c **** #if defined(STM32F303xE) || defined(STM32F398xx)                         || \
 149:Drivers/STM32F3xx_HAL_Driver/Src/stm32f3xx_hal_dac_ex.c ****     defined(STM32F303xC) || defined(STM32F358xx)                         || \
 150:Drivers/STM32F3xx_HAL_Driver/Src/stm32f3xx_hal_dac_ex.c ****     defined(STM32F303x8) || defined(STM32F334x8) || defined(STM32F328xx) || \
 151:Drivers/STM32F3xx_HAL_Driver/Src/stm32f3xx_hal_dac_ex.c ****     defined(STM32F373xC) || defined(STM32F378xx)
 152:Drivers/STM32F3xx_HAL_Driver/Src/stm32f3xx_hal_dac_ex.c ****   else /* channel = DAC_CHANNEL_2  */
 153:Drivers/STM32F3xx_HAL_Driver/Src/stm32f3xx_hal_dac_ex.c ****   {
 154:Drivers/STM32F3xx_HAL_Driver/Src/stm32f3xx_hal_dac_ex.c ****     tmp += DAC_DHR12R2_ALIGNMENT(Alignment);
 155:Drivers/STM32F3xx_HAL_Driver/Src/stm32f3xx_hal_dac_ex.c ****   }
 156:Drivers/STM32F3xx_HAL_Driver/Src/stm32f3xx_hal_dac_ex.c **** #endif /* STM32F303xE || STM32F398xx                || */
 157:Drivers/STM32F3xx_HAL_Driver/Src/stm32f3xx_hal_dac_ex.c ****        /* STM32F303xC || STM32F358xx                || */
 158:Drivers/STM32F3xx_HAL_Driver/Src/stm32f3xx_hal_dac_ex.c ****        /* STM32F303x8 || STM32F334x8 || STM32F328xx || */
 159:Drivers/STM32F3xx_HAL_Driver/Src/stm32f3xx_hal_dac_ex.c ****        /* STM32F373xC || STM32F378xx                   */
 160:Drivers/STM32F3xx_HAL_Driver/Src/stm32f3xx_hal_dac_ex.c **** 
 161:Drivers/STM32F3xx_HAL_Driver/Src/stm32f3xx_hal_dac_ex.c ****   /* Set the DAC channel1 selected data holding register */
 162:Drivers/STM32F3xx_HAL_Driver/Src/stm32f3xx_hal_dac_ex.c ****   *(__IO uint32_t *) tmp = Data;
 163:Drivers/STM32F3xx_HAL_Driver/Src/stm32f3xx_hal_dac_ex.c ****   
 164:Drivers/STM32F3xx_HAL_Driver/Src/stm32f3xx_hal_dac_ex.c ****   /* Return function status */
 165:Drivers/STM32F3xx_HAL_Driver/Src/stm32f3xx_hal_dac_ex.c ****   return HAL_OK;
 166:Drivers/STM32F3xx_HAL_Driver/Src/stm32f3xx_hal_dac_ex.c **** }
 167:Drivers/STM32F3xx_HAL_Driver/Src/stm32f3xx_hal_dac_ex.c **** 
 168:Drivers/STM32F3xx_HAL_Driver/Src/stm32f3xx_hal_dac_ex.c **** #if  defined(STM32F303xE) || defined(STM32F398xx)                         || \
 169:Drivers/STM32F3xx_HAL_Driver/Src/stm32f3xx_hal_dac_ex.c ****      defined(STM32F303xC) || defined(STM32F358xx)                         || \
 170:Drivers/STM32F3xx_HAL_Driver/Src/stm32f3xx_hal_dac_ex.c ****      defined(STM32F303x8) || defined(STM32F334x8) || defined(STM32F328xx) || \
 171:Drivers/STM32F3xx_HAL_Driver/Src/stm32f3xx_hal_dac_ex.c ****      defined(STM32F373xC) || defined(STM32F378xx)
 172:Drivers/STM32F3xx_HAL_Driver/Src/stm32f3xx_hal_dac_ex.c **** /* DAC channel 2 is present in DAC 1U */
 173:Drivers/STM32F3xx_HAL_Driver/Src/stm32f3xx_hal_dac_ex.c **** /**
 174:Drivers/STM32F3xx_HAL_Driver/Src/stm32f3xx_hal_dac_ex.c ****   * @brief  Set the specified data holding register value for dual DAC channel.
 175:Drivers/STM32F3xx_HAL_Driver/Src/stm32f3xx_hal_dac_ex.c ****   * @param  hdac: pointer to a DAC_HandleTypeDef structure that contains
 176:Drivers/STM32F3xx_HAL_Driver/Src/stm32f3xx_hal_dac_ex.c ****   *         the configuration information for the specified DAC.
 177:Drivers/STM32F3xx_HAL_Driver/Src/stm32f3xx_hal_dac_ex.c ****   * @param  Alignment: Specifies the data alignment for dual channel DAC.
 178:Drivers/STM32F3xx_HAL_Driver/Src/stm32f3xx_hal_dac_ex.c ****   *          This parameter can be one of the following values:
 179:Drivers/STM32F3xx_HAL_Driver/Src/stm32f3xx_hal_dac_ex.c ****   *            @arg DAC_ALIGN_8B_R: 8bit right data alignment selected
 180:Drivers/STM32F3xx_HAL_Driver/Src/stm32f3xx_hal_dac_ex.c ****   *            @arg DAC_ALIGN_12B_L: 12bit left data alignment selected
 181:Drivers/STM32F3xx_HAL_Driver/Src/stm32f3xx_hal_dac_ex.c ****   *            @arg DAC_ALIGN_12B_R: 12bit right data alignment selected
 182:Drivers/STM32F3xx_HAL_Driver/Src/stm32f3xx_hal_dac_ex.c ****   * @param  Data2: Data for DAC Channel2 to be loaded in the selected data holding register.
 183:Drivers/STM32F3xx_HAL_Driver/Src/stm32f3xx_hal_dac_ex.c ****   * @param  Data1: Data for DAC Channel1 to be loaded in the selected data  holding register.
 184:Drivers/STM32F3xx_HAL_Driver/Src/stm32f3xx_hal_dac_ex.c ****   * @note   In dual mode, a unique register access is required to write in both
 185:Drivers/STM32F3xx_HAL_Driver/Src/stm32f3xx_hal_dac_ex.c ****   *          DAC channels at the same time.
 186:Drivers/STM32F3xx_HAL_Driver/Src/stm32f3xx_hal_dac_ex.c ****   * @retval HAL status
 187:Drivers/STM32F3xx_HAL_Driver/Src/stm32f3xx_hal_dac_ex.c ****   */
 188:Drivers/STM32F3xx_HAL_Driver/Src/stm32f3xx_hal_dac_ex.c **** HAL_StatusTypeDef HAL_DACEx_DualSetValue(DAC_HandleTypeDef* hdac, uint32_t Alignment, uint32_t Data
 189:Drivers/STM32F3xx_HAL_Driver/Src/stm32f3xx_hal_dac_ex.c **** {
 190:Drivers/STM32F3xx_HAL_Driver/Src/stm32f3xx_hal_dac_ex.c ****   uint32_t data = 0U, tmp = 0U;
 191:Drivers/STM32F3xx_HAL_Driver/Src/stm32f3xx_hal_dac_ex.c **** 
 192:Drivers/STM32F3xx_HAL_Driver/Src/stm32f3xx_hal_dac_ex.c ****   /* Check the parameters */
 193:Drivers/STM32F3xx_HAL_Driver/Src/stm32f3xx_hal_dac_ex.c ****   assert_param(IS_DAC_ALIGN(Alignment));
 194:Drivers/STM32F3xx_HAL_Driver/Src/stm32f3xx_hal_dac_ex.c ****   assert_param(IS_DAC_DATA(Data1));
 195:Drivers/STM32F3xx_HAL_Driver/Src/stm32f3xx_hal_dac_ex.c ****   assert_param(IS_DAC_DATA(Data2));
 196:Drivers/STM32F3xx_HAL_Driver/Src/stm32f3xx_hal_dac_ex.c **** 
 197:Drivers/STM32F3xx_HAL_Driver/Src/stm32f3xx_hal_dac_ex.c ****   /* Calculate and set dual DAC data holding register value */
 198:Drivers/STM32F3xx_HAL_Driver/Src/stm32f3xx_hal_dac_ex.c ****   if (Alignment == DAC_ALIGN_8B_R)
 199:Drivers/STM32F3xx_HAL_Driver/Src/stm32f3xx_hal_dac_ex.c ****   {
 200:Drivers/STM32F3xx_HAL_Driver/Src/stm32f3xx_hal_dac_ex.c ****     data = ((uint32_t)Data2 << 8U) | Data1;
 201:Drivers/STM32F3xx_HAL_Driver/Src/stm32f3xx_hal_dac_ex.c ****   }
 202:Drivers/STM32F3xx_HAL_Driver/Src/stm32f3xx_hal_dac_ex.c ****   else
ARM GAS  /tmp/ccVYEPWf.s 			page 5


 203:Drivers/STM32F3xx_HAL_Driver/Src/stm32f3xx_hal_dac_ex.c ****   {
 204:Drivers/STM32F3xx_HAL_Driver/Src/stm32f3xx_hal_dac_ex.c ****     data = ((uint32_t)Data2 << 16U) | Data1;
 205:Drivers/STM32F3xx_HAL_Driver/Src/stm32f3xx_hal_dac_ex.c ****   }
 206:Drivers/STM32F3xx_HAL_Driver/Src/stm32f3xx_hal_dac_ex.c **** 
 207:Drivers/STM32F3xx_HAL_Driver/Src/stm32f3xx_hal_dac_ex.c ****     tmp = (uint32_t) (hdac->Instance);
 208:Drivers/STM32F3xx_HAL_Driver/Src/stm32f3xx_hal_dac_ex.c ****     tmp += DAC_DHR12RD_ALIGNMENT(Alignment);
 209:Drivers/STM32F3xx_HAL_Driver/Src/stm32f3xx_hal_dac_ex.c **** 
 210:Drivers/STM32F3xx_HAL_Driver/Src/stm32f3xx_hal_dac_ex.c ****   /* Set the dual DAC selected data holding register */
 211:Drivers/STM32F3xx_HAL_Driver/Src/stm32f3xx_hal_dac_ex.c ****   *(__IO uint32_t *)tmp = data;
 212:Drivers/STM32F3xx_HAL_Driver/Src/stm32f3xx_hal_dac_ex.c **** 
 213:Drivers/STM32F3xx_HAL_Driver/Src/stm32f3xx_hal_dac_ex.c ****   /* Return function status */
 214:Drivers/STM32F3xx_HAL_Driver/Src/stm32f3xx_hal_dac_ex.c ****   return HAL_OK;
 215:Drivers/STM32F3xx_HAL_Driver/Src/stm32f3xx_hal_dac_ex.c **** }
 216:Drivers/STM32F3xx_HAL_Driver/Src/stm32f3xx_hal_dac_ex.c **** #endif /* STM32F303xE || STM32F398xx                || */
 217:Drivers/STM32F3xx_HAL_Driver/Src/stm32f3xx_hal_dac_ex.c ****        /* STM32F303xC || STM32F358xx                || */
 218:Drivers/STM32F3xx_HAL_Driver/Src/stm32f3xx_hal_dac_ex.c ****        /* STM32F303x8 || STM32F334x8 || STM32F328xx || */
 219:Drivers/STM32F3xx_HAL_Driver/Src/stm32f3xx_hal_dac_ex.c ****        /* STM32F373xC || STM32F378xx                   */
 220:Drivers/STM32F3xx_HAL_Driver/Src/stm32f3xx_hal_dac_ex.c **** 
 221:Drivers/STM32F3xx_HAL_Driver/Src/stm32f3xx_hal_dac_ex.c **** /**
 222:Drivers/STM32F3xx_HAL_Driver/Src/stm32f3xx_hal_dac_ex.c ****   * @}
 223:Drivers/STM32F3xx_HAL_Driver/Src/stm32f3xx_hal_dac_ex.c ****   */
 224:Drivers/STM32F3xx_HAL_Driver/Src/stm32f3xx_hal_dac_ex.c **** 
 225:Drivers/STM32F3xx_HAL_Driver/Src/stm32f3xx_hal_dac_ex.c **** /** @defgroup DACEx_Exported_Functions_Group2 DACEx Input and Output operation functions
 226:Drivers/STM32F3xx_HAL_Driver/Src/stm32f3xx_hal_dac_ex.c ****  *  @brief    IO operation functions 
 227:Drivers/STM32F3xx_HAL_Driver/Src/stm32f3xx_hal_dac_ex.c ****  *
 228:Drivers/STM32F3xx_HAL_Driver/Src/stm32f3xx_hal_dac_ex.c **** @verbatim   
 229:Drivers/STM32F3xx_HAL_Driver/Src/stm32f3xx_hal_dac_ex.c ****   ==============================================================================
 230:Drivers/STM32F3xx_HAL_Driver/Src/stm32f3xx_hal_dac_ex.c ****              ##### IO operation functions #####
 231:Drivers/STM32F3xx_HAL_Driver/Src/stm32f3xx_hal_dac_ex.c ****   ==============================================================================  
 232:Drivers/STM32F3xx_HAL_Driver/Src/stm32f3xx_hal_dac_ex.c ****     [..]  This section provides functions allowing to:
 233:Drivers/STM32F3xx_HAL_Driver/Src/stm32f3xx_hal_dac_ex.c ****       (+) Start conversion.
 234:Drivers/STM32F3xx_HAL_Driver/Src/stm32f3xx_hal_dac_ex.c ****       (+) Start conversion and enable DMA transfer.
 235:Drivers/STM32F3xx_HAL_Driver/Src/stm32f3xx_hal_dac_ex.c ****       (+) Get result of conversion.
 236:Drivers/STM32F3xx_HAL_Driver/Src/stm32f3xx_hal_dac_ex.c ****       (+) Handle DAC IRQ's.
 237:Drivers/STM32F3xx_HAL_Driver/Src/stm32f3xx_hal_dac_ex.c ****       (+) Generate triangular-wave                   
 238:Drivers/STM32F3xx_HAL_Driver/Src/stm32f3xx_hal_dac_ex.c ****       (+) Generate noise-wave
 239:Drivers/STM32F3xx_HAL_Driver/Src/stm32f3xx_hal_dac_ex.c **** 	  (+) Callback functions for DAC1 Channel2 (when supported)
 240:Drivers/STM32F3xx_HAL_Driver/Src/stm32f3xx_hal_dac_ex.c **** @endverbatim
 241:Drivers/STM32F3xx_HAL_Driver/Src/stm32f3xx_hal_dac_ex.c ****   * @{
 242:Drivers/STM32F3xx_HAL_Driver/Src/stm32f3xx_hal_dac_ex.c ****   */
 243:Drivers/STM32F3xx_HAL_Driver/Src/stm32f3xx_hal_dac_ex.c **** 
 244:Drivers/STM32F3xx_HAL_Driver/Src/stm32f3xx_hal_dac_ex.c **** #if  defined(STM32F303xE) || defined(STM32F398xx)                         || \
 245:Drivers/STM32F3xx_HAL_Driver/Src/stm32f3xx_hal_dac_ex.c ****      defined(STM32F303xC) || defined(STM32F358xx)                         || \
 246:Drivers/STM32F3xx_HAL_Driver/Src/stm32f3xx_hal_dac_ex.c ****      defined(STM32F303x8) || defined(STM32F334x8) || defined(STM32F328xx) || \
 247:Drivers/STM32F3xx_HAL_Driver/Src/stm32f3xx_hal_dac_ex.c ****      defined(STM32F373xC) || defined(STM32F378xx)
 248:Drivers/STM32F3xx_HAL_Driver/Src/stm32f3xx_hal_dac_ex.c **** 
 249:Drivers/STM32F3xx_HAL_Driver/Src/stm32f3xx_hal_dac_ex.c **** /* DAC 1 has 2 channels 1U & 2U - DAC 2 has one channel 1U */
 250:Drivers/STM32F3xx_HAL_Driver/Src/stm32f3xx_hal_dac_ex.c **** /**
 251:Drivers/STM32F3xx_HAL_Driver/Src/stm32f3xx_hal_dac_ex.c ****   * @brief  Enables DAC and starts conversion of channel.
 252:Drivers/STM32F3xx_HAL_Driver/Src/stm32f3xx_hal_dac_ex.c ****   * @param  hdac: pointer to a DAC_HandleTypeDef structure that contains
 253:Drivers/STM32F3xx_HAL_Driver/Src/stm32f3xx_hal_dac_ex.c ****   *         the configuration information for the specified DAC.
 254:Drivers/STM32F3xx_HAL_Driver/Src/stm32f3xx_hal_dac_ex.c ****   * @param  Channel: The selected DAC channel. 
 255:Drivers/STM32F3xx_HAL_Driver/Src/stm32f3xx_hal_dac_ex.c ****   *          This parameter can be one of the following values:
 256:Drivers/STM32F3xx_HAL_Driver/Src/stm32f3xx_hal_dac_ex.c ****   *            @arg DAC_CHANNEL_1: DAC1 Channel1 or DAC2 Channel1 selected
 257:Drivers/STM32F3xx_HAL_Driver/Src/stm32f3xx_hal_dac_ex.c ****   *            @arg DAC_CHANNEL_2: DAC1 Channel2 selected
 258:Drivers/STM32F3xx_HAL_Driver/Src/stm32f3xx_hal_dac_ex.c ****   * @retval HAL status
 259:Drivers/STM32F3xx_HAL_Driver/Src/stm32f3xx_hal_dac_ex.c ****   */
ARM GAS  /tmp/ccVYEPWf.s 			page 6


 260:Drivers/STM32F3xx_HAL_Driver/Src/stm32f3xx_hal_dac_ex.c **** HAL_StatusTypeDef HAL_DAC_Start(DAC_HandleTypeDef* hdac, uint32_t Channel)
 261:Drivers/STM32F3xx_HAL_Driver/Src/stm32f3xx_hal_dac_ex.c **** {
 262:Drivers/STM32F3xx_HAL_Driver/Src/stm32f3xx_hal_dac_ex.c ****   /* Check the parameters */
 263:Drivers/STM32F3xx_HAL_Driver/Src/stm32f3xx_hal_dac_ex.c ****   assert_param(IS_DAC_CHANNEL_INSTANCE(hdac->Instance, Channel));
 264:Drivers/STM32F3xx_HAL_Driver/Src/stm32f3xx_hal_dac_ex.c ****   
 265:Drivers/STM32F3xx_HAL_Driver/Src/stm32f3xx_hal_dac_ex.c ****   /* Process locked */
 266:Drivers/STM32F3xx_HAL_Driver/Src/stm32f3xx_hal_dac_ex.c ****   __HAL_LOCK(hdac);
 267:Drivers/STM32F3xx_HAL_Driver/Src/stm32f3xx_hal_dac_ex.c ****   
 268:Drivers/STM32F3xx_HAL_Driver/Src/stm32f3xx_hal_dac_ex.c ****   /* Change DAC state */
 269:Drivers/STM32F3xx_HAL_Driver/Src/stm32f3xx_hal_dac_ex.c ****   hdac->State = HAL_DAC_STATE_BUSY;
 270:Drivers/STM32F3xx_HAL_Driver/Src/stm32f3xx_hal_dac_ex.c ****   
 271:Drivers/STM32F3xx_HAL_Driver/Src/stm32f3xx_hal_dac_ex.c ****   /* Enable the Peripheral */
 272:Drivers/STM32F3xx_HAL_Driver/Src/stm32f3xx_hal_dac_ex.c ****   __HAL_DAC_ENABLE(hdac, Channel);
 273:Drivers/STM32F3xx_HAL_Driver/Src/stm32f3xx_hal_dac_ex.c ****   
 274:Drivers/STM32F3xx_HAL_Driver/Src/stm32f3xx_hal_dac_ex.c ****   if(Channel == DAC_CHANNEL_1)
 275:Drivers/STM32F3xx_HAL_Driver/Src/stm32f3xx_hal_dac_ex.c ****   {
 276:Drivers/STM32F3xx_HAL_Driver/Src/stm32f3xx_hal_dac_ex.c ****     /* Check if software trigger enabled */
 277:Drivers/STM32F3xx_HAL_Driver/Src/stm32f3xx_hal_dac_ex.c ****     if((hdac->Instance->CR & (DAC_CR_TEN1 | DAC_CR_TSEL1)) == (DAC_CR_TEN1 | DAC_CR_TSEL1))
 278:Drivers/STM32F3xx_HAL_Driver/Src/stm32f3xx_hal_dac_ex.c ****     {
 279:Drivers/STM32F3xx_HAL_Driver/Src/stm32f3xx_hal_dac_ex.c ****       /* Enable the selected DAC software conversion */
 280:Drivers/STM32F3xx_HAL_Driver/Src/stm32f3xx_hal_dac_ex.c ****       SET_BIT(hdac->Instance->SWTRIGR, DAC_SWTRIGR_SWTRIG1);
 281:Drivers/STM32F3xx_HAL_Driver/Src/stm32f3xx_hal_dac_ex.c ****     }
 282:Drivers/STM32F3xx_HAL_Driver/Src/stm32f3xx_hal_dac_ex.c ****   }
 283:Drivers/STM32F3xx_HAL_Driver/Src/stm32f3xx_hal_dac_ex.c ****   else
 284:Drivers/STM32F3xx_HAL_Driver/Src/stm32f3xx_hal_dac_ex.c ****   {
 285:Drivers/STM32F3xx_HAL_Driver/Src/stm32f3xx_hal_dac_ex.c ****     /* Check if software trigger enabled */
 286:Drivers/STM32F3xx_HAL_Driver/Src/stm32f3xx_hal_dac_ex.c ****     if((hdac->Instance->CR & (DAC_CR_TEN2 | DAC_CR_TSEL2)) == (DAC_CR_TEN2 | DAC_CR_TSEL2))
 287:Drivers/STM32F3xx_HAL_Driver/Src/stm32f3xx_hal_dac_ex.c ****     {
 288:Drivers/STM32F3xx_HAL_Driver/Src/stm32f3xx_hal_dac_ex.c ****       /* Enable the selected DAC software conversion */
 289:Drivers/STM32F3xx_HAL_Driver/Src/stm32f3xx_hal_dac_ex.c ****       SET_BIT(hdac->Instance->SWTRIGR, DAC_SWTRIGR_SWTRIG2);
 290:Drivers/STM32F3xx_HAL_Driver/Src/stm32f3xx_hal_dac_ex.c ****     }
 291:Drivers/STM32F3xx_HAL_Driver/Src/stm32f3xx_hal_dac_ex.c ****   }
 292:Drivers/STM32F3xx_HAL_Driver/Src/stm32f3xx_hal_dac_ex.c ****   
 293:Drivers/STM32F3xx_HAL_Driver/Src/stm32f3xx_hal_dac_ex.c ****   /* Change DAC state */
 294:Drivers/STM32F3xx_HAL_Driver/Src/stm32f3xx_hal_dac_ex.c ****   hdac->State = HAL_DAC_STATE_READY;
 295:Drivers/STM32F3xx_HAL_Driver/Src/stm32f3xx_hal_dac_ex.c ****   
 296:Drivers/STM32F3xx_HAL_Driver/Src/stm32f3xx_hal_dac_ex.c ****   /* Process unlocked */
 297:Drivers/STM32F3xx_HAL_Driver/Src/stm32f3xx_hal_dac_ex.c ****   __HAL_UNLOCK(hdac);
 298:Drivers/STM32F3xx_HAL_Driver/Src/stm32f3xx_hal_dac_ex.c ****     
 299:Drivers/STM32F3xx_HAL_Driver/Src/stm32f3xx_hal_dac_ex.c ****   /* Return function status */
 300:Drivers/STM32F3xx_HAL_Driver/Src/stm32f3xx_hal_dac_ex.c ****   return HAL_OK;
 301:Drivers/STM32F3xx_HAL_Driver/Src/stm32f3xx_hal_dac_ex.c **** }
 302:Drivers/STM32F3xx_HAL_Driver/Src/stm32f3xx_hal_dac_ex.c **** #endif /* STM32F303xE || STM32F398xx                || */
 303:Drivers/STM32F3xx_HAL_Driver/Src/stm32f3xx_hal_dac_ex.c ****        /* STM32F303xC || STM32F358xx                || */
 304:Drivers/STM32F3xx_HAL_Driver/Src/stm32f3xx_hal_dac_ex.c ****        /* STM32F303x8 || STM32F334x8 || STM32F328xx || */
 305:Drivers/STM32F3xx_HAL_Driver/Src/stm32f3xx_hal_dac_ex.c ****        /* STM32F373xC || STM32F378xx                   */
 306:Drivers/STM32F3xx_HAL_Driver/Src/stm32f3xx_hal_dac_ex.c **** 
 307:Drivers/STM32F3xx_HAL_Driver/Src/stm32f3xx_hal_dac_ex.c **** #if defined(STM32F302xE) || \
 308:Drivers/STM32F3xx_HAL_Driver/Src/stm32f3xx_hal_dac_ex.c ****     defined(STM32F302xC) || \
 309:Drivers/STM32F3xx_HAL_Driver/Src/stm32f3xx_hal_dac_ex.c ****     defined(STM32F301x8) || defined(STM32F302x8) || defined(STM32F318xx)
 310:Drivers/STM32F3xx_HAL_Driver/Src/stm32f3xx_hal_dac_ex.c **** /* DAC 1 has 1 channels 1U */
 311:Drivers/STM32F3xx_HAL_Driver/Src/stm32f3xx_hal_dac_ex.c **** /**
 312:Drivers/STM32F3xx_HAL_Driver/Src/stm32f3xx_hal_dac_ex.c ****   * @brief  Enables DAC and starts conversion of channel.
 313:Drivers/STM32F3xx_HAL_Driver/Src/stm32f3xx_hal_dac_ex.c ****   * @param  hdac: pointer to a DAC_HandleTypeDef structure that contains
 314:Drivers/STM32F3xx_HAL_Driver/Src/stm32f3xx_hal_dac_ex.c ****   *         the configuration information for the specified DAC.
 315:Drivers/STM32F3xx_HAL_Driver/Src/stm32f3xx_hal_dac_ex.c ****   * @param  Channel: The selected DAC channel. 
 316:Drivers/STM32F3xx_HAL_Driver/Src/stm32f3xx_hal_dac_ex.c ****   *          This parameter can be one of the following values:
ARM GAS  /tmp/ccVYEPWf.s 			page 7


 317:Drivers/STM32F3xx_HAL_Driver/Src/stm32f3xx_hal_dac_ex.c ****   *            @arg DAC_CHANNEL_1: DAC1 Channel1 selected
 318:Drivers/STM32F3xx_HAL_Driver/Src/stm32f3xx_hal_dac_ex.c ****   * @retval HAL status 
 319:Drivers/STM32F3xx_HAL_Driver/Src/stm32f3xx_hal_dac_ex.c ****   */
 320:Drivers/STM32F3xx_HAL_Driver/Src/stm32f3xx_hal_dac_ex.c **** 
 321:Drivers/STM32F3xx_HAL_Driver/Src/stm32f3xx_hal_dac_ex.c **** HAL_StatusTypeDef HAL_DAC_Start(DAC_HandleTypeDef* hdac, uint32_t Channel)
 322:Drivers/STM32F3xx_HAL_Driver/Src/stm32f3xx_hal_dac_ex.c **** {
 323:Drivers/STM32F3xx_HAL_Driver/Src/stm32f3xx_hal_dac_ex.c ****   /* Check the parameters */
 324:Drivers/STM32F3xx_HAL_Driver/Src/stm32f3xx_hal_dac_ex.c ****   assert_param(IS_DAC_CHANNEL_INSTANCE(hdac->Instance, Channel));
 325:Drivers/STM32F3xx_HAL_Driver/Src/stm32f3xx_hal_dac_ex.c ****   
 326:Drivers/STM32F3xx_HAL_Driver/Src/stm32f3xx_hal_dac_ex.c ****   /* Process locked */
 327:Drivers/STM32F3xx_HAL_Driver/Src/stm32f3xx_hal_dac_ex.c ****   __HAL_LOCK(hdac);
 328:Drivers/STM32F3xx_HAL_Driver/Src/stm32f3xx_hal_dac_ex.c ****   
 329:Drivers/STM32F3xx_HAL_Driver/Src/stm32f3xx_hal_dac_ex.c ****   /* Change DAC state */
 330:Drivers/STM32F3xx_HAL_Driver/Src/stm32f3xx_hal_dac_ex.c ****   hdac->State = HAL_DAC_STATE_BUSY;
 331:Drivers/STM32F3xx_HAL_Driver/Src/stm32f3xx_hal_dac_ex.c ****   
 332:Drivers/STM32F3xx_HAL_Driver/Src/stm32f3xx_hal_dac_ex.c ****   /* Enable the Peripheral */
 333:Drivers/STM32F3xx_HAL_Driver/Src/stm32f3xx_hal_dac_ex.c ****   __HAL_DAC_ENABLE(hdac, Channel);
 334:Drivers/STM32F3xx_HAL_Driver/Src/stm32f3xx_hal_dac_ex.c ****   
 335:Drivers/STM32F3xx_HAL_Driver/Src/stm32f3xx_hal_dac_ex.c ****   /* Check if software trigger enabled */
 336:Drivers/STM32F3xx_HAL_Driver/Src/stm32f3xx_hal_dac_ex.c ****   if((hdac->Instance->CR & (DAC_CR_TEN1 | DAC_CR_TSEL1)) == (DAC_CR_TEN1 | DAC_CR_TSEL1))
 337:Drivers/STM32F3xx_HAL_Driver/Src/stm32f3xx_hal_dac_ex.c ****   {
 338:Drivers/STM32F3xx_HAL_Driver/Src/stm32f3xx_hal_dac_ex.c ****     /* Enable the selected DAC software conversion */
 339:Drivers/STM32F3xx_HAL_Driver/Src/stm32f3xx_hal_dac_ex.c ****     SET_BIT(hdac->Instance->SWTRIGR, DAC_SWTRIGR_SWTRIG1);
 340:Drivers/STM32F3xx_HAL_Driver/Src/stm32f3xx_hal_dac_ex.c ****   }
 341:Drivers/STM32F3xx_HAL_Driver/Src/stm32f3xx_hal_dac_ex.c ****   
 342:Drivers/STM32F3xx_HAL_Driver/Src/stm32f3xx_hal_dac_ex.c ****   /* Change DAC state */
 343:Drivers/STM32F3xx_HAL_Driver/Src/stm32f3xx_hal_dac_ex.c ****   hdac->State = HAL_DAC_STATE_READY;
 344:Drivers/STM32F3xx_HAL_Driver/Src/stm32f3xx_hal_dac_ex.c ****   
 345:Drivers/STM32F3xx_HAL_Driver/Src/stm32f3xx_hal_dac_ex.c ****   /* Process unlocked */
 346:Drivers/STM32F3xx_HAL_Driver/Src/stm32f3xx_hal_dac_ex.c ****   __HAL_UNLOCK(hdac);
 347:Drivers/STM32F3xx_HAL_Driver/Src/stm32f3xx_hal_dac_ex.c ****     
 348:Drivers/STM32F3xx_HAL_Driver/Src/stm32f3xx_hal_dac_ex.c ****   /* Return function status */
 349:Drivers/STM32F3xx_HAL_Driver/Src/stm32f3xx_hal_dac_ex.c ****   return HAL_OK;
 350:Drivers/STM32F3xx_HAL_Driver/Src/stm32f3xx_hal_dac_ex.c **** }
 351:Drivers/STM32F3xx_HAL_Driver/Src/stm32f3xx_hal_dac_ex.c **** #endif /* STM32F302xE                               || */
 352:Drivers/STM32F3xx_HAL_Driver/Src/stm32f3xx_hal_dac_ex.c ****        /* STM32F302xC                               || */
 353:Drivers/STM32F3xx_HAL_Driver/Src/stm32f3xx_hal_dac_ex.c ****        /* STM32F301x8 || STM32F302x8 || STM32F318xx    */
 354:Drivers/STM32F3xx_HAL_Driver/Src/stm32f3xx_hal_dac_ex.c **** 
 355:Drivers/STM32F3xx_HAL_Driver/Src/stm32f3xx_hal_dac_ex.c **** /* DAC 1 has 2 channels 1U & 2U - DAC 2 has one channel 1U */
 356:Drivers/STM32F3xx_HAL_Driver/Src/stm32f3xx_hal_dac_ex.c **** #if defined(STM32F303xE) || defined(STM32F398xx)                         || \
 357:Drivers/STM32F3xx_HAL_Driver/Src/stm32f3xx_hal_dac_ex.c ****     defined(STM32F303xC) || defined(STM32F358xx)                         || \
 358:Drivers/STM32F3xx_HAL_Driver/Src/stm32f3xx_hal_dac_ex.c ****     defined(STM32F303x8) || defined(STM32F334x8) || defined(STM32F328xx) || \
 359:Drivers/STM32F3xx_HAL_Driver/Src/stm32f3xx_hal_dac_ex.c ****     defined(STM32F373xC) || defined(STM32F378xx)
 360:Drivers/STM32F3xx_HAL_Driver/Src/stm32f3xx_hal_dac_ex.c **** /* DAC 1 has 2 channels 1U & 2U */
 361:Drivers/STM32F3xx_HAL_Driver/Src/stm32f3xx_hal_dac_ex.c **** /**
 362:Drivers/STM32F3xx_HAL_Driver/Src/stm32f3xx_hal_dac_ex.c ****   * @brief  Enables DAC and starts conversion of channel.
 363:Drivers/STM32F3xx_HAL_Driver/Src/stm32f3xx_hal_dac_ex.c ****   * @param  hdac: pointer to a DAC_HandleTypeDef structure that contains
 364:Drivers/STM32F3xx_HAL_Driver/Src/stm32f3xx_hal_dac_ex.c ****   *         the configuration information for the specified DAC.
 365:Drivers/STM32F3xx_HAL_Driver/Src/stm32f3xx_hal_dac_ex.c ****   * @param  Channel: The selected DAC channel. 
 366:Drivers/STM32F3xx_HAL_Driver/Src/stm32f3xx_hal_dac_ex.c ****   *          This parameter can be one of the following values:
 367:Drivers/STM32F3xx_HAL_Driver/Src/stm32f3xx_hal_dac_ex.c ****   *            @arg DAC_CHANNEL_1: DAC1 Channel1 selected
 368:Drivers/STM32F3xx_HAL_Driver/Src/stm32f3xx_hal_dac_ex.c ****   *            @arg DAC_CHANNEL_2: DAC1 Channel2 selected
 369:Drivers/STM32F3xx_HAL_Driver/Src/stm32f3xx_hal_dac_ex.c ****   * @param  pData: The destination peripheral Buffer address.
 370:Drivers/STM32F3xx_HAL_Driver/Src/stm32f3xx_hal_dac_ex.c ****   * @param  Length: The length of data to be transferred from memory to DAC peripheral
 371:Drivers/STM32F3xx_HAL_Driver/Src/stm32f3xx_hal_dac_ex.c ****   * @param  Alignment: Specifies the data alignment for DAC channel.
 372:Drivers/STM32F3xx_HAL_Driver/Src/stm32f3xx_hal_dac_ex.c ****   *          This parameter can be one of the following values:
 373:Drivers/STM32F3xx_HAL_Driver/Src/stm32f3xx_hal_dac_ex.c ****   *            @arg DAC_ALIGN_8B_R: 8bit right data alignment selected
ARM GAS  /tmp/ccVYEPWf.s 			page 8


 374:Drivers/STM32F3xx_HAL_Driver/Src/stm32f3xx_hal_dac_ex.c ****   *            @arg DAC_ALIGN_12B_L: 12bit left data alignment selected
 375:Drivers/STM32F3xx_HAL_Driver/Src/stm32f3xx_hal_dac_ex.c ****   *            @arg DAC_ALIGN_12B_R: 12bit right data alignment selected
 376:Drivers/STM32F3xx_HAL_Driver/Src/stm32f3xx_hal_dac_ex.c ****   * @retval HAL status
 377:Drivers/STM32F3xx_HAL_Driver/Src/stm32f3xx_hal_dac_ex.c ****   */
 378:Drivers/STM32F3xx_HAL_Driver/Src/stm32f3xx_hal_dac_ex.c **** HAL_StatusTypeDef HAL_DAC_Start_DMA(DAC_HandleTypeDef* hdac, uint32_t Channel, uint32_t* pData, uin
 379:Drivers/STM32F3xx_HAL_Driver/Src/stm32f3xx_hal_dac_ex.c **** {
 380:Drivers/STM32F3xx_HAL_Driver/Src/stm32f3xx_hal_dac_ex.c ****   uint32_t tmpreg = 0U;
 381:Drivers/STM32F3xx_HAL_Driver/Src/stm32f3xx_hal_dac_ex.c ****     
 382:Drivers/STM32F3xx_HAL_Driver/Src/stm32f3xx_hal_dac_ex.c ****   /* Check the parameters */
 383:Drivers/STM32F3xx_HAL_Driver/Src/stm32f3xx_hal_dac_ex.c ****   assert_param(IS_DAC_CHANNEL_INSTANCE(hdac->Instance, Channel));
 384:Drivers/STM32F3xx_HAL_Driver/Src/stm32f3xx_hal_dac_ex.c ****   assert_param(IS_DAC_ALIGN(Alignment));
 385:Drivers/STM32F3xx_HAL_Driver/Src/stm32f3xx_hal_dac_ex.c ****   
 386:Drivers/STM32F3xx_HAL_Driver/Src/stm32f3xx_hal_dac_ex.c ****   /* Process locked */
 387:Drivers/STM32F3xx_HAL_Driver/Src/stm32f3xx_hal_dac_ex.c ****   __HAL_LOCK(hdac);
 388:Drivers/STM32F3xx_HAL_Driver/Src/stm32f3xx_hal_dac_ex.c ****   
 389:Drivers/STM32F3xx_HAL_Driver/Src/stm32f3xx_hal_dac_ex.c ****   /* Change DAC state */
 390:Drivers/STM32F3xx_HAL_Driver/Src/stm32f3xx_hal_dac_ex.c ****   hdac->State = HAL_DAC_STATE_BUSY;
 391:Drivers/STM32F3xx_HAL_Driver/Src/stm32f3xx_hal_dac_ex.c **** 
 392:Drivers/STM32F3xx_HAL_Driver/Src/stm32f3xx_hal_dac_ex.c ****   if(Channel == DAC_CHANNEL_1)
 393:Drivers/STM32F3xx_HAL_Driver/Src/stm32f3xx_hal_dac_ex.c ****   {
 394:Drivers/STM32F3xx_HAL_Driver/Src/stm32f3xx_hal_dac_ex.c ****     /* Set the DMA transfer complete callback for channel1 */
 395:Drivers/STM32F3xx_HAL_Driver/Src/stm32f3xx_hal_dac_ex.c ****     hdac->DMA_Handle1->XferCpltCallback = DAC_DMAConvCpltCh1;
 396:Drivers/STM32F3xx_HAL_Driver/Src/stm32f3xx_hal_dac_ex.c ****     
 397:Drivers/STM32F3xx_HAL_Driver/Src/stm32f3xx_hal_dac_ex.c ****     /* Set the DMA half transfer complete callback for channel1 */
 398:Drivers/STM32F3xx_HAL_Driver/Src/stm32f3xx_hal_dac_ex.c ****     hdac->DMA_Handle1->XferHalfCpltCallback = DAC_DMAHalfConvCpltCh1;
 399:Drivers/STM32F3xx_HAL_Driver/Src/stm32f3xx_hal_dac_ex.c ****       
 400:Drivers/STM32F3xx_HAL_Driver/Src/stm32f3xx_hal_dac_ex.c ****     /* Set the DMA error callback for channel1 */
 401:Drivers/STM32F3xx_HAL_Driver/Src/stm32f3xx_hal_dac_ex.c ****     hdac->DMA_Handle1->XferErrorCallback = DAC_DMAErrorCh1;
 402:Drivers/STM32F3xx_HAL_Driver/Src/stm32f3xx_hal_dac_ex.c **** 
 403:Drivers/STM32F3xx_HAL_Driver/Src/stm32f3xx_hal_dac_ex.c ****     /* Enable the selected DAC channel1 DMA request */
 404:Drivers/STM32F3xx_HAL_Driver/Src/stm32f3xx_hal_dac_ex.c ****     SET_BIT(hdac->Instance->CR, DAC_CR_DMAEN1);   
 405:Drivers/STM32F3xx_HAL_Driver/Src/stm32f3xx_hal_dac_ex.c **** 
 406:Drivers/STM32F3xx_HAL_Driver/Src/stm32f3xx_hal_dac_ex.c ****     /* Case of use of channel 1U */
 407:Drivers/STM32F3xx_HAL_Driver/Src/stm32f3xx_hal_dac_ex.c ****     switch(Alignment)
 408:Drivers/STM32F3xx_HAL_Driver/Src/stm32f3xx_hal_dac_ex.c ****     {
 409:Drivers/STM32F3xx_HAL_Driver/Src/stm32f3xx_hal_dac_ex.c ****       case DAC_ALIGN_12B_R:
 410:Drivers/STM32F3xx_HAL_Driver/Src/stm32f3xx_hal_dac_ex.c ****         /* Get DHR12R1 address */
 411:Drivers/STM32F3xx_HAL_Driver/Src/stm32f3xx_hal_dac_ex.c ****         tmpreg = (uint32_t)&hdac->Instance->DHR12R1;
 412:Drivers/STM32F3xx_HAL_Driver/Src/stm32f3xx_hal_dac_ex.c ****         break;
 413:Drivers/STM32F3xx_HAL_Driver/Src/stm32f3xx_hal_dac_ex.c ****       case DAC_ALIGN_12B_L:
 414:Drivers/STM32F3xx_HAL_Driver/Src/stm32f3xx_hal_dac_ex.c ****         /* Get DHR12L1 address */
 415:Drivers/STM32F3xx_HAL_Driver/Src/stm32f3xx_hal_dac_ex.c ****         tmpreg = (uint32_t)&hdac->Instance->DHR12L1;
 416:Drivers/STM32F3xx_HAL_Driver/Src/stm32f3xx_hal_dac_ex.c ****         break;
 417:Drivers/STM32F3xx_HAL_Driver/Src/stm32f3xx_hal_dac_ex.c ****       case DAC_ALIGN_8B_R:
 418:Drivers/STM32F3xx_HAL_Driver/Src/stm32f3xx_hal_dac_ex.c ****         /* Get DHR8R1 address */
 419:Drivers/STM32F3xx_HAL_Driver/Src/stm32f3xx_hal_dac_ex.c ****         tmpreg = (uint32_t)&hdac->Instance->DHR8R1;
 420:Drivers/STM32F3xx_HAL_Driver/Src/stm32f3xx_hal_dac_ex.c ****         break;
 421:Drivers/STM32F3xx_HAL_Driver/Src/stm32f3xx_hal_dac_ex.c ****       default:
 422:Drivers/STM32F3xx_HAL_Driver/Src/stm32f3xx_hal_dac_ex.c ****         break;
 423:Drivers/STM32F3xx_HAL_Driver/Src/stm32f3xx_hal_dac_ex.c ****     }
 424:Drivers/STM32F3xx_HAL_Driver/Src/stm32f3xx_hal_dac_ex.c ****   }
 425:Drivers/STM32F3xx_HAL_Driver/Src/stm32f3xx_hal_dac_ex.c ****   else
 426:Drivers/STM32F3xx_HAL_Driver/Src/stm32f3xx_hal_dac_ex.c ****   {
 427:Drivers/STM32F3xx_HAL_Driver/Src/stm32f3xx_hal_dac_ex.c ****     /* Set the DMA transfer complete callback for channel2 */
 428:Drivers/STM32F3xx_HAL_Driver/Src/stm32f3xx_hal_dac_ex.c ****     hdac->DMA_Handle2->XferCpltCallback = DAC_DMAConvCpltCh2;
 429:Drivers/STM32F3xx_HAL_Driver/Src/stm32f3xx_hal_dac_ex.c ****     
 430:Drivers/STM32F3xx_HAL_Driver/Src/stm32f3xx_hal_dac_ex.c ****     /* Set the DMA half transfer complete callback for channel2 */
ARM GAS  /tmp/ccVYEPWf.s 			page 9


 431:Drivers/STM32F3xx_HAL_Driver/Src/stm32f3xx_hal_dac_ex.c ****     hdac->DMA_Handle2->XferHalfCpltCallback = DAC_DMAHalfConvCpltCh2;
 432:Drivers/STM32F3xx_HAL_Driver/Src/stm32f3xx_hal_dac_ex.c ****        
 433:Drivers/STM32F3xx_HAL_Driver/Src/stm32f3xx_hal_dac_ex.c ****     /* Set the DMA error callback for channel2 */
 434:Drivers/STM32F3xx_HAL_Driver/Src/stm32f3xx_hal_dac_ex.c ****     hdac->DMA_Handle2->XferErrorCallback = DAC_DMAErrorCh2;
 435:Drivers/STM32F3xx_HAL_Driver/Src/stm32f3xx_hal_dac_ex.c ****  
 436:Drivers/STM32F3xx_HAL_Driver/Src/stm32f3xx_hal_dac_ex.c ****     /* Enable the selected DAC channel2 DMA request */
 437:Drivers/STM32F3xx_HAL_Driver/Src/stm32f3xx_hal_dac_ex.c ****     SET_BIT(hdac->Instance->CR, DAC_CR_DMAEN2); 
 438:Drivers/STM32F3xx_HAL_Driver/Src/stm32f3xx_hal_dac_ex.c ****    
 439:Drivers/STM32F3xx_HAL_Driver/Src/stm32f3xx_hal_dac_ex.c ****     /* Case of use of channel 2U */
 440:Drivers/STM32F3xx_HAL_Driver/Src/stm32f3xx_hal_dac_ex.c ****     switch(Alignment)
 441:Drivers/STM32F3xx_HAL_Driver/Src/stm32f3xx_hal_dac_ex.c ****     {
 442:Drivers/STM32F3xx_HAL_Driver/Src/stm32f3xx_hal_dac_ex.c ****       case DAC_ALIGN_12B_R:
 443:Drivers/STM32F3xx_HAL_Driver/Src/stm32f3xx_hal_dac_ex.c ****         /* Get DHR12R2 address */
 444:Drivers/STM32F3xx_HAL_Driver/Src/stm32f3xx_hal_dac_ex.c ****         tmpreg = (uint32_t)&hdac->Instance->DHR12R2;
 445:Drivers/STM32F3xx_HAL_Driver/Src/stm32f3xx_hal_dac_ex.c ****         break;
 446:Drivers/STM32F3xx_HAL_Driver/Src/stm32f3xx_hal_dac_ex.c ****       case DAC_ALIGN_12B_L:
 447:Drivers/STM32F3xx_HAL_Driver/Src/stm32f3xx_hal_dac_ex.c ****         /* Get DHR12L2 address */
 448:Drivers/STM32F3xx_HAL_Driver/Src/stm32f3xx_hal_dac_ex.c ****         tmpreg = (uint32_t)&hdac->Instance->DHR12L2;
 449:Drivers/STM32F3xx_HAL_Driver/Src/stm32f3xx_hal_dac_ex.c ****         break;
 450:Drivers/STM32F3xx_HAL_Driver/Src/stm32f3xx_hal_dac_ex.c ****       case DAC_ALIGN_8B_R:
 451:Drivers/STM32F3xx_HAL_Driver/Src/stm32f3xx_hal_dac_ex.c ****         /* Get DHR8R2 address */
 452:Drivers/STM32F3xx_HAL_Driver/Src/stm32f3xx_hal_dac_ex.c ****         tmpreg = (uint32_t)&hdac->Instance->DHR8R2;
 453:Drivers/STM32F3xx_HAL_Driver/Src/stm32f3xx_hal_dac_ex.c ****         break;
 454:Drivers/STM32F3xx_HAL_Driver/Src/stm32f3xx_hal_dac_ex.c ****       default:
 455:Drivers/STM32F3xx_HAL_Driver/Src/stm32f3xx_hal_dac_ex.c ****         break;
 456:Drivers/STM32F3xx_HAL_Driver/Src/stm32f3xx_hal_dac_ex.c ****     }
 457:Drivers/STM32F3xx_HAL_Driver/Src/stm32f3xx_hal_dac_ex.c ****   }
 458:Drivers/STM32F3xx_HAL_Driver/Src/stm32f3xx_hal_dac_ex.c ****  
 459:Drivers/STM32F3xx_HAL_Driver/Src/stm32f3xx_hal_dac_ex.c ****   /* Enable the DMA Channel */
 460:Drivers/STM32F3xx_HAL_Driver/Src/stm32f3xx_hal_dac_ex.c ****   if(Channel == DAC_CHANNEL_1)
 461:Drivers/STM32F3xx_HAL_Driver/Src/stm32f3xx_hal_dac_ex.c ****   {
 462:Drivers/STM32F3xx_HAL_Driver/Src/stm32f3xx_hal_dac_ex.c ****     /* Enable the DAC DMA underrun interrupt */
 463:Drivers/STM32F3xx_HAL_Driver/Src/stm32f3xx_hal_dac_ex.c ****     __HAL_DAC_ENABLE_IT(hdac, DAC_IT_DMAUDR1);
 464:Drivers/STM32F3xx_HAL_Driver/Src/stm32f3xx_hal_dac_ex.c **** 
 465:Drivers/STM32F3xx_HAL_Driver/Src/stm32f3xx_hal_dac_ex.c ****     /* Enable the DMA Channel */
 466:Drivers/STM32F3xx_HAL_Driver/Src/stm32f3xx_hal_dac_ex.c ****     HAL_DMA_Start_IT(hdac->DMA_Handle1, (uint32_t)pData, tmpreg, Length);
 467:Drivers/STM32F3xx_HAL_Driver/Src/stm32f3xx_hal_dac_ex.c ****   } 
 468:Drivers/STM32F3xx_HAL_Driver/Src/stm32f3xx_hal_dac_ex.c ****   else
 469:Drivers/STM32F3xx_HAL_Driver/Src/stm32f3xx_hal_dac_ex.c ****   {
 470:Drivers/STM32F3xx_HAL_Driver/Src/stm32f3xx_hal_dac_ex.c ****     /* Enable the DAC DMA underrun interrupt */
 471:Drivers/STM32F3xx_HAL_Driver/Src/stm32f3xx_hal_dac_ex.c ****     __HAL_DAC_ENABLE_IT(hdac, DAC_IT_DMAUDR2);
 472:Drivers/STM32F3xx_HAL_Driver/Src/stm32f3xx_hal_dac_ex.c **** 
 473:Drivers/STM32F3xx_HAL_Driver/Src/stm32f3xx_hal_dac_ex.c ****     /* Enable the DMA Channel */
 474:Drivers/STM32F3xx_HAL_Driver/Src/stm32f3xx_hal_dac_ex.c ****     HAL_DMA_Start_IT(hdac->DMA_Handle2, (uint32_t)pData, tmpreg, Length);
 475:Drivers/STM32F3xx_HAL_Driver/Src/stm32f3xx_hal_dac_ex.c ****   }
 476:Drivers/STM32F3xx_HAL_Driver/Src/stm32f3xx_hal_dac_ex.c ****  
 477:Drivers/STM32F3xx_HAL_Driver/Src/stm32f3xx_hal_dac_ex.c ****   /* Process Unlocked */
 478:Drivers/STM32F3xx_HAL_Driver/Src/stm32f3xx_hal_dac_ex.c ****   __HAL_UNLOCK(hdac);
 479:Drivers/STM32F3xx_HAL_Driver/Src/stm32f3xx_hal_dac_ex.c **** 
 480:Drivers/STM32F3xx_HAL_Driver/Src/stm32f3xx_hal_dac_ex.c ****   /* Enable the Peripheral */
 481:Drivers/STM32F3xx_HAL_Driver/Src/stm32f3xx_hal_dac_ex.c ****   __HAL_DAC_ENABLE(hdac, Channel);
 482:Drivers/STM32F3xx_HAL_Driver/Src/stm32f3xx_hal_dac_ex.c ****   
 483:Drivers/STM32F3xx_HAL_Driver/Src/stm32f3xx_hal_dac_ex.c ****   /* Return function status */
 484:Drivers/STM32F3xx_HAL_Driver/Src/stm32f3xx_hal_dac_ex.c ****   return HAL_OK;
 485:Drivers/STM32F3xx_HAL_Driver/Src/stm32f3xx_hal_dac_ex.c **** }
 486:Drivers/STM32F3xx_HAL_Driver/Src/stm32f3xx_hal_dac_ex.c **** #endif /* STM32F303xE || STM32F398xx                || */
 487:Drivers/STM32F3xx_HAL_Driver/Src/stm32f3xx_hal_dac_ex.c ****        /* STM32F303xC || STM32F358xx                || */
ARM GAS  /tmp/ccVYEPWf.s 			page 10


 488:Drivers/STM32F3xx_HAL_Driver/Src/stm32f3xx_hal_dac_ex.c ****        /* STM32F303x8 || STM32F334x8 || STM32F328xx || */
 489:Drivers/STM32F3xx_HAL_Driver/Src/stm32f3xx_hal_dac_ex.c ****        /* STM32F373xC || STM32F378xx                   */
 490:Drivers/STM32F3xx_HAL_Driver/Src/stm32f3xx_hal_dac_ex.c **** 
 491:Drivers/STM32F3xx_HAL_Driver/Src/stm32f3xx_hal_dac_ex.c **** #if defined(STM32F302xE) || \
 492:Drivers/STM32F3xx_HAL_Driver/Src/stm32f3xx_hal_dac_ex.c ****     defined(STM32F302xC) || \
 493:Drivers/STM32F3xx_HAL_Driver/Src/stm32f3xx_hal_dac_ex.c ****     defined(STM32F301x8) || defined(STM32F302x8) || defined(STM32F318xx)
 494:Drivers/STM32F3xx_HAL_Driver/Src/stm32f3xx_hal_dac_ex.c **** /* DAC 1 has 1 channel (channel 1U)  */
 495:Drivers/STM32F3xx_HAL_Driver/Src/stm32f3xx_hal_dac_ex.c **** /**
 496:Drivers/STM32F3xx_HAL_Driver/Src/stm32f3xx_hal_dac_ex.c ****   * @brief  Enables DAC and starts conversion of channel.
 497:Drivers/STM32F3xx_HAL_Driver/Src/stm32f3xx_hal_dac_ex.c ****   * @param  hdac: pointer to a DAC_HandleTypeDef structure that contains
 498:Drivers/STM32F3xx_HAL_Driver/Src/stm32f3xx_hal_dac_ex.c ****   *         the configuration information for the specified DAC.
 499:Drivers/STM32F3xx_HAL_Driver/Src/stm32f3xx_hal_dac_ex.c ****   * @param  Channel: The selected DAC channel. 
 500:Drivers/STM32F3xx_HAL_Driver/Src/stm32f3xx_hal_dac_ex.c ****   *          This parameter can be one of the following values:
 501:Drivers/STM32F3xx_HAL_Driver/Src/stm32f3xx_hal_dac_ex.c ****   *            @arg DAC_CHANNEL_1: DAC1 Channel1 selected
 502:Drivers/STM32F3xx_HAL_Driver/Src/stm32f3xx_hal_dac_ex.c ****   * @param  pData: The destination peripheral Buffer address.
 503:Drivers/STM32F3xx_HAL_Driver/Src/stm32f3xx_hal_dac_ex.c ****   * @param  Length: The length of data to be transferred from memory to DAC peripheral
 504:Drivers/STM32F3xx_HAL_Driver/Src/stm32f3xx_hal_dac_ex.c ****   * @param  Alignment: Specifies the data alignment for DAC channel.
 505:Drivers/STM32F3xx_HAL_Driver/Src/stm32f3xx_hal_dac_ex.c ****   *          This parameter can be one of the following values:
 506:Drivers/STM32F3xx_HAL_Driver/Src/stm32f3xx_hal_dac_ex.c ****   *            @arg DAC_ALIGN_8B_R: 8bit right data alignment selected
 507:Drivers/STM32F3xx_HAL_Driver/Src/stm32f3xx_hal_dac_ex.c ****   *            @arg DAC_ALIGN_12B_L: 12bit left data alignment selected
 508:Drivers/STM32F3xx_HAL_Driver/Src/stm32f3xx_hal_dac_ex.c ****   *            @arg DAC_ALIGN_12B_R: 12bit right data alignment selected
 509:Drivers/STM32F3xx_HAL_Driver/Src/stm32f3xx_hal_dac_ex.c ****   * @retval HAL status
 510:Drivers/STM32F3xx_HAL_Driver/Src/stm32f3xx_hal_dac_ex.c ****   */
 511:Drivers/STM32F3xx_HAL_Driver/Src/stm32f3xx_hal_dac_ex.c **** HAL_StatusTypeDef HAL_DAC_Start_DMA(DAC_HandleTypeDef* hdac, uint32_t Channel, uint32_t* pData, uin
 512:Drivers/STM32F3xx_HAL_Driver/Src/stm32f3xx_hal_dac_ex.c **** {
 513:Drivers/STM32F3xx_HAL_Driver/Src/stm32f3xx_hal_dac_ex.c ****   uint32_t tmpreg = 0U;
 514:Drivers/STM32F3xx_HAL_Driver/Src/stm32f3xx_hal_dac_ex.c ****     
 515:Drivers/STM32F3xx_HAL_Driver/Src/stm32f3xx_hal_dac_ex.c ****   /* Check the parameters */
 516:Drivers/STM32F3xx_HAL_Driver/Src/stm32f3xx_hal_dac_ex.c ****   assert_param(IS_DAC_CHANNEL_INSTANCE(hdac->Instance, Channel));
 517:Drivers/STM32F3xx_HAL_Driver/Src/stm32f3xx_hal_dac_ex.c ****   assert_param(IS_DAC_ALIGN(Alignment));
 518:Drivers/STM32F3xx_HAL_Driver/Src/stm32f3xx_hal_dac_ex.c ****   
 519:Drivers/STM32F3xx_HAL_Driver/Src/stm32f3xx_hal_dac_ex.c ****   /* Process locked */
 520:Drivers/STM32F3xx_HAL_Driver/Src/stm32f3xx_hal_dac_ex.c ****   __HAL_LOCK(hdac);
 521:Drivers/STM32F3xx_HAL_Driver/Src/stm32f3xx_hal_dac_ex.c ****   
 522:Drivers/STM32F3xx_HAL_Driver/Src/stm32f3xx_hal_dac_ex.c ****   /* Change DAC state */
 523:Drivers/STM32F3xx_HAL_Driver/Src/stm32f3xx_hal_dac_ex.c ****   hdac->State = HAL_DAC_STATE_BUSY;
 524:Drivers/STM32F3xx_HAL_Driver/Src/stm32f3xx_hal_dac_ex.c ****     
 525:Drivers/STM32F3xx_HAL_Driver/Src/stm32f3xx_hal_dac_ex.c ****   /* Set the DMA transfer complete callback for channel1 */
 526:Drivers/STM32F3xx_HAL_Driver/Src/stm32f3xx_hal_dac_ex.c ****   hdac->DMA_Handle1->XferCpltCallback = DAC_DMAConvCpltCh1;
 527:Drivers/STM32F3xx_HAL_Driver/Src/stm32f3xx_hal_dac_ex.c ****   
 528:Drivers/STM32F3xx_HAL_Driver/Src/stm32f3xx_hal_dac_ex.c ****   /* Set the DMA half transfer complete callback for channel1 */
 529:Drivers/STM32F3xx_HAL_Driver/Src/stm32f3xx_hal_dac_ex.c ****   hdac->DMA_Handle1->XferHalfCpltCallback = DAC_DMAHalfConvCpltCh1;
 530:Drivers/STM32F3xx_HAL_Driver/Src/stm32f3xx_hal_dac_ex.c ****     
 531:Drivers/STM32F3xx_HAL_Driver/Src/stm32f3xx_hal_dac_ex.c ****   /* Set the DMA error callback for channel1 */
 532:Drivers/STM32F3xx_HAL_Driver/Src/stm32f3xx_hal_dac_ex.c ****   hdac->DMA_Handle1->XferErrorCallback = DAC_DMAErrorCh1;
 533:Drivers/STM32F3xx_HAL_Driver/Src/stm32f3xx_hal_dac_ex.c **** 
 534:Drivers/STM32F3xx_HAL_Driver/Src/stm32f3xx_hal_dac_ex.c ****   /* Enable the selected DAC channel1 DMA request */
 535:Drivers/STM32F3xx_HAL_Driver/Src/stm32f3xx_hal_dac_ex.c ****   SET_BIT(hdac->Instance->CR, DAC_CR_DMAEN1);
 536:Drivers/STM32F3xx_HAL_Driver/Src/stm32f3xx_hal_dac_ex.c ****     
 537:Drivers/STM32F3xx_HAL_Driver/Src/stm32f3xx_hal_dac_ex.c ****   /* Case of use of channel 1U */
 538:Drivers/STM32F3xx_HAL_Driver/Src/stm32f3xx_hal_dac_ex.c ****   switch(Alignment)
 539:Drivers/STM32F3xx_HAL_Driver/Src/stm32f3xx_hal_dac_ex.c ****   {
 540:Drivers/STM32F3xx_HAL_Driver/Src/stm32f3xx_hal_dac_ex.c ****     case DAC_ALIGN_12B_R:
 541:Drivers/STM32F3xx_HAL_Driver/Src/stm32f3xx_hal_dac_ex.c ****       /* Get DHR12R1 address */
 542:Drivers/STM32F3xx_HAL_Driver/Src/stm32f3xx_hal_dac_ex.c ****       tmpreg = (uint32_t)&hdac->Instance->DHR12R1;
 543:Drivers/STM32F3xx_HAL_Driver/Src/stm32f3xx_hal_dac_ex.c ****       break;
 544:Drivers/STM32F3xx_HAL_Driver/Src/stm32f3xx_hal_dac_ex.c ****     case DAC_ALIGN_12B_L:
ARM GAS  /tmp/ccVYEPWf.s 			page 11


 545:Drivers/STM32F3xx_HAL_Driver/Src/stm32f3xx_hal_dac_ex.c ****       /* Get DHR12L1 address */
 546:Drivers/STM32F3xx_HAL_Driver/Src/stm32f3xx_hal_dac_ex.c ****       tmpreg = (uint32_t)&hdac->Instance->DHR12L1;
 547:Drivers/STM32F3xx_HAL_Driver/Src/stm32f3xx_hal_dac_ex.c ****       break;
 548:Drivers/STM32F3xx_HAL_Driver/Src/stm32f3xx_hal_dac_ex.c ****     case DAC_ALIGN_8B_R:
 549:Drivers/STM32F3xx_HAL_Driver/Src/stm32f3xx_hal_dac_ex.c ****       /* Get DHR8R1 address */
 550:Drivers/STM32F3xx_HAL_Driver/Src/stm32f3xx_hal_dac_ex.c ****       tmpreg = (uint32_t)&hdac->Instance->DHR8R1;
 551:Drivers/STM32F3xx_HAL_Driver/Src/stm32f3xx_hal_dac_ex.c ****       break;
 552:Drivers/STM32F3xx_HAL_Driver/Src/stm32f3xx_hal_dac_ex.c ****     default:
 553:Drivers/STM32F3xx_HAL_Driver/Src/stm32f3xx_hal_dac_ex.c ****       break;
 554:Drivers/STM32F3xx_HAL_Driver/Src/stm32f3xx_hal_dac_ex.c ****   }
 555:Drivers/STM32F3xx_HAL_Driver/Src/stm32f3xx_hal_dac_ex.c ****   
 556:Drivers/STM32F3xx_HAL_Driver/Src/stm32f3xx_hal_dac_ex.c ****   /* Enable the DMA Channel */
 557:Drivers/STM32F3xx_HAL_Driver/Src/stm32f3xx_hal_dac_ex.c ****   /* Enable the DAC DMA underrun interrupt */
 558:Drivers/STM32F3xx_HAL_Driver/Src/stm32f3xx_hal_dac_ex.c ****   __HAL_DAC_ENABLE_IT(hdac, DAC_IT_DMAUDR1);
 559:Drivers/STM32F3xx_HAL_Driver/Src/stm32f3xx_hal_dac_ex.c **** 
 560:Drivers/STM32F3xx_HAL_Driver/Src/stm32f3xx_hal_dac_ex.c ****   /* Enable the DMA Channel */
 561:Drivers/STM32F3xx_HAL_Driver/Src/stm32f3xx_hal_dac_ex.c ****   HAL_DMA_Start_IT(hdac->DMA_Handle1, (uint32_t)pData, tmpreg, Length);
 562:Drivers/STM32F3xx_HAL_Driver/Src/stm32f3xx_hal_dac_ex.c ****  
 563:Drivers/STM32F3xx_HAL_Driver/Src/stm32f3xx_hal_dac_ex.c ****   /* Process Unlocked */
 564:Drivers/STM32F3xx_HAL_Driver/Src/stm32f3xx_hal_dac_ex.c ****   __HAL_UNLOCK(hdac);
 565:Drivers/STM32F3xx_HAL_Driver/Src/stm32f3xx_hal_dac_ex.c **** 
 566:Drivers/STM32F3xx_HAL_Driver/Src/stm32f3xx_hal_dac_ex.c ****   /* Enable the Peripheral */
 567:Drivers/STM32F3xx_HAL_Driver/Src/stm32f3xx_hal_dac_ex.c ****   __HAL_DAC_ENABLE(hdac, Channel); 
 568:Drivers/STM32F3xx_HAL_Driver/Src/stm32f3xx_hal_dac_ex.c ****  
 569:Drivers/STM32F3xx_HAL_Driver/Src/stm32f3xx_hal_dac_ex.c ****   /* Return function status */
 570:Drivers/STM32F3xx_HAL_Driver/Src/stm32f3xx_hal_dac_ex.c ****   return HAL_OK;
 571:Drivers/STM32F3xx_HAL_Driver/Src/stm32f3xx_hal_dac_ex.c **** }
 572:Drivers/STM32F3xx_HAL_Driver/Src/stm32f3xx_hal_dac_ex.c **** #endif /* STM32F302xE                               || */
 573:Drivers/STM32F3xx_HAL_Driver/Src/stm32f3xx_hal_dac_ex.c ****        /* STM32F302xC                               || */
 574:Drivers/STM32F3xx_HAL_Driver/Src/stm32f3xx_hal_dac_ex.c ****        /* STM32F301x8 || STM32F302x8 || STM32F318xx    */
 575:Drivers/STM32F3xx_HAL_Driver/Src/stm32f3xx_hal_dac_ex.c **** 
 576:Drivers/STM32F3xx_HAL_Driver/Src/stm32f3xx_hal_dac_ex.c **** /* DAC 1 has 2 channels 1U & 2U - DAC 2 has one channel 1U */
 577:Drivers/STM32F3xx_HAL_Driver/Src/stm32f3xx_hal_dac_ex.c **** #if  defined(STM32F303xE) || defined(STM32F398xx)                         || \
 578:Drivers/STM32F3xx_HAL_Driver/Src/stm32f3xx_hal_dac_ex.c ****      defined(STM32F303xC) || defined(STM32F358xx)                         || \
 579:Drivers/STM32F3xx_HAL_Driver/Src/stm32f3xx_hal_dac_ex.c ****      defined(STM32F303x8) || defined(STM32F334x8) || defined(STM32F328xx) || \
 580:Drivers/STM32F3xx_HAL_Driver/Src/stm32f3xx_hal_dac_ex.c ****      defined(STM32F373xC) || defined(STM32F378xx)
 581:Drivers/STM32F3xx_HAL_Driver/Src/stm32f3xx_hal_dac_ex.c **** /* DAC 1 has 2 channels 1U & 2U */
 582:Drivers/STM32F3xx_HAL_Driver/Src/stm32f3xx_hal_dac_ex.c **** /**
 583:Drivers/STM32F3xx_HAL_Driver/Src/stm32f3xx_hal_dac_ex.c ****   * @brief  Returns the last data output value of the selected DAC channel.
 584:Drivers/STM32F3xx_HAL_Driver/Src/stm32f3xx_hal_dac_ex.c ****   * @param  hdac: pointer to a DAC_HandleTypeDef structure that contains
 585:Drivers/STM32F3xx_HAL_Driver/Src/stm32f3xx_hal_dac_ex.c ****   *         the configuration information for the specified DAC.
 586:Drivers/STM32F3xx_HAL_Driver/Src/stm32f3xx_hal_dac_ex.c ****   * @param  Channel: The selected DAC channel. 
 587:Drivers/STM32F3xx_HAL_Driver/Src/stm32f3xx_hal_dac_ex.c ****   *          This parameter can be one of the following values:
 588:Drivers/STM32F3xx_HAL_Driver/Src/stm32f3xx_hal_dac_ex.c ****   *            @arg DAC_CHANNEL_1: DAC1 Channel1 selected
 589:Drivers/STM32F3xx_HAL_Driver/Src/stm32f3xx_hal_dac_ex.c ****   *            @arg DAC_CHANNEL_2: DAC1 Channel2 selected
 590:Drivers/STM32F3xx_HAL_Driver/Src/stm32f3xx_hal_dac_ex.c ****   * @retval The selected DAC channel data output value.
 591:Drivers/STM32F3xx_HAL_Driver/Src/stm32f3xx_hal_dac_ex.c ****   */
 592:Drivers/STM32F3xx_HAL_Driver/Src/stm32f3xx_hal_dac_ex.c **** uint32_t HAL_DAC_GetValue(DAC_HandleTypeDef* hdac, uint32_t Channel)
 593:Drivers/STM32F3xx_HAL_Driver/Src/stm32f3xx_hal_dac_ex.c **** {
 594:Drivers/STM32F3xx_HAL_Driver/Src/stm32f3xx_hal_dac_ex.c ****   /* Check the parameters */
 595:Drivers/STM32F3xx_HAL_Driver/Src/stm32f3xx_hal_dac_ex.c ****   assert_param(IS_DAC_CHANNEL_INSTANCE(hdac->Instance, Channel));
 596:Drivers/STM32F3xx_HAL_Driver/Src/stm32f3xx_hal_dac_ex.c ****   
 597:Drivers/STM32F3xx_HAL_Driver/Src/stm32f3xx_hal_dac_ex.c ****   /* Returns the DAC channel data output register value */
 598:Drivers/STM32F3xx_HAL_Driver/Src/stm32f3xx_hal_dac_ex.c ****   if(Channel == DAC_CHANNEL_1) 
 599:Drivers/STM32F3xx_HAL_Driver/Src/stm32f3xx_hal_dac_ex.c ****   {
 600:Drivers/STM32F3xx_HAL_Driver/Src/stm32f3xx_hal_dac_ex.c ****     return hdac->Instance->DOR1;
 601:Drivers/STM32F3xx_HAL_Driver/Src/stm32f3xx_hal_dac_ex.c ****   }
ARM GAS  /tmp/ccVYEPWf.s 			page 12


 602:Drivers/STM32F3xx_HAL_Driver/Src/stm32f3xx_hal_dac_ex.c ****   else /* channel = DAC_CHANNEL_2  */
 603:Drivers/STM32F3xx_HAL_Driver/Src/stm32f3xx_hal_dac_ex.c ****   {
 604:Drivers/STM32F3xx_HAL_Driver/Src/stm32f3xx_hal_dac_ex.c ****     return hdac->Instance->DOR2;
 605:Drivers/STM32F3xx_HAL_Driver/Src/stm32f3xx_hal_dac_ex.c ****   }
 606:Drivers/STM32F3xx_HAL_Driver/Src/stm32f3xx_hal_dac_ex.c **** }
 607:Drivers/STM32F3xx_HAL_Driver/Src/stm32f3xx_hal_dac_ex.c **** #endif /* STM32F303xE || STM32F398xx                || */
 608:Drivers/STM32F3xx_HAL_Driver/Src/stm32f3xx_hal_dac_ex.c ****        /* STM32F303xC || STM32F358xx                || */
 609:Drivers/STM32F3xx_HAL_Driver/Src/stm32f3xx_hal_dac_ex.c ****        /* STM32F303x8 || STM32F334x8 || STM32F328xx || */
 610:Drivers/STM32F3xx_HAL_Driver/Src/stm32f3xx_hal_dac_ex.c ****        /* STM32F373xC || STM32F378xx                   */
 611:Drivers/STM32F3xx_HAL_Driver/Src/stm32f3xx_hal_dac_ex.c **** 
 612:Drivers/STM32F3xx_HAL_Driver/Src/stm32f3xx_hal_dac_ex.c **** #if defined(STM32F302xE) || \
 613:Drivers/STM32F3xx_HAL_Driver/Src/stm32f3xx_hal_dac_ex.c ****     defined(STM32F302xC) || \
 614:Drivers/STM32F3xx_HAL_Driver/Src/stm32f3xx_hal_dac_ex.c ****     defined(STM32F301x8) || defined(STM32F302x8) || defined(STM32F318xx)
 615:Drivers/STM32F3xx_HAL_Driver/Src/stm32f3xx_hal_dac_ex.c **** /* DAC 1 has 1 channel (channel 1U)  */
 616:Drivers/STM32F3xx_HAL_Driver/Src/stm32f3xx_hal_dac_ex.c **** /**
 617:Drivers/STM32F3xx_HAL_Driver/Src/stm32f3xx_hal_dac_ex.c ****   * @brief  Returns the last data output value of the selected DAC channel.
 618:Drivers/STM32F3xx_HAL_Driver/Src/stm32f3xx_hal_dac_ex.c ****   * @param  hdac: pointer to a DAC_HandleTypeDef structure that contains
 619:Drivers/STM32F3xx_HAL_Driver/Src/stm32f3xx_hal_dac_ex.c ****   *         the configuration information for the specified DAC.
 620:Drivers/STM32F3xx_HAL_Driver/Src/stm32f3xx_hal_dac_ex.c ****   * @param  channel: The selected DAC channel. 
 621:Drivers/STM32F3xx_HAL_Driver/Src/stm32f3xx_hal_dac_ex.c ****   *          This parameter can be one of the following values:
 622:Drivers/STM32F3xx_HAL_Driver/Src/stm32f3xx_hal_dac_ex.c ****   *            @arg DAC_CHANNEL_1: DAC1 Channel1 selected
 623:Drivers/STM32F3xx_HAL_Driver/Src/stm32f3xx_hal_dac_ex.c ****   * @retval The selected DAC channel data output value.
 624:Drivers/STM32F3xx_HAL_Driver/Src/stm32f3xx_hal_dac_ex.c ****   */
 625:Drivers/STM32F3xx_HAL_Driver/Src/stm32f3xx_hal_dac_ex.c **** uint32_t HAL_DAC_GetValue(DAC_HandleTypeDef* hdac, uint32_t Channel)
 626:Drivers/STM32F3xx_HAL_Driver/Src/stm32f3xx_hal_dac_ex.c **** {
 627:Drivers/STM32F3xx_HAL_Driver/Src/stm32f3xx_hal_dac_ex.c ****   /* Check the parameters */
 628:Drivers/STM32F3xx_HAL_Driver/Src/stm32f3xx_hal_dac_ex.c ****   assert_param(IS_DAC_CHANNEL_INSTANCE(hdac->Instance, Channel));
 629:Drivers/STM32F3xx_HAL_Driver/Src/stm32f3xx_hal_dac_ex.c ****   
 630:Drivers/STM32F3xx_HAL_Driver/Src/stm32f3xx_hal_dac_ex.c ****   /* Returns the DAC channel data output register value */
 631:Drivers/STM32F3xx_HAL_Driver/Src/stm32f3xx_hal_dac_ex.c ****   return hdac->Instance->DOR1;
 632:Drivers/STM32F3xx_HAL_Driver/Src/stm32f3xx_hal_dac_ex.c **** }
 633:Drivers/STM32F3xx_HAL_Driver/Src/stm32f3xx_hal_dac_ex.c **** #endif /* STM32F302xE                               || */
 634:Drivers/STM32F3xx_HAL_Driver/Src/stm32f3xx_hal_dac_ex.c ****        /* STM32F302xC                               || */
 635:Drivers/STM32F3xx_HAL_Driver/Src/stm32f3xx_hal_dac_ex.c ****        /* STM32F301x8 || STM32F302x8 || STM32F318xx    */
 636:Drivers/STM32F3xx_HAL_Driver/Src/stm32f3xx_hal_dac_ex.c **** 
 637:Drivers/STM32F3xx_HAL_Driver/Src/stm32f3xx_hal_dac_ex.c **** /**
 638:Drivers/STM32F3xx_HAL_Driver/Src/stm32f3xx_hal_dac_ex.c ****   * @brief  Return the last data output value of the selected DAC channel.
 639:Drivers/STM32F3xx_HAL_Driver/Src/stm32f3xx_hal_dac_ex.c ****   * @param  hdac: pointer to a DAC_HandleTypeDef structure that contains
 640:Drivers/STM32F3xx_HAL_Driver/Src/stm32f3xx_hal_dac_ex.c ****   *         the configuration information for the specified DAC.
 641:Drivers/STM32F3xx_HAL_Driver/Src/stm32f3xx_hal_dac_ex.c ****   * @retval The selected DAC channel data output value.
 642:Drivers/STM32F3xx_HAL_Driver/Src/stm32f3xx_hal_dac_ex.c ****   */
 643:Drivers/STM32F3xx_HAL_Driver/Src/stm32f3xx_hal_dac_ex.c **** uint32_t HAL_DACEx_DualGetValue(DAC_HandleTypeDef* hdac)
 644:Drivers/STM32F3xx_HAL_Driver/Src/stm32f3xx_hal_dac_ex.c **** {
 645:Drivers/STM32F3xx_HAL_Driver/Src/stm32f3xx_hal_dac_ex.c ****   uint32_t tmp = 0U;
 646:Drivers/STM32F3xx_HAL_Driver/Src/stm32f3xx_hal_dac_ex.c **** 
 647:Drivers/STM32F3xx_HAL_Driver/Src/stm32f3xx_hal_dac_ex.c ****   tmp |= hdac->Instance->DOR1;
 648:Drivers/STM32F3xx_HAL_Driver/Src/stm32f3xx_hal_dac_ex.c **** 
 649:Drivers/STM32F3xx_HAL_Driver/Src/stm32f3xx_hal_dac_ex.c **** #if  defined(STM32F303xE) || defined(STM32F398xx)                         || \
 650:Drivers/STM32F3xx_HAL_Driver/Src/stm32f3xx_hal_dac_ex.c ****      defined(STM32F303xC) || defined(STM32F358xx)                         || \
 651:Drivers/STM32F3xx_HAL_Driver/Src/stm32f3xx_hal_dac_ex.c ****      defined(STM32F303x8) || defined(STM32F334x8) || defined(STM32F328xx) || \
 652:Drivers/STM32F3xx_HAL_Driver/Src/stm32f3xx_hal_dac_ex.c ****      defined(STM32F373xC) || defined(STM32F378xx)
 653:Drivers/STM32F3xx_HAL_Driver/Src/stm32f3xx_hal_dac_ex.c **** /* DAC channel 2 is present in DAC 1U */
 654:Drivers/STM32F3xx_HAL_Driver/Src/stm32f3xx_hal_dac_ex.c ****   tmp |= hdac->Instance->DOR2 << 16U;
 655:Drivers/STM32F3xx_HAL_Driver/Src/stm32f3xx_hal_dac_ex.c **** #endif /* STM32F303xE || STM32F398xx                || */
 656:Drivers/STM32F3xx_HAL_Driver/Src/stm32f3xx_hal_dac_ex.c ****        /* STM32F303xC || STM32F358xx                || */
 657:Drivers/STM32F3xx_HAL_Driver/Src/stm32f3xx_hal_dac_ex.c ****        /* STM32F303x8 || STM32F334x8 || STM32F328xx || */
 658:Drivers/STM32F3xx_HAL_Driver/Src/stm32f3xx_hal_dac_ex.c ****        /* STM32F373xC || STM32F378xx                   */
ARM GAS  /tmp/ccVYEPWf.s 			page 13


 659:Drivers/STM32F3xx_HAL_Driver/Src/stm32f3xx_hal_dac_ex.c **** 
 660:Drivers/STM32F3xx_HAL_Driver/Src/stm32f3xx_hal_dac_ex.c ****   /* Returns the DAC channel data output register value */
 661:Drivers/STM32F3xx_HAL_Driver/Src/stm32f3xx_hal_dac_ex.c ****   return tmp;
 662:Drivers/STM32F3xx_HAL_Driver/Src/stm32f3xx_hal_dac_ex.c **** }
 663:Drivers/STM32F3xx_HAL_Driver/Src/stm32f3xx_hal_dac_ex.c **** 
 664:Drivers/STM32F3xx_HAL_Driver/Src/stm32f3xx_hal_dac_ex.c **** #if  defined(STM32F303xE) || defined(STM32F398xx)                         || \
 665:Drivers/STM32F3xx_HAL_Driver/Src/stm32f3xx_hal_dac_ex.c ****      defined(STM32F303xC) || defined(STM32F358xx)                         || \
 666:Drivers/STM32F3xx_HAL_Driver/Src/stm32f3xx_hal_dac_ex.c ****      defined(STM32F303x8) || defined(STM32F334x8) || defined(STM32F328xx) || \
 667:Drivers/STM32F3xx_HAL_Driver/Src/stm32f3xx_hal_dac_ex.c ****      defined(STM32F373xC) || defined(STM32F378xx)
 668:Drivers/STM32F3xx_HAL_Driver/Src/stm32f3xx_hal_dac_ex.c **** /* DAC channel 2 is available on top of DAC channel 1U */
 669:Drivers/STM32F3xx_HAL_Driver/Src/stm32f3xx_hal_dac_ex.c **** /**
 670:Drivers/STM32F3xx_HAL_Driver/Src/stm32f3xx_hal_dac_ex.c ****   * @brief  Handles DAC interrupt request
 671:Drivers/STM32F3xx_HAL_Driver/Src/stm32f3xx_hal_dac_ex.c ****   *         This function uses the interruption of DMA
 672:Drivers/STM32F3xx_HAL_Driver/Src/stm32f3xx_hal_dac_ex.c ****   *         underrun.  
 673:Drivers/STM32F3xx_HAL_Driver/Src/stm32f3xx_hal_dac_ex.c ****   * @param  hdac: pointer to a DAC_HandleTypeDef structure that contains
 674:Drivers/STM32F3xx_HAL_Driver/Src/stm32f3xx_hal_dac_ex.c ****   *         the configuration information for the specified DAC.
 675:Drivers/STM32F3xx_HAL_Driver/Src/stm32f3xx_hal_dac_ex.c ****   * @retval None
 676:Drivers/STM32F3xx_HAL_Driver/Src/stm32f3xx_hal_dac_ex.c ****   */
 677:Drivers/STM32F3xx_HAL_Driver/Src/stm32f3xx_hal_dac_ex.c **** void HAL_DAC_IRQHandler(struct __DAC_HandleTypeDef* hdac)
 678:Drivers/STM32F3xx_HAL_Driver/Src/stm32f3xx_hal_dac_ex.c **** {
 679:Drivers/STM32F3xx_HAL_Driver/Src/stm32f3xx_hal_dac_ex.c ****   if(__HAL_DAC_GET_IT_SOURCE(hdac, DAC_IT_DMAUDR1))
 680:Drivers/STM32F3xx_HAL_Driver/Src/stm32f3xx_hal_dac_ex.c ****   { 
 681:Drivers/STM32F3xx_HAL_Driver/Src/stm32f3xx_hal_dac_ex.c ****     /* Check underrun flag of DAC channel 1U */
 682:Drivers/STM32F3xx_HAL_Driver/Src/stm32f3xx_hal_dac_ex.c ****     if(__HAL_DAC_GET_FLAG(hdac, DAC_FLAG_DMAUDR1))
 683:Drivers/STM32F3xx_HAL_Driver/Src/stm32f3xx_hal_dac_ex.c ****     {
 684:Drivers/STM32F3xx_HAL_Driver/Src/stm32f3xx_hal_dac_ex.c ****       /* Change DAC state to error state */
 685:Drivers/STM32F3xx_HAL_Driver/Src/stm32f3xx_hal_dac_ex.c ****       hdac->State = HAL_DAC_STATE_ERROR;
 686:Drivers/STM32F3xx_HAL_Driver/Src/stm32f3xx_hal_dac_ex.c ****     
 687:Drivers/STM32F3xx_HAL_Driver/Src/stm32f3xx_hal_dac_ex.c ****       /* Set DAC error code to chanel1 DMA underrun error */
 688:Drivers/STM32F3xx_HAL_Driver/Src/stm32f3xx_hal_dac_ex.c ****       SET_BIT(hdac->ErrorCode, HAL_DAC_ERROR_DMAUNDERRUNCH1);
 689:Drivers/STM32F3xx_HAL_Driver/Src/stm32f3xx_hal_dac_ex.c ****           
 690:Drivers/STM32F3xx_HAL_Driver/Src/stm32f3xx_hal_dac_ex.c ****       /* Clear the underrun flag */
 691:Drivers/STM32F3xx_HAL_Driver/Src/stm32f3xx_hal_dac_ex.c ****       __HAL_DAC_CLEAR_FLAG(hdac,DAC_FLAG_DMAUDR1);
 692:Drivers/STM32F3xx_HAL_Driver/Src/stm32f3xx_hal_dac_ex.c ****     
 693:Drivers/STM32F3xx_HAL_Driver/Src/stm32f3xx_hal_dac_ex.c ****       /* Disable the selected DAC channel1 DMA request */
 694:Drivers/STM32F3xx_HAL_Driver/Src/stm32f3xx_hal_dac_ex.c ****       CLEAR_BIT(hdac->Instance->CR, DAC_CR_DMAEN1);
 695:Drivers/STM32F3xx_HAL_Driver/Src/stm32f3xx_hal_dac_ex.c ****     
 696:Drivers/STM32F3xx_HAL_Driver/Src/stm32f3xx_hal_dac_ex.c ****       /* Error callback */ 
 697:Drivers/STM32F3xx_HAL_Driver/Src/stm32f3xx_hal_dac_ex.c ****       HAL_DAC_DMAUnderrunCallbackCh1(hdac);
 698:Drivers/STM32F3xx_HAL_Driver/Src/stm32f3xx_hal_dac_ex.c ****     }
 699:Drivers/STM32F3xx_HAL_Driver/Src/stm32f3xx_hal_dac_ex.c ****   }
 700:Drivers/STM32F3xx_HAL_Driver/Src/stm32f3xx_hal_dac_ex.c ****   
 701:Drivers/STM32F3xx_HAL_Driver/Src/stm32f3xx_hal_dac_ex.c ****   if(__HAL_DAC_GET_IT_SOURCE(hdac, DAC_IT_DMAUDR2))
 702:Drivers/STM32F3xx_HAL_Driver/Src/stm32f3xx_hal_dac_ex.c ****   {
 703:Drivers/STM32F3xx_HAL_Driver/Src/stm32f3xx_hal_dac_ex.c ****     /* Check underrun flag of DAC channel 1U */
 704:Drivers/STM32F3xx_HAL_Driver/Src/stm32f3xx_hal_dac_ex.c ****     if (__HAL_DAC_GET_FLAG(hdac, DAC_FLAG_DMAUDR2))
 705:Drivers/STM32F3xx_HAL_Driver/Src/stm32f3xx_hal_dac_ex.c ****     {
 706:Drivers/STM32F3xx_HAL_Driver/Src/stm32f3xx_hal_dac_ex.c ****       /* Change DAC state to error state */
 707:Drivers/STM32F3xx_HAL_Driver/Src/stm32f3xx_hal_dac_ex.c ****       hdac->State = HAL_DAC_STATE_ERROR;
 708:Drivers/STM32F3xx_HAL_Driver/Src/stm32f3xx_hal_dac_ex.c ****     
 709:Drivers/STM32F3xx_HAL_Driver/Src/stm32f3xx_hal_dac_ex.c ****       /* Set DAC error code to channel2 DMA underrun error */
 710:Drivers/STM32F3xx_HAL_Driver/Src/stm32f3xx_hal_dac_ex.c ****       SET_BIT(hdac->ErrorCode, HAL_DAC_ERROR_DMAUNDERRUNCH2);
 711:Drivers/STM32F3xx_HAL_Driver/Src/stm32f3xx_hal_dac_ex.c ****     
 712:Drivers/STM32F3xx_HAL_Driver/Src/stm32f3xx_hal_dac_ex.c ****       /* Clear the underrun flag */
 713:Drivers/STM32F3xx_HAL_Driver/Src/stm32f3xx_hal_dac_ex.c ****       __HAL_DAC_CLEAR_FLAG(hdac,DAC_FLAG_DMAUDR2);
 714:Drivers/STM32F3xx_HAL_Driver/Src/stm32f3xx_hal_dac_ex.c ****     
 715:Drivers/STM32F3xx_HAL_Driver/Src/stm32f3xx_hal_dac_ex.c ****       /* Disable the selected DAC channel1 DMA request */
ARM GAS  /tmp/ccVYEPWf.s 			page 14


 716:Drivers/STM32F3xx_HAL_Driver/Src/stm32f3xx_hal_dac_ex.c ****       CLEAR_BIT(hdac->Instance->CR, DAC_CR_DMAEN2);
 717:Drivers/STM32F3xx_HAL_Driver/Src/stm32f3xx_hal_dac_ex.c ****    
 718:Drivers/STM32F3xx_HAL_Driver/Src/stm32f3xx_hal_dac_ex.c ****       /* Error callback */ 
 719:Drivers/STM32F3xx_HAL_Driver/Src/stm32f3xx_hal_dac_ex.c ****       HAL_DACEx_DMAUnderrunCallbackCh2(hdac);
 720:Drivers/STM32F3xx_HAL_Driver/Src/stm32f3xx_hal_dac_ex.c ****     }
 721:Drivers/STM32F3xx_HAL_Driver/Src/stm32f3xx_hal_dac_ex.c ****   }
 722:Drivers/STM32F3xx_HAL_Driver/Src/stm32f3xx_hal_dac_ex.c **** }
 723:Drivers/STM32F3xx_HAL_Driver/Src/stm32f3xx_hal_dac_ex.c **** #endif /* STM32F303xE || STM32F398xx                || */
 724:Drivers/STM32F3xx_HAL_Driver/Src/stm32f3xx_hal_dac_ex.c ****        /* STM32F303xC || STM32F358xx                || */
 725:Drivers/STM32F3xx_HAL_Driver/Src/stm32f3xx_hal_dac_ex.c ****        /* STM32F303x8 || STM32F334x8 || STM32F328xx || */
 726:Drivers/STM32F3xx_HAL_Driver/Src/stm32f3xx_hal_dac_ex.c ****        /* STM32F373xC || STM32F378xx                   */
 727:Drivers/STM32F3xx_HAL_Driver/Src/stm32f3xx_hal_dac_ex.c **** 
 728:Drivers/STM32F3xx_HAL_Driver/Src/stm32f3xx_hal_dac_ex.c **** #if defined(STM32F302xE) || \
 729:Drivers/STM32F3xx_HAL_Driver/Src/stm32f3xx_hal_dac_ex.c ****     defined(STM32F302xC) || \
 730:Drivers/STM32F3xx_HAL_Driver/Src/stm32f3xx_hal_dac_ex.c ****     defined(STM32F301x8) || defined(STM32F302x8) || defined(STM32F318xx)
 731:Drivers/STM32F3xx_HAL_Driver/Src/stm32f3xx_hal_dac_ex.c **** /* DAC channel 2 is NOT available. Only DAC channel 1 is available */
 732:Drivers/STM32F3xx_HAL_Driver/Src/stm32f3xx_hal_dac_ex.c **** /**
 733:Drivers/STM32F3xx_HAL_Driver/Src/stm32f3xx_hal_dac_ex.c ****   * @brief  Handles DAC interrupt request
 734:Drivers/STM32F3xx_HAL_Driver/Src/stm32f3xx_hal_dac_ex.c ****   *         This function uses the interruption of DMA
 735:Drivers/STM32F3xx_HAL_Driver/Src/stm32f3xx_hal_dac_ex.c ****   *         underrun.  
 736:Drivers/STM32F3xx_HAL_Driver/Src/stm32f3xx_hal_dac_ex.c ****   * @param  hdac: pointer to a DAC_HandleTypeDef structure that contains
 737:Drivers/STM32F3xx_HAL_Driver/Src/stm32f3xx_hal_dac_ex.c ****   *         the configuration information for the specified DAC.
 738:Drivers/STM32F3xx_HAL_Driver/Src/stm32f3xx_hal_dac_ex.c ****   * @retval None
 739:Drivers/STM32F3xx_HAL_Driver/Src/stm32f3xx_hal_dac_ex.c ****   */
 740:Drivers/STM32F3xx_HAL_Driver/Src/stm32f3xx_hal_dac_ex.c **** void HAL_DAC_IRQHandler(struct __DAC_HandleTypeDef* hdac)
 741:Drivers/STM32F3xx_HAL_Driver/Src/stm32f3xx_hal_dac_ex.c **** {
 742:Drivers/STM32F3xx_HAL_Driver/Src/stm32f3xx_hal_dac_ex.c ****   if(__HAL_DAC_GET_IT_SOURCE(hdac, DAC_IT_DMAUDR1))
 743:Drivers/STM32F3xx_HAL_Driver/Src/stm32f3xx_hal_dac_ex.c ****   {  
 744:Drivers/STM32F3xx_HAL_Driver/Src/stm32f3xx_hal_dac_ex.c ****     /* Check underrun flag of DAC channel 1U */
 745:Drivers/STM32F3xx_HAL_Driver/Src/stm32f3xx_hal_dac_ex.c ****     if(__HAL_DAC_GET_FLAG(hdac, DAC_FLAG_DMAUDR1))
 746:Drivers/STM32F3xx_HAL_Driver/Src/stm32f3xx_hal_dac_ex.c ****     {
 747:Drivers/STM32F3xx_HAL_Driver/Src/stm32f3xx_hal_dac_ex.c ****       /* Change DAC state to error state */
 748:Drivers/STM32F3xx_HAL_Driver/Src/stm32f3xx_hal_dac_ex.c ****       hdac->State = HAL_DAC_STATE_ERROR;
 749:Drivers/STM32F3xx_HAL_Driver/Src/stm32f3xx_hal_dac_ex.c ****     
 750:Drivers/STM32F3xx_HAL_Driver/Src/stm32f3xx_hal_dac_ex.c ****       /* Set DAC error code to chanel1 DMA underrun error */
 751:Drivers/STM32F3xx_HAL_Driver/Src/stm32f3xx_hal_dac_ex.c ****       SET_BIT(hdac->ErrorCode, HAL_DAC_ERROR_DMAUNDERRUNCH1);
 752:Drivers/STM32F3xx_HAL_Driver/Src/stm32f3xx_hal_dac_ex.c ****     
 753:Drivers/STM32F3xx_HAL_Driver/Src/stm32f3xx_hal_dac_ex.c ****       /* Clear the underrun flag */
 754:Drivers/STM32F3xx_HAL_Driver/Src/stm32f3xx_hal_dac_ex.c ****       __HAL_DAC_CLEAR_FLAG(hdac,DAC_FLAG_DMAUDR1);
 755:Drivers/STM32F3xx_HAL_Driver/Src/stm32f3xx_hal_dac_ex.c ****     
 756:Drivers/STM32F3xx_HAL_Driver/Src/stm32f3xx_hal_dac_ex.c ****       /* Disable the selected DAC channel1 DMA request */
 757:Drivers/STM32F3xx_HAL_Driver/Src/stm32f3xx_hal_dac_ex.c ****       CLEAR_BIT(hdac->Instance->CR, DAC_CR_DMAEN1);
 758:Drivers/STM32F3xx_HAL_Driver/Src/stm32f3xx_hal_dac_ex.c ****     
 759:Drivers/STM32F3xx_HAL_Driver/Src/stm32f3xx_hal_dac_ex.c ****       /* Error callback */ 
 760:Drivers/STM32F3xx_HAL_Driver/Src/stm32f3xx_hal_dac_ex.c ****       HAL_DAC_DMAUnderrunCallbackCh1(hdac);
 761:Drivers/STM32F3xx_HAL_Driver/Src/stm32f3xx_hal_dac_ex.c ****     }
 762:Drivers/STM32F3xx_HAL_Driver/Src/stm32f3xx_hal_dac_ex.c ****   }
 763:Drivers/STM32F3xx_HAL_Driver/Src/stm32f3xx_hal_dac_ex.c **** }
 764:Drivers/STM32F3xx_HAL_Driver/Src/stm32f3xx_hal_dac_ex.c **** #endif /* STM32F302xE                               || */
 765:Drivers/STM32F3xx_HAL_Driver/Src/stm32f3xx_hal_dac_ex.c ****        /* STM32F302xC                               || */
 766:Drivers/STM32F3xx_HAL_Driver/Src/stm32f3xx_hal_dac_ex.c ****        /* STM32F301x8 || STM32F302x8 || STM32F318xx    */
 767:Drivers/STM32F3xx_HAL_Driver/Src/stm32f3xx_hal_dac_ex.c **** 
 768:Drivers/STM32F3xx_HAL_Driver/Src/stm32f3xx_hal_dac_ex.c **** /**
 769:Drivers/STM32F3xx_HAL_Driver/Src/stm32f3xx_hal_dac_ex.c ****   * @brief  Configures the selected DAC channel.
 770:Drivers/STM32F3xx_HAL_Driver/Src/stm32f3xx_hal_dac_ex.c ****   * @param  hdac: pointer to a DAC_HandleTypeDef structure that contains
 771:Drivers/STM32F3xx_HAL_Driver/Src/stm32f3xx_hal_dac_ex.c ****   *         the configuration information for the specified DAC.
 772:Drivers/STM32F3xx_HAL_Driver/Src/stm32f3xx_hal_dac_ex.c ****   * @param  sConfig: DAC configuration structure.
ARM GAS  /tmp/ccVYEPWf.s 			page 15


 773:Drivers/STM32F3xx_HAL_Driver/Src/stm32f3xx_hal_dac_ex.c ****   * @param  Channel: The selected DAC channel. 
 774:Drivers/STM32F3xx_HAL_Driver/Src/stm32f3xx_hal_dac_ex.c ****   *          This parameter can be one of the following values:
 775:Drivers/STM32F3xx_HAL_Driver/Src/stm32f3xx_hal_dac_ex.c ****   *            @arg DAC_CHANNEL_1: DAC1 Channel1 selected
 776:Drivers/STM32F3xx_HAL_Driver/Src/stm32f3xx_hal_dac_ex.c ****   *            @arg DAC_CHANNEL_2: DAC1 Channel2 selected  
 777:Drivers/STM32F3xx_HAL_Driver/Src/stm32f3xx_hal_dac_ex.c ****   *            @arg DAC_CHANNEL_1: DAC2 Channel1 selected 
 778:Drivers/STM32F3xx_HAL_Driver/Src/stm32f3xx_hal_dac_ex.c ****   * @retval HAL status
 779:Drivers/STM32F3xx_HAL_Driver/Src/stm32f3xx_hal_dac_ex.c ****   */
 780:Drivers/STM32F3xx_HAL_Driver/Src/stm32f3xx_hal_dac_ex.c **** 
 781:Drivers/STM32F3xx_HAL_Driver/Src/stm32f3xx_hal_dac_ex.c **** HAL_StatusTypeDef HAL_DAC_ConfigChannel(DAC_HandleTypeDef* hdac, DAC_ChannelConfTypeDef* sConfig, u
 782:Drivers/STM32F3xx_HAL_Driver/Src/stm32f3xx_hal_dac_ex.c **** {
 783:Drivers/STM32F3xx_HAL_Driver/Src/stm32f3xx_hal_dac_ex.c ****   uint32_t tmpreg1 = 0U, tmpreg2 = 0U;
 784:Drivers/STM32F3xx_HAL_Driver/Src/stm32f3xx_hal_dac_ex.c **** 
 785:Drivers/STM32F3xx_HAL_Driver/Src/stm32f3xx_hal_dac_ex.c ****   /* Check the DAC parameters */
 786:Drivers/STM32F3xx_HAL_Driver/Src/stm32f3xx_hal_dac_ex.c ****   assert_param(IS_DAC_TRIGGER(sConfig->DAC_Trigger));
 787:Drivers/STM32F3xx_HAL_Driver/Src/stm32f3xx_hal_dac_ex.c **** 
 788:Drivers/STM32F3xx_HAL_Driver/Src/stm32f3xx_hal_dac_ex.c **** #if defined(STM32F303x8) || defined(STM32F334x8) || defined(STM32F328xx)
 789:Drivers/STM32F3xx_HAL_Driver/Src/stm32f3xx_hal_dac_ex.c ****   if ((hdac->Instance == DAC1) && (Channel == DAC_CHANNEL_1)) 
 790:Drivers/STM32F3xx_HAL_Driver/Src/stm32f3xx_hal_dac_ex.c ****   {
 791:Drivers/STM32F3xx_HAL_Driver/Src/stm32f3xx_hal_dac_ex.c ****     /* Output Buffer (BOFF1) control */
 792:Drivers/STM32F3xx_HAL_Driver/Src/stm32f3xx_hal_dac_ex.c ****     assert_param(IS_DAC_OUTPUT_BUFFER_STATE(sConfig->DAC_OutputBuffer));    
 793:Drivers/STM32F3xx_HAL_Driver/Src/stm32f3xx_hal_dac_ex.c ****   }
 794:Drivers/STM32F3xx_HAL_Driver/Src/stm32f3xx_hal_dac_ex.c ****   else /* DAC1 channel 2U & DAC2 channel 1U */
 795:Drivers/STM32F3xx_HAL_Driver/Src/stm32f3xx_hal_dac_ex.c ****   {
 796:Drivers/STM32F3xx_HAL_Driver/Src/stm32f3xx_hal_dac_ex.c ****     /* Output Switch (OUTEN) control */
 797:Drivers/STM32F3xx_HAL_Driver/Src/stm32f3xx_hal_dac_ex.c ****     assert_param(IS_DAC_OUTPUT_SWITCH_STATE(sConfig->DAC_OutputSwitch));    
 798:Drivers/STM32F3xx_HAL_Driver/Src/stm32f3xx_hal_dac_ex.c ****   }    
 799:Drivers/STM32F3xx_HAL_Driver/Src/stm32f3xx_hal_dac_ex.c **** #else
 800:Drivers/STM32F3xx_HAL_Driver/Src/stm32f3xx_hal_dac_ex.c ****   assert_param(IS_DAC_OUTPUT_BUFFER_STATE(sConfig->DAC_OutputBuffer));    
 801:Drivers/STM32F3xx_HAL_Driver/Src/stm32f3xx_hal_dac_ex.c **** #endif /* STM32F303x8 || STM32F334x8 || STM32F328xx || */
 802:Drivers/STM32F3xx_HAL_Driver/Src/stm32f3xx_hal_dac_ex.c ****   assert_param(IS_DAC_CHANNEL(Channel));   
 803:Drivers/STM32F3xx_HAL_Driver/Src/stm32f3xx_hal_dac_ex.c ****  
 804:Drivers/STM32F3xx_HAL_Driver/Src/stm32f3xx_hal_dac_ex.c ****   /* Process locked */
 805:Drivers/STM32F3xx_HAL_Driver/Src/stm32f3xx_hal_dac_ex.c ****   __HAL_LOCK(hdac);
 806:Drivers/STM32F3xx_HAL_Driver/Src/stm32f3xx_hal_dac_ex.c ****   
 807:Drivers/STM32F3xx_HAL_Driver/Src/stm32f3xx_hal_dac_ex.c ****   /* Change DAC state */
 808:Drivers/STM32F3xx_HAL_Driver/Src/stm32f3xx_hal_dac_ex.c ****   hdac->State = HAL_DAC_STATE_BUSY;
 809:Drivers/STM32F3xx_HAL_Driver/Src/stm32f3xx_hal_dac_ex.c ****   
 810:Drivers/STM32F3xx_HAL_Driver/Src/stm32f3xx_hal_dac_ex.c ****   /* Get the DAC CR value */
 811:Drivers/STM32F3xx_HAL_Driver/Src/stm32f3xx_hal_dac_ex.c ****   tmpreg1 = hdac->Instance->CR;
 812:Drivers/STM32F3xx_HAL_Driver/Src/stm32f3xx_hal_dac_ex.c ****   
 813:Drivers/STM32F3xx_HAL_Driver/Src/stm32f3xx_hal_dac_ex.c ****   /* Clear BOFFx-OUTENx, TENx, TSELx, WAVEx and MAMPx bits */
 814:Drivers/STM32F3xx_HAL_Driver/Src/stm32f3xx_hal_dac_ex.c ****   
 815:Drivers/STM32F3xx_HAL_Driver/Src/stm32f3xx_hal_dac_ex.c ****   /* Configure for the selected DAC channel: buffer output or switch output, trigger */
 816:Drivers/STM32F3xx_HAL_Driver/Src/stm32f3xx_hal_dac_ex.c ****   /* Set TSELx and TENx bits according to DAC_Trigger value */
 817:Drivers/STM32F3xx_HAL_Driver/Src/stm32f3xx_hal_dac_ex.c ****   /* Set BOFFx bit according to DAC_OutputBuffer value OR */   
 818:Drivers/STM32F3xx_HAL_Driver/Src/stm32f3xx_hal_dac_ex.c ****   /* Set OUTEN bit according to DAC_OutputSwitch value */   
 819:Drivers/STM32F3xx_HAL_Driver/Src/stm32f3xx_hal_dac_ex.c **** #if defined(STM32F303x8) || defined(STM32F334x8) || defined(STM32F328xx)
 820:Drivers/STM32F3xx_HAL_Driver/Src/stm32f3xx_hal_dac_ex.c ****   if ((hdac->Instance == DAC1) && (Channel == DAC_CHANNEL_1)) 
 821:Drivers/STM32F3xx_HAL_Driver/Src/stm32f3xx_hal_dac_ex.c ****   {
 822:Drivers/STM32F3xx_HAL_Driver/Src/stm32f3xx_hal_dac_ex.c ****     /* Output Buffer (BOFF1) control */
 823:Drivers/STM32F3xx_HAL_Driver/Src/stm32f3xx_hal_dac_ex.c ****     tmpreg1 &= ~(((uint32_t)(DAC_CR_MAMP1 | DAC_CR_WAVE1 | DAC_CR_TSEL1 | DAC_CR_TEN1 | DAC_CR_BOFF
 824:Drivers/STM32F3xx_HAL_Driver/Src/stm32f3xx_hal_dac_ex.c ****     tmpreg2 = (sConfig->DAC_Trigger | sConfig->DAC_OutputBuffer);    
 825:Drivers/STM32F3xx_HAL_Driver/Src/stm32f3xx_hal_dac_ex.c ****   }
 826:Drivers/STM32F3xx_HAL_Driver/Src/stm32f3xx_hal_dac_ex.c ****   else /* DAC1 channel 2U & DAC2 channel 1U */
 827:Drivers/STM32F3xx_HAL_Driver/Src/stm32f3xx_hal_dac_ex.c ****   {
 828:Drivers/STM32F3xx_HAL_Driver/Src/stm32f3xx_hal_dac_ex.c ****     /* Output Switch (OUTEN) control */
 829:Drivers/STM32F3xx_HAL_Driver/Src/stm32f3xx_hal_dac_ex.c ****     tmpreg1 &= ~(((uint32_t)(DAC_CR_MAMP1 | DAC_CR_WAVE1 | DAC_CR_TSEL1 | DAC_CR_TEN1 | DAC_CR_OUTE
ARM GAS  /tmp/ccVYEPWf.s 			page 16


 830:Drivers/STM32F3xx_HAL_Driver/Src/stm32f3xx_hal_dac_ex.c ****     tmpreg2 = (sConfig->DAC_Trigger | sConfig->DAC_OutputSwitch);    
 831:Drivers/STM32F3xx_HAL_Driver/Src/stm32f3xx_hal_dac_ex.c ****   }    
 832:Drivers/STM32F3xx_HAL_Driver/Src/stm32f3xx_hal_dac_ex.c **** #else
 833:Drivers/STM32F3xx_HAL_Driver/Src/stm32f3xx_hal_dac_ex.c ****   tmpreg1 &= ~(((uint32_t)(DAC_CR_MAMP1 | DAC_CR_WAVE1 | DAC_CR_TSEL1 | DAC_CR_TEN1 | DAC_CR_BOFF1)
 834:Drivers/STM32F3xx_HAL_Driver/Src/stm32f3xx_hal_dac_ex.c ****   tmpreg2 = (sConfig->DAC_Trigger | sConfig->DAC_OutputBuffer);
 835:Drivers/STM32F3xx_HAL_Driver/Src/stm32f3xx_hal_dac_ex.c **** #endif  /* STM32F303x8 || STM32F334x8 || STM32F328xx || */
 836:Drivers/STM32F3xx_HAL_Driver/Src/stm32f3xx_hal_dac_ex.c ****   
 837:Drivers/STM32F3xx_HAL_Driver/Src/stm32f3xx_hal_dac_ex.c ****   /* Calculate CR register value depending on DAC_Channel */
 838:Drivers/STM32F3xx_HAL_Driver/Src/stm32f3xx_hal_dac_ex.c ****   tmpreg1 |= tmpreg2 << Channel;
 839:Drivers/STM32F3xx_HAL_Driver/Src/stm32f3xx_hal_dac_ex.c ****   /* Write to DAC CR */
 840:Drivers/STM32F3xx_HAL_Driver/Src/stm32f3xx_hal_dac_ex.c ****   hdac->Instance->CR = tmpreg1;
 841:Drivers/STM32F3xx_HAL_Driver/Src/stm32f3xx_hal_dac_ex.c ****   
 842:Drivers/STM32F3xx_HAL_Driver/Src/stm32f3xx_hal_dac_ex.c ****   /* Disable wave generation */
 843:Drivers/STM32F3xx_HAL_Driver/Src/stm32f3xx_hal_dac_ex.c ****   hdac->Instance->CR &= ~(DAC_CR_WAVE1 << Channel);
 844:Drivers/STM32F3xx_HAL_Driver/Src/stm32f3xx_hal_dac_ex.c **** 
 845:Drivers/STM32F3xx_HAL_Driver/Src/stm32f3xx_hal_dac_ex.c ****   /* Change DAC state */
 846:Drivers/STM32F3xx_HAL_Driver/Src/stm32f3xx_hal_dac_ex.c ****   hdac->State = HAL_DAC_STATE_READY;
 847:Drivers/STM32F3xx_HAL_Driver/Src/stm32f3xx_hal_dac_ex.c ****   
 848:Drivers/STM32F3xx_HAL_Driver/Src/stm32f3xx_hal_dac_ex.c ****   /* Process unlocked */
 849:Drivers/STM32F3xx_HAL_Driver/Src/stm32f3xx_hal_dac_ex.c ****   __HAL_UNLOCK(hdac);
 850:Drivers/STM32F3xx_HAL_Driver/Src/stm32f3xx_hal_dac_ex.c ****   
 851:Drivers/STM32F3xx_HAL_Driver/Src/stm32f3xx_hal_dac_ex.c ****   /* Return function status */
 852:Drivers/STM32F3xx_HAL_Driver/Src/stm32f3xx_hal_dac_ex.c ****   return HAL_OK;
 853:Drivers/STM32F3xx_HAL_Driver/Src/stm32f3xx_hal_dac_ex.c **** }
 854:Drivers/STM32F3xx_HAL_Driver/Src/stm32f3xx_hal_dac_ex.c **** 
 855:Drivers/STM32F3xx_HAL_Driver/Src/stm32f3xx_hal_dac_ex.c **** /**
 856:Drivers/STM32F3xx_HAL_Driver/Src/stm32f3xx_hal_dac_ex.c ****   * @brief  Enables or disables the selected DAC channel wave generation.
 857:Drivers/STM32F3xx_HAL_Driver/Src/stm32f3xx_hal_dac_ex.c ****   * @param  hdac: pointer to a DAC_HandleTypeDef structure that contains
 858:Drivers/STM32F3xx_HAL_Driver/Src/stm32f3xx_hal_dac_ex.c ****   *         the configuration information for the specified DAC.
 859:Drivers/STM32F3xx_HAL_Driver/Src/stm32f3xx_hal_dac_ex.c ****   * @param  Channel: The selected DAC channel.
 860:Drivers/STM32F3xx_HAL_Driver/Src/stm32f3xx_hal_dac_ex.c ****   *          This parameter can be one of the following values:
 861:Drivers/STM32F3xx_HAL_Driver/Src/stm32f3xx_hal_dac_ex.c ****   *            @arg DAC_CHANNEL_1: DAC1 Channel1 selected
 862:Drivers/STM32F3xx_HAL_Driver/Src/stm32f3xx_hal_dac_ex.c ****   *            @arg DAC_CHANNEL_2: DAC1 Channel2 selected
 863:Drivers/STM32F3xx_HAL_Driver/Src/stm32f3xx_hal_dac_ex.c ****   * @param  Amplitude: Select max triangle amplitude.
 864:Drivers/STM32F3xx_HAL_Driver/Src/stm32f3xx_hal_dac_ex.c ****   *          This parameter can be one of the following values:
 865:Drivers/STM32F3xx_HAL_Driver/Src/stm32f3xx_hal_dac_ex.c ****   *            @arg DAC_TRIANGLEAMPLITUDE_1: Select max triangle amplitude of 1
 866:Drivers/STM32F3xx_HAL_Driver/Src/stm32f3xx_hal_dac_ex.c ****   *            @arg DAC_TRIANGLEAMPLITUDE_3: Select max triangle amplitude of 3
 867:Drivers/STM32F3xx_HAL_Driver/Src/stm32f3xx_hal_dac_ex.c ****   *            @arg DAC_TRIANGLEAMPLITUDE_7: Select max triangle amplitude of 7
 868:Drivers/STM32F3xx_HAL_Driver/Src/stm32f3xx_hal_dac_ex.c ****   *            @arg DAC_TRIANGLEAMPLITUDE_15: Select max triangle amplitude of 15
 869:Drivers/STM32F3xx_HAL_Driver/Src/stm32f3xx_hal_dac_ex.c ****   *            @arg DAC_TRIANGLEAMPLITUDE_31: Select max triangle amplitude of 31
 870:Drivers/STM32F3xx_HAL_Driver/Src/stm32f3xx_hal_dac_ex.c ****   *            @arg DAC_TRIANGLEAMPLITUDE_63: Select max triangle amplitude of 63
 871:Drivers/STM32F3xx_HAL_Driver/Src/stm32f3xx_hal_dac_ex.c ****   *            @arg DAC_TRIANGLEAMPLITUDE_127: Select max triangle amplitude of 127
 872:Drivers/STM32F3xx_HAL_Driver/Src/stm32f3xx_hal_dac_ex.c ****   *            @arg DAC_TRIANGLEAMPLITUDE_255: Select max triangle amplitude of 255
 873:Drivers/STM32F3xx_HAL_Driver/Src/stm32f3xx_hal_dac_ex.c ****   *            @arg DAC_TRIANGLEAMPLITUDE_511: Select max triangle amplitude of 511
 874:Drivers/STM32F3xx_HAL_Driver/Src/stm32f3xx_hal_dac_ex.c ****   *            @arg DAC_TRIANGLEAMPLITUDE_1023: Select max triangle amplitude of 1023
 875:Drivers/STM32F3xx_HAL_Driver/Src/stm32f3xx_hal_dac_ex.c ****   *            @arg DAC_TRIANGLEAMPLITUDE_2047: Select max triangle amplitude of 2047
 876:Drivers/STM32F3xx_HAL_Driver/Src/stm32f3xx_hal_dac_ex.c ****   *            @arg DAC_TRIANGLEAMPLITUDE_4095: Select max triangle amplitude of 4095
 877:Drivers/STM32F3xx_HAL_Driver/Src/stm32f3xx_hal_dac_ex.c ****   * @note   Wave generation is not available in DAC2.
 878:Drivers/STM32F3xx_HAL_Driver/Src/stm32f3xx_hal_dac_ex.c ****   * @retval HAL status
 879:Drivers/STM32F3xx_HAL_Driver/Src/stm32f3xx_hal_dac_ex.c ****   */
 880:Drivers/STM32F3xx_HAL_Driver/Src/stm32f3xx_hal_dac_ex.c **** HAL_StatusTypeDef HAL_DACEx_TriangleWaveGenerate(DAC_HandleTypeDef* hdac, uint32_t Channel, uint32_
 881:Drivers/STM32F3xx_HAL_Driver/Src/stm32f3xx_hal_dac_ex.c **** {
 882:Drivers/STM32F3xx_HAL_Driver/Src/stm32f3xx_hal_dac_ex.c ****   /* Check the parameters */
 883:Drivers/STM32F3xx_HAL_Driver/Src/stm32f3xx_hal_dac_ex.c ****   assert_param(IS_DAC_CHANNEL(Channel));
 884:Drivers/STM32F3xx_HAL_Driver/Src/stm32f3xx_hal_dac_ex.c ****   assert_param(IS_DAC_LFSR_UNMASK_TRIANGLE_AMPLITUDE(Amplitude));
 885:Drivers/STM32F3xx_HAL_Driver/Src/stm32f3xx_hal_dac_ex.c **** 
 886:Drivers/STM32F3xx_HAL_Driver/Src/stm32f3xx_hal_dac_ex.c ****   /* Process locked */
ARM GAS  /tmp/ccVYEPWf.s 			page 17


 887:Drivers/STM32F3xx_HAL_Driver/Src/stm32f3xx_hal_dac_ex.c ****   __HAL_LOCK(hdac);
 888:Drivers/STM32F3xx_HAL_Driver/Src/stm32f3xx_hal_dac_ex.c **** 
 889:Drivers/STM32F3xx_HAL_Driver/Src/stm32f3xx_hal_dac_ex.c ****   /* Change DAC state */
 890:Drivers/STM32F3xx_HAL_Driver/Src/stm32f3xx_hal_dac_ex.c ****   hdac->State = HAL_DAC_STATE_BUSY;
 891:Drivers/STM32F3xx_HAL_Driver/Src/stm32f3xx_hal_dac_ex.c **** 
 892:Drivers/STM32F3xx_HAL_Driver/Src/stm32f3xx_hal_dac_ex.c ****   /* Enable the selected wave generation for the selected DAC channel */
 893:Drivers/STM32F3xx_HAL_Driver/Src/stm32f3xx_hal_dac_ex.c ****   MODIFY_REG(hdac->Instance->CR, ((DAC_CR_WAVE1)|(DAC_CR_MAMP1))<<Channel, (DAC_CR_WAVE1_1 | Amplit
 894:Drivers/STM32F3xx_HAL_Driver/Src/stm32f3xx_hal_dac_ex.c **** 
 895:Drivers/STM32F3xx_HAL_Driver/Src/stm32f3xx_hal_dac_ex.c ****   /* Change DAC state */
 896:Drivers/STM32F3xx_HAL_Driver/Src/stm32f3xx_hal_dac_ex.c ****   hdac->State = HAL_DAC_STATE_READY;
 897:Drivers/STM32F3xx_HAL_Driver/Src/stm32f3xx_hal_dac_ex.c **** 
 898:Drivers/STM32F3xx_HAL_Driver/Src/stm32f3xx_hal_dac_ex.c ****   /* Process unlocked */
 899:Drivers/STM32F3xx_HAL_Driver/Src/stm32f3xx_hal_dac_ex.c ****   __HAL_UNLOCK(hdac);
 900:Drivers/STM32F3xx_HAL_Driver/Src/stm32f3xx_hal_dac_ex.c **** 
 901:Drivers/STM32F3xx_HAL_Driver/Src/stm32f3xx_hal_dac_ex.c ****   /* Return function status */
 902:Drivers/STM32F3xx_HAL_Driver/Src/stm32f3xx_hal_dac_ex.c ****   return HAL_OK;
 903:Drivers/STM32F3xx_HAL_Driver/Src/stm32f3xx_hal_dac_ex.c **** }
 904:Drivers/STM32F3xx_HAL_Driver/Src/stm32f3xx_hal_dac_ex.c **** 
 905:Drivers/STM32F3xx_HAL_Driver/Src/stm32f3xx_hal_dac_ex.c **** /**
 906:Drivers/STM32F3xx_HAL_Driver/Src/stm32f3xx_hal_dac_ex.c ****   * @brief  Enables or disables the selected DAC channel wave generation.
 907:Drivers/STM32F3xx_HAL_Driver/Src/stm32f3xx_hal_dac_ex.c ****   * @param  hdac: pointer to a DAC_HandleTypeDef structure that contains
 908:Drivers/STM32F3xx_HAL_Driver/Src/stm32f3xx_hal_dac_ex.c ****   *         the configuration information for the specified DAC.
 909:Drivers/STM32F3xx_HAL_Driver/Src/stm32f3xx_hal_dac_ex.c ****   * @param  Channel: The selected DAC channel.
 910:Drivers/STM32F3xx_HAL_Driver/Src/stm32f3xx_hal_dac_ex.c ****   *          This parameter can be one of the following values:
 911:Drivers/STM32F3xx_HAL_Driver/Src/stm32f3xx_hal_dac_ex.c ****   *            @arg DAC_CHANNEL_1: DAC1 Channel1 selected
 912:Drivers/STM32F3xx_HAL_Driver/Src/stm32f3xx_hal_dac_ex.c ****   *            @arg DAC_CHANNEL_2: DAC1 Channel2 selected
 913:Drivers/STM32F3xx_HAL_Driver/Src/stm32f3xx_hal_dac_ex.c ****   * @param  Amplitude: Unmask DAC channel LFSR for noise wave generation.
 914:Drivers/STM32F3xx_HAL_Driver/Src/stm32f3xx_hal_dac_ex.c ****   *          This parameter can be one of the following values:
 915:Drivers/STM32F3xx_HAL_Driver/Src/stm32f3xx_hal_dac_ex.c ****   *            @arg DAC_LFSRUNMASK_BIT0: Unmask DAC channel LFSR bit0 for noise wave generation
 916:Drivers/STM32F3xx_HAL_Driver/Src/stm32f3xx_hal_dac_ex.c ****   *            @arg DAC_LFSRUNMASK_BITS1_0: Unmask DAC channel LFSR bit[1:0] for noise wave generat
 917:Drivers/STM32F3xx_HAL_Driver/Src/stm32f3xx_hal_dac_ex.c ****   *            @arg DAC_LFSRUNMASK_BITS2_0: Unmask DAC channel LFSR bit[2:0] for noise wave generat
 918:Drivers/STM32F3xx_HAL_Driver/Src/stm32f3xx_hal_dac_ex.c ****   *            @arg DAC_LFSRUNMASK_BITS3_0: Unmask DAC channel LFSR bit[3:0] for noise wave generat
 919:Drivers/STM32F3xx_HAL_Driver/Src/stm32f3xx_hal_dac_ex.c ****   *            @arg DAC_LFSRUNMASK_BITS4_0: Unmask DAC channel LFSR bit[4:0] for noise wave generat
 920:Drivers/STM32F3xx_HAL_Driver/Src/stm32f3xx_hal_dac_ex.c ****   *            @arg DAC_LFSRUNMASK_BITS5_0: Unmask DAC channel LFSR bit[5:0] for noise wave generat
 921:Drivers/STM32F3xx_HAL_Driver/Src/stm32f3xx_hal_dac_ex.c ****   *            @arg DAC_LFSRUNMASK_BITS6_0: Unmask DAC channel LFSR bit[6:0] for noise wave generat
 922:Drivers/STM32F3xx_HAL_Driver/Src/stm32f3xx_hal_dac_ex.c ****   *            @arg DAC_LFSRUNMASK_BITS7_0: Unmask DAC channel LFSR bit[7:0] for noise wave generat
 923:Drivers/STM32F3xx_HAL_Driver/Src/stm32f3xx_hal_dac_ex.c ****   *            @arg DAC_LFSRUNMASK_BITS8_0: Unmask DAC channel LFSR bit[8:0] for noise wave generat
 924:Drivers/STM32F3xx_HAL_Driver/Src/stm32f3xx_hal_dac_ex.c ****   *            @arg DAC_LFSRUNMASK_BITS9_0: Unmask DAC channel LFSR bit[9:0] for noise wave generat
 925:Drivers/STM32F3xx_HAL_Driver/Src/stm32f3xx_hal_dac_ex.c ****   *            @arg DAC_LFSRUNMASK_BITS10_0: Unmask DAC channel LFSR bit[10:0] for noise wave gener
 926:Drivers/STM32F3xx_HAL_Driver/Src/stm32f3xx_hal_dac_ex.c ****   *            @arg DAC_LFSRUNMASK_BITS11_0: Unmask DAC channel LFSR bit[11:0] for noise wave gener
 927:Drivers/STM32F3xx_HAL_Driver/Src/stm32f3xx_hal_dac_ex.c ****   * @retval HAL status
 928:Drivers/STM32F3xx_HAL_Driver/Src/stm32f3xx_hal_dac_ex.c ****   */
 929:Drivers/STM32F3xx_HAL_Driver/Src/stm32f3xx_hal_dac_ex.c **** HAL_StatusTypeDef HAL_DACEx_NoiseWaveGenerate(DAC_HandleTypeDef* hdac, uint32_t Channel, uint32_t A
 930:Drivers/STM32F3xx_HAL_Driver/Src/stm32f3xx_hal_dac_ex.c **** {
 931:Drivers/STM32F3xx_HAL_Driver/Src/stm32f3xx_hal_dac_ex.c ****   /* Check the parameters */
 932:Drivers/STM32F3xx_HAL_Driver/Src/stm32f3xx_hal_dac_ex.c ****   assert_param(IS_DAC_CHANNEL(Channel));
 933:Drivers/STM32F3xx_HAL_Driver/Src/stm32f3xx_hal_dac_ex.c ****   assert_param(IS_DAC_LFSR_UNMASK_TRIANGLE_AMPLITUDE(Amplitude));
 934:Drivers/STM32F3xx_HAL_Driver/Src/stm32f3xx_hal_dac_ex.c **** 
 935:Drivers/STM32F3xx_HAL_Driver/Src/stm32f3xx_hal_dac_ex.c ****   /* Process locked */
 936:Drivers/STM32F3xx_HAL_Driver/Src/stm32f3xx_hal_dac_ex.c ****   __HAL_LOCK(hdac);
 937:Drivers/STM32F3xx_HAL_Driver/Src/stm32f3xx_hal_dac_ex.c **** 
 938:Drivers/STM32F3xx_HAL_Driver/Src/stm32f3xx_hal_dac_ex.c ****   /* Change DAC state */
 939:Drivers/STM32F3xx_HAL_Driver/Src/stm32f3xx_hal_dac_ex.c ****   hdac->State = HAL_DAC_STATE_BUSY;
 940:Drivers/STM32F3xx_HAL_Driver/Src/stm32f3xx_hal_dac_ex.c **** 
 941:Drivers/STM32F3xx_HAL_Driver/Src/stm32f3xx_hal_dac_ex.c ****   /* Enable the selected wave generation for the selected DAC channel */
 942:Drivers/STM32F3xx_HAL_Driver/Src/stm32f3xx_hal_dac_ex.c ****   MODIFY_REG(hdac->Instance->CR, ((DAC_CR_WAVE1)|(DAC_CR_MAMP1))<<Channel, (DAC_CR_WAVE1_0 | Amplit
 943:Drivers/STM32F3xx_HAL_Driver/Src/stm32f3xx_hal_dac_ex.c ****   
ARM GAS  /tmp/ccVYEPWf.s 			page 18


 944:Drivers/STM32F3xx_HAL_Driver/Src/stm32f3xx_hal_dac_ex.c ****   /* Change DAC state */
 945:Drivers/STM32F3xx_HAL_Driver/Src/stm32f3xx_hal_dac_ex.c ****   hdac->State = HAL_DAC_STATE_READY;
 946:Drivers/STM32F3xx_HAL_Driver/Src/stm32f3xx_hal_dac_ex.c **** 
 947:Drivers/STM32F3xx_HAL_Driver/Src/stm32f3xx_hal_dac_ex.c ****   /* Process unlocked */
 948:Drivers/STM32F3xx_HAL_Driver/Src/stm32f3xx_hal_dac_ex.c ****   __HAL_UNLOCK(hdac);
 949:Drivers/STM32F3xx_HAL_Driver/Src/stm32f3xx_hal_dac_ex.c **** 
 950:Drivers/STM32F3xx_HAL_Driver/Src/stm32f3xx_hal_dac_ex.c ****   /* Return function status */
 951:Drivers/STM32F3xx_HAL_Driver/Src/stm32f3xx_hal_dac_ex.c ****   return HAL_OK;
 952:Drivers/STM32F3xx_HAL_Driver/Src/stm32f3xx_hal_dac_ex.c **** }
 953:Drivers/STM32F3xx_HAL_Driver/Src/stm32f3xx_hal_dac_ex.c **** 
 954:Drivers/STM32F3xx_HAL_Driver/Src/stm32f3xx_hal_dac_ex.c **** #if  defined(STM32F303xE) || defined(STM32F398xx)                         || \
 955:Drivers/STM32F3xx_HAL_Driver/Src/stm32f3xx_hal_dac_ex.c ****      defined(STM32F303xC) || defined(STM32F358xx)                         || \
 956:Drivers/STM32F3xx_HAL_Driver/Src/stm32f3xx_hal_dac_ex.c ****      defined(STM32F303x8) || defined(STM32F334x8) || defined(STM32F328xx) || \
 957:Drivers/STM32F3xx_HAL_Driver/Src/stm32f3xx_hal_dac_ex.c ****      defined(STM32F373xC) || defined(STM32F378xx)
 958:Drivers/STM32F3xx_HAL_Driver/Src/stm32f3xx_hal_dac_ex.c **** /* DAC channel 2 is available on top of DAC channel 1U */
 959:Drivers/STM32F3xx_HAL_Driver/Src/stm32f3xx_hal_dac_ex.c **** /**
 960:Drivers/STM32F3xx_HAL_Driver/Src/stm32f3xx_hal_dac_ex.c ****   * @brief  Conversion complete callback in non blocking mode for Channel2
 961:Drivers/STM32F3xx_HAL_Driver/Src/stm32f3xx_hal_dac_ex.c ****   * @param  hdac: pointer to a DAC_HandleTypeDef structure that contains
 962:Drivers/STM32F3xx_HAL_Driver/Src/stm32f3xx_hal_dac_ex.c ****   *         the configuration information for the specified DAC.
 963:Drivers/STM32F3xx_HAL_Driver/Src/stm32f3xx_hal_dac_ex.c ****   * @retval None
 964:Drivers/STM32F3xx_HAL_Driver/Src/stm32f3xx_hal_dac_ex.c ****   */
 965:Drivers/STM32F3xx_HAL_Driver/Src/stm32f3xx_hal_dac_ex.c **** __weak void HAL_DACEx_ConvCpltCallbackCh2(DAC_HandleTypeDef* hdac)
 966:Drivers/STM32F3xx_HAL_Driver/Src/stm32f3xx_hal_dac_ex.c **** {
 967:Drivers/STM32F3xx_HAL_Driver/Src/stm32f3xx_hal_dac_ex.c ****   /* Prevent unused argument(s) compilation warning */
 968:Drivers/STM32F3xx_HAL_Driver/Src/stm32f3xx_hal_dac_ex.c ****   UNUSED(hdac);
 969:Drivers/STM32F3xx_HAL_Driver/Src/stm32f3xx_hal_dac_ex.c **** 
 970:Drivers/STM32F3xx_HAL_Driver/Src/stm32f3xx_hal_dac_ex.c ****   /* NOTE : This function Should not be modified, when the callback is needed,
 971:Drivers/STM32F3xx_HAL_Driver/Src/stm32f3xx_hal_dac_ex.c ****             the HAL_DACEx_ConvCpltCallbackCh2 could be implemented in the user file
 972:Drivers/STM32F3xx_HAL_Driver/Src/stm32f3xx_hal_dac_ex.c ****    */
 973:Drivers/STM32F3xx_HAL_Driver/Src/stm32f3xx_hal_dac_ex.c **** }
 974:Drivers/STM32F3xx_HAL_Driver/Src/stm32f3xx_hal_dac_ex.c **** 
 975:Drivers/STM32F3xx_HAL_Driver/Src/stm32f3xx_hal_dac_ex.c **** /**
 976:Drivers/STM32F3xx_HAL_Driver/Src/stm32f3xx_hal_dac_ex.c ****   * @brief  Conversion half DMA transfer callback in non blocking mode for Channel2
 977:Drivers/STM32F3xx_HAL_Driver/Src/stm32f3xx_hal_dac_ex.c ****   * @param  hdac: pointer to a DAC_HandleTypeDef structure that contains
 978:Drivers/STM32F3xx_HAL_Driver/Src/stm32f3xx_hal_dac_ex.c ****   *         the configuration information for the specified DAC.
 979:Drivers/STM32F3xx_HAL_Driver/Src/stm32f3xx_hal_dac_ex.c ****   * @retval None
 980:Drivers/STM32F3xx_HAL_Driver/Src/stm32f3xx_hal_dac_ex.c ****   */
 981:Drivers/STM32F3xx_HAL_Driver/Src/stm32f3xx_hal_dac_ex.c **** __weak void HAL_DACEx_ConvHalfCpltCallbackCh2(DAC_HandleTypeDef* hdac)
 982:Drivers/STM32F3xx_HAL_Driver/Src/stm32f3xx_hal_dac_ex.c **** {
 983:Drivers/STM32F3xx_HAL_Driver/Src/stm32f3xx_hal_dac_ex.c ****   /* Prevent unused argument(s) compilation warning */
 984:Drivers/STM32F3xx_HAL_Driver/Src/stm32f3xx_hal_dac_ex.c ****   UNUSED(hdac);
 985:Drivers/STM32F3xx_HAL_Driver/Src/stm32f3xx_hal_dac_ex.c **** 
 986:Drivers/STM32F3xx_HAL_Driver/Src/stm32f3xx_hal_dac_ex.c ****   /* NOTE : This function Should not be modified, when the callback is needed,
 987:Drivers/STM32F3xx_HAL_Driver/Src/stm32f3xx_hal_dac_ex.c ****             the HAL_DACEx_ConvHalfCpltCallbackCh2 could be implemented in the user file
 988:Drivers/STM32F3xx_HAL_Driver/Src/stm32f3xx_hal_dac_ex.c ****    */
 989:Drivers/STM32F3xx_HAL_Driver/Src/stm32f3xx_hal_dac_ex.c **** }
 990:Drivers/STM32F3xx_HAL_Driver/Src/stm32f3xx_hal_dac_ex.c **** 
 991:Drivers/STM32F3xx_HAL_Driver/Src/stm32f3xx_hal_dac_ex.c **** /**
 992:Drivers/STM32F3xx_HAL_Driver/Src/stm32f3xx_hal_dac_ex.c ****   * @brief  Error DAC callback for Channel2.
 993:Drivers/STM32F3xx_HAL_Driver/Src/stm32f3xx_hal_dac_ex.c ****   * @param  hdac: pointer to a DAC_HandleTypeDef structure that contains
 994:Drivers/STM32F3xx_HAL_Driver/Src/stm32f3xx_hal_dac_ex.c ****   *         the configuration information for the specified DAC.
 995:Drivers/STM32F3xx_HAL_Driver/Src/stm32f3xx_hal_dac_ex.c ****   * @retval None
 996:Drivers/STM32F3xx_HAL_Driver/Src/stm32f3xx_hal_dac_ex.c ****   */
 997:Drivers/STM32F3xx_HAL_Driver/Src/stm32f3xx_hal_dac_ex.c **** __weak void HAL_DACEx_ErrorCallbackCh2(DAC_HandleTypeDef *hdac)
 998:Drivers/STM32F3xx_HAL_Driver/Src/stm32f3xx_hal_dac_ex.c **** {
 999:Drivers/STM32F3xx_HAL_Driver/Src/stm32f3xx_hal_dac_ex.c ****   /* Prevent unused argument(s) compilation warning */
1000:Drivers/STM32F3xx_HAL_Driver/Src/stm32f3xx_hal_dac_ex.c ****   UNUSED(hdac);
ARM GAS  /tmp/ccVYEPWf.s 			page 19


1001:Drivers/STM32F3xx_HAL_Driver/Src/stm32f3xx_hal_dac_ex.c **** 
1002:Drivers/STM32F3xx_HAL_Driver/Src/stm32f3xx_hal_dac_ex.c ****   /* NOTE : This function Should not be modified, when the callback is needed,
1003:Drivers/STM32F3xx_HAL_Driver/Src/stm32f3xx_hal_dac_ex.c ****             the HAL_DACEx_ErrorCallbackCh2 could be implemented in the user file
1004:Drivers/STM32F3xx_HAL_Driver/Src/stm32f3xx_hal_dac_ex.c ****    */
1005:Drivers/STM32F3xx_HAL_Driver/Src/stm32f3xx_hal_dac_ex.c **** }
1006:Drivers/STM32F3xx_HAL_Driver/Src/stm32f3xx_hal_dac_ex.c **** 
1007:Drivers/STM32F3xx_HAL_Driver/Src/stm32f3xx_hal_dac_ex.c **** /**
1008:Drivers/STM32F3xx_HAL_Driver/Src/stm32f3xx_hal_dac_ex.c ****   * @brief  DMA underrun DAC callback for channel2.
1009:Drivers/STM32F3xx_HAL_Driver/Src/stm32f3xx_hal_dac_ex.c ****   * @param  hdac: pointer to a DAC_HandleTypeDef structure that contains
1010:Drivers/STM32F3xx_HAL_Driver/Src/stm32f3xx_hal_dac_ex.c ****   *         the configuration information for the specified DAC.
1011:Drivers/STM32F3xx_HAL_Driver/Src/stm32f3xx_hal_dac_ex.c ****   * @retval None
1012:Drivers/STM32F3xx_HAL_Driver/Src/stm32f3xx_hal_dac_ex.c ****   */
1013:Drivers/STM32F3xx_HAL_Driver/Src/stm32f3xx_hal_dac_ex.c **** __weak void HAL_DACEx_DMAUnderrunCallbackCh2(DAC_HandleTypeDef *hdac)
1014:Drivers/STM32F3xx_HAL_Driver/Src/stm32f3xx_hal_dac_ex.c **** {
1015:Drivers/STM32F3xx_HAL_Driver/Src/stm32f3xx_hal_dac_ex.c ****   /* Prevent unused argument(s) compilation warning */
1016:Drivers/STM32F3xx_HAL_Driver/Src/stm32f3xx_hal_dac_ex.c ****   UNUSED(hdac);
1017:Drivers/STM32F3xx_HAL_Driver/Src/stm32f3xx_hal_dac_ex.c **** 
1018:Drivers/STM32F3xx_HAL_Driver/Src/stm32f3xx_hal_dac_ex.c ****   /* NOTE : This function Should not be modified, when the callback is needed,
1019:Drivers/STM32F3xx_HAL_Driver/Src/stm32f3xx_hal_dac_ex.c ****             the HAL_DACEx_DMAUnderrunCallbackCh2 could be implemented in the user file
1020:Drivers/STM32F3xx_HAL_Driver/Src/stm32f3xx_hal_dac_ex.c ****    */
1021:Drivers/STM32F3xx_HAL_Driver/Src/stm32f3xx_hal_dac_ex.c **** }
1022:Drivers/STM32F3xx_HAL_Driver/Src/stm32f3xx_hal_dac_ex.c **** #endif /* STM32F303xE || STM32F398xx                || */
1023:Drivers/STM32F3xx_HAL_Driver/Src/stm32f3xx_hal_dac_ex.c ****        /* STM32F303xC || STM32F358xx                || */
1024:Drivers/STM32F3xx_HAL_Driver/Src/stm32f3xx_hal_dac_ex.c ****        /* STM32F303x8 || STM32F334x8 || STM32F328xx || */
1025:Drivers/STM32F3xx_HAL_Driver/Src/stm32f3xx_hal_dac_ex.c ****        /* STM32F373xC || STM32F378xx                   */
1026:Drivers/STM32F3xx_HAL_Driver/Src/stm32f3xx_hal_dac_ex.c **** /**
1027:Drivers/STM32F3xx_HAL_Driver/Src/stm32f3xx_hal_dac_ex.c ****   * @}
1028:Drivers/STM32F3xx_HAL_Driver/Src/stm32f3xx_hal_dac_ex.c ****   */
1029:Drivers/STM32F3xx_HAL_Driver/Src/stm32f3xx_hal_dac_ex.c **** 
1030:Drivers/STM32F3xx_HAL_Driver/Src/stm32f3xx_hal_dac_ex.c **** /**
1031:Drivers/STM32F3xx_HAL_Driver/Src/stm32f3xx_hal_dac_ex.c ****   * @}
1032:Drivers/STM32F3xx_HAL_Driver/Src/stm32f3xx_hal_dac_ex.c ****   */
1033:Drivers/STM32F3xx_HAL_Driver/Src/stm32f3xx_hal_dac_ex.c **** 
1034:Drivers/STM32F3xx_HAL_Driver/Src/stm32f3xx_hal_dac_ex.c **** /**
1035:Drivers/STM32F3xx_HAL_Driver/Src/stm32f3xx_hal_dac_ex.c ****   * @}
1036:Drivers/STM32F3xx_HAL_Driver/Src/stm32f3xx_hal_dac_ex.c ****   */
1037:Drivers/STM32F3xx_HAL_Driver/Src/stm32f3xx_hal_dac_ex.c **** 
1038:Drivers/STM32F3xx_HAL_Driver/Src/stm32f3xx_hal_dac_ex.c **** /** @addtogroup DACEx_Private_Functions
1039:Drivers/STM32F3xx_HAL_Driver/Src/stm32f3xx_hal_dac_ex.c ****   * @{
1040:Drivers/STM32F3xx_HAL_Driver/Src/stm32f3xx_hal_dac_ex.c ****   */
1041:Drivers/STM32F3xx_HAL_Driver/Src/stm32f3xx_hal_dac_ex.c ****   
1042:Drivers/STM32F3xx_HAL_Driver/Src/stm32f3xx_hal_dac_ex.c **** /**
1043:Drivers/STM32F3xx_HAL_Driver/Src/stm32f3xx_hal_dac_ex.c ****   * @brief  DMA conversion complete callback. 
1044:Drivers/STM32F3xx_HAL_Driver/Src/stm32f3xx_hal_dac_ex.c ****   * @param  hdma: pointer to DMA handle.
1045:Drivers/STM32F3xx_HAL_Driver/Src/stm32f3xx_hal_dac_ex.c ****   * @retval None
1046:Drivers/STM32F3xx_HAL_Driver/Src/stm32f3xx_hal_dac_ex.c ****   */
1047:Drivers/STM32F3xx_HAL_Driver/Src/stm32f3xx_hal_dac_ex.c **** static void DAC_DMAConvCpltCh1(DMA_HandleTypeDef *hdma)   
1048:Drivers/STM32F3xx_HAL_Driver/Src/stm32f3xx_hal_dac_ex.c **** {
1049:Drivers/STM32F3xx_HAL_Driver/Src/stm32f3xx_hal_dac_ex.c ****   DAC_HandleTypeDef* hdac = ( DAC_HandleTypeDef* )((DMA_HandleTypeDef* )hdma)->Parent;
1050:Drivers/STM32F3xx_HAL_Driver/Src/stm32f3xx_hal_dac_ex.c ****   
1051:Drivers/STM32F3xx_HAL_Driver/Src/stm32f3xx_hal_dac_ex.c ****   HAL_DAC_ConvCpltCallbackCh1(hdac); 
1052:Drivers/STM32F3xx_HAL_Driver/Src/stm32f3xx_hal_dac_ex.c ****   
1053:Drivers/STM32F3xx_HAL_Driver/Src/stm32f3xx_hal_dac_ex.c ****   hdac->State= HAL_DAC_STATE_READY;
1054:Drivers/STM32F3xx_HAL_Driver/Src/stm32f3xx_hal_dac_ex.c **** }
1055:Drivers/STM32F3xx_HAL_Driver/Src/stm32f3xx_hal_dac_ex.c **** 
1056:Drivers/STM32F3xx_HAL_Driver/Src/stm32f3xx_hal_dac_ex.c **** /**
1057:Drivers/STM32F3xx_HAL_Driver/Src/stm32f3xx_hal_dac_ex.c ****   * @brief  DMA half transfer complete callback. 
ARM GAS  /tmp/ccVYEPWf.s 			page 20


1058:Drivers/STM32F3xx_HAL_Driver/Src/stm32f3xx_hal_dac_ex.c ****   * @param  hdma: pointer to DMA handle.
1059:Drivers/STM32F3xx_HAL_Driver/Src/stm32f3xx_hal_dac_ex.c ****   * @retval None
1060:Drivers/STM32F3xx_HAL_Driver/Src/stm32f3xx_hal_dac_ex.c ****   */
1061:Drivers/STM32F3xx_HAL_Driver/Src/stm32f3xx_hal_dac_ex.c **** static void DAC_DMAHalfConvCpltCh1(DMA_HandleTypeDef *hdma)   
1062:Drivers/STM32F3xx_HAL_Driver/Src/stm32f3xx_hal_dac_ex.c **** {
1063:Drivers/STM32F3xx_HAL_Driver/Src/stm32f3xx_hal_dac_ex.c ****     DAC_HandleTypeDef* hdac = ( DAC_HandleTypeDef* )((DMA_HandleTypeDef* )hdma)->Parent;
1064:Drivers/STM32F3xx_HAL_Driver/Src/stm32f3xx_hal_dac_ex.c ****     /* Conversion complete callback */
1065:Drivers/STM32F3xx_HAL_Driver/Src/stm32f3xx_hal_dac_ex.c ****     HAL_DAC_ConvHalfCpltCallbackCh1(hdac); 
1066:Drivers/STM32F3xx_HAL_Driver/Src/stm32f3xx_hal_dac_ex.c **** }
1067:Drivers/STM32F3xx_HAL_Driver/Src/stm32f3xx_hal_dac_ex.c **** 
1068:Drivers/STM32F3xx_HAL_Driver/Src/stm32f3xx_hal_dac_ex.c **** /**
1069:Drivers/STM32F3xx_HAL_Driver/Src/stm32f3xx_hal_dac_ex.c ****   * @brief  DMA error callback 
1070:Drivers/STM32F3xx_HAL_Driver/Src/stm32f3xx_hal_dac_ex.c ****   * @param  hdma: pointer to DMA handle.
1071:Drivers/STM32F3xx_HAL_Driver/Src/stm32f3xx_hal_dac_ex.c ****   * @retval None
1072:Drivers/STM32F3xx_HAL_Driver/Src/stm32f3xx_hal_dac_ex.c ****   */
1073:Drivers/STM32F3xx_HAL_Driver/Src/stm32f3xx_hal_dac_ex.c **** static void DAC_DMAErrorCh1(DMA_HandleTypeDef *hdma)   
1074:Drivers/STM32F3xx_HAL_Driver/Src/stm32f3xx_hal_dac_ex.c **** {
  28              		.loc 1 1074 0
  29              		.cfi_startproc
  30              		@ args = 0, pretend = 0, frame = 0
  31              		@ frame_needed = 0, uses_anonymous_args = 0
  32              	.LVL0:
  33 0000 10B5     		push	{r4, lr}
  34              	.LCFI0:
  35              		.cfi_def_cfa_offset 8
  36              		.cfi_offset 4, -8
  37              		.cfi_offset 14, -4
1075:Drivers/STM32F3xx_HAL_Driver/Src/stm32f3xx_hal_dac_ex.c ****   DAC_HandleTypeDef* hdac = ( DAC_HandleTypeDef* )((DMA_HandleTypeDef* )hdma)->Parent;
  38              		.loc 1 1075 0
  39 0002 446A     		ldr	r4, [r0, #36]
  40              	.LVL1:
1076:Drivers/STM32F3xx_HAL_Driver/Src/stm32f3xx_hal_dac_ex.c ****     
1077:Drivers/STM32F3xx_HAL_Driver/Src/stm32f3xx_hal_dac_ex.c ****   /* Set DAC error code to DMA error */
1078:Drivers/STM32F3xx_HAL_Driver/Src/stm32f3xx_hal_dac_ex.c ****   hdac->ErrorCode |= HAL_DAC_ERROR_DMA;
  41              		.loc 1 1078 0
  42 0004 2369     		ldr	r3, [r4, #16]
  43 0006 43F00403 		orr	r3, r3, #4
  44 000a 2361     		str	r3, [r4, #16]
1079:Drivers/STM32F3xx_HAL_Driver/Src/stm32f3xx_hal_dac_ex.c ****     
1080:Drivers/STM32F3xx_HAL_Driver/Src/stm32f3xx_hal_dac_ex.c ****   HAL_DAC_ErrorCallbackCh1(hdac); 
  45              		.loc 1 1080 0
  46 000c 2046     		mov	r0, r4
  47              	.LVL2:
  48 000e FFF7FEFF 		bl	HAL_DAC_ErrorCallbackCh1
  49              	.LVL3:
1081:Drivers/STM32F3xx_HAL_Driver/Src/stm32f3xx_hal_dac_ex.c ****     
1082:Drivers/STM32F3xx_HAL_Driver/Src/stm32f3xx_hal_dac_ex.c ****   hdac->State= HAL_DAC_STATE_READY;
  50              		.loc 1 1082 0
  51 0012 0123     		movs	r3, #1
  52 0014 2371     		strb	r3, [r4, #4]
  53 0016 10BD     		pop	{r4, pc}
  54              		.cfi_endproc
  55              	.LFE139:
  57              		.section	.text.DAC_DMAHalfConvCpltCh1,"ax",%progbits
  58              		.align	2
  59              		.thumb
  60              		.thumb_func
ARM GAS  /tmp/ccVYEPWf.s 			page 21


  62              	DAC_DMAHalfConvCpltCh1:
  63              	.LFB138:
1062:Drivers/STM32F3xx_HAL_Driver/Src/stm32f3xx_hal_dac_ex.c **** {
  64              		.loc 1 1062 0
  65              		.cfi_startproc
  66              		@ args = 0, pretend = 0, frame = 0
  67              		@ frame_needed = 0, uses_anonymous_args = 0
  68              	.LVL4:
  69 0000 08B5     		push	{r3, lr}
  70              	.LCFI1:
  71              		.cfi_def_cfa_offset 8
  72              		.cfi_offset 3, -8
  73              		.cfi_offset 14, -4
  74              	.LVL5:
1065:Drivers/STM32F3xx_HAL_Driver/Src/stm32f3xx_hal_dac_ex.c ****     HAL_DAC_ConvHalfCpltCallbackCh1(hdac); 
  75              		.loc 1 1065 0
  76 0002 406A     		ldr	r0, [r0, #36]
  77              	.LVL6:
  78 0004 FFF7FEFF 		bl	HAL_DAC_ConvHalfCpltCallbackCh1
  79              	.LVL7:
  80 0008 08BD     		pop	{r3, pc}
  81              		.cfi_endproc
  82              	.LFE138:
  84 000a 00BF     		.section	.text.DAC_DMAConvCpltCh1,"ax",%progbits
  85              		.align	2
  86              		.thumb
  87              		.thumb_func
  89              	DAC_DMAConvCpltCh1:
  90              	.LFB137:
1048:Drivers/STM32F3xx_HAL_Driver/Src/stm32f3xx_hal_dac_ex.c **** {
  91              		.loc 1 1048 0
  92              		.cfi_startproc
  93              		@ args = 0, pretend = 0, frame = 0
  94              		@ frame_needed = 0, uses_anonymous_args = 0
  95              	.LVL8:
  96 0000 10B5     		push	{r4, lr}
  97              	.LCFI2:
  98              		.cfi_def_cfa_offset 8
  99              		.cfi_offset 4, -8
 100              		.cfi_offset 14, -4
1049:Drivers/STM32F3xx_HAL_Driver/Src/stm32f3xx_hal_dac_ex.c ****   DAC_HandleTypeDef* hdac = ( DAC_HandleTypeDef* )((DMA_HandleTypeDef* )hdma)->Parent;
 101              		.loc 1 1049 0
 102 0002 446A     		ldr	r4, [r0, #36]
 103              	.LVL9:
1051:Drivers/STM32F3xx_HAL_Driver/Src/stm32f3xx_hal_dac_ex.c ****   HAL_DAC_ConvCpltCallbackCh1(hdac); 
 104              		.loc 1 1051 0
 105 0004 2046     		mov	r0, r4
 106              	.LVL10:
 107 0006 FFF7FEFF 		bl	HAL_DAC_ConvCpltCallbackCh1
 108              	.LVL11:
1053:Drivers/STM32F3xx_HAL_Driver/Src/stm32f3xx_hal_dac_ex.c ****   hdac->State= HAL_DAC_STATE_READY;
 109              		.loc 1 1053 0
 110 000a 0123     		movs	r3, #1
 111 000c 2371     		strb	r3, [r4, #4]
 112 000e 10BD     		pop	{r4, pc}
 113              		.cfi_endproc
 114              	.LFE137:
ARM GAS  /tmp/ccVYEPWf.s 			page 22


 116              		.section	.text.HAL_DAC_SetValue,"ax",%progbits
 117              		.align	2
 118              		.global	HAL_DAC_SetValue
 119              		.thumb
 120              		.thumb_func
 122              	HAL_DAC_SetValue:
 123              	.LFB123:
 131:Drivers/STM32F3xx_HAL_Driver/Src/stm32f3xx_hal_dac_ex.c **** {  
 124              		.loc 1 131 0
 125              		.cfi_startproc
 126              		@ args = 0, pretend = 0, frame = 8
 127              		@ frame_needed = 0, uses_anonymous_args = 0
 128              		@ link register save eliminated.
 129              	.LVL12:
 130 0000 10B4     		push	{r4}
 131              	.LCFI3:
 132              		.cfi_def_cfa_offset 4
 133              		.cfi_offset 4, -4
 134 0002 83B0     		sub	sp, sp, #12
 135              	.LCFI4:
 136              		.cfi_def_cfa_offset 16
 132:Drivers/STM32F3xx_HAL_Driver/Src/stm32f3xx_hal_dac_ex.c ****   __IO uint32_t tmp = 0U;
 137              		.loc 1 132 0
 138 0004 0024     		movs	r4, #0
 139 0006 0194     		str	r4, [sp, #4]
 139:Drivers/STM32F3xx_HAL_Driver/Src/stm32f3xx_hal_dac_ex.c ****   tmp = (uint32_t) (hdac->Instance);
 140              		.loc 1 139 0
 141 0008 0068     		ldr	r0, [r0]
 142              	.LVL13:
 143 000a 0190     		str	r0, [sp, #4]
 144:Drivers/STM32F3xx_HAL_Driver/Src/stm32f3xx_hal_dac_ex.c ****   if(Channel == DAC_CHANNEL_1)
 144              		.loc 1 144 0
 145 000c 21B9     		cbnz	r1, .L5
 146:Drivers/STM32F3xx_HAL_Driver/Src/stm32f3xx_hal_dac_ex.c ****     tmp += DAC_DHR12R1_ALIGNMENT(Alignment);
 146              		.loc 1 146 0
 147 000e 0199     		ldr	r1, [sp, #4]
 148              	.LVL14:
 149 0010 0A44     		add	r2, r2, r1
 150              	.LVL15:
 151 0012 0832     		adds	r2, r2, #8
 152 0014 0192     		str	r2, [sp, #4]
 153 0016 03E0     		b	.L6
 154              	.LVL16:
 155              	.L5:
 154:Drivers/STM32F3xx_HAL_Driver/Src/stm32f3xx_hal_dac_ex.c ****     tmp += DAC_DHR12R2_ALIGNMENT(Alignment);
 156              		.loc 1 154 0
 157 0018 0199     		ldr	r1, [sp, #4]
 158              	.LVL17:
 159 001a 0A44     		add	r2, r2, r1
 160              	.LVL18:
 161 001c 1432     		adds	r2, r2, #20
 162 001e 0192     		str	r2, [sp, #4]
 163              	.L6:
 162:Drivers/STM32F3xx_HAL_Driver/Src/stm32f3xx_hal_dac_ex.c ****   *(__IO uint32_t *) tmp = Data;
 164              		.loc 1 162 0
 165 0020 019A     		ldr	r2, [sp, #4]
 166 0022 1360     		str	r3, [r2]
ARM GAS  /tmp/ccVYEPWf.s 			page 23


 166:Drivers/STM32F3xx_HAL_Driver/Src/stm32f3xx_hal_dac_ex.c **** }
 167              		.loc 1 166 0
 168 0024 0020     		movs	r0, #0
 169 0026 03B0     		add	sp, sp, #12
 170              		@ sp needed
 171 0028 5DF8044B 		ldr	r4, [sp], #4
 172 002c 7047     		bx	lr
 173              		.cfi_endproc
 174              	.LFE123:
 176 002e 00BF     		.section	.text.HAL_DACEx_DualSetValue,"ax",%progbits
 177              		.align	2
 178              		.global	HAL_DACEx_DualSetValue
 179              		.thumb
 180              		.thumb_func
 182              	HAL_DACEx_DualSetValue:
 183              	.LFB124:
 189:Drivers/STM32F3xx_HAL_Driver/Src/stm32f3xx_hal_dac_ex.c **** {
 184              		.loc 1 189 0
 185              		.cfi_startproc
 186              		@ args = 0, pretend = 0, frame = 0
 187              		@ frame_needed = 0, uses_anonymous_args = 0
 188              		@ link register save eliminated.
 189              	.LVL19:
 198:Drivers/STM32F3xx_HAL_Driver/Src/stm32f3xx_hal_dac_ex.c ****   if (Alignment == DAC_ALIGN_8B_R)
 190              		.loc 1 198 0
 191 0000 0829     		cmp	r1, #8
 192 0002 02D1     		bne	.L8
 200:Drivers/STM32F3xx_HAL_Driver/Src/stm32f3xx_hal_dac_ex.c ****     data = ((uint32_t)Data2 << 8U) | Data1;
 193              		.loc 1 200 0
 194 0004 42EA0322 		orr	r2, r2, r3, lsl #8
 195              	.LVL20:
 196 0008 01E0     		b	.L9
 197              	.LVL21:
 198              	.L8:
 204:Drivers/STM32F3xx_HAL_Driver/Src/stm32f3xx_hal_dac_ex.c ****     data = ((uint32_t)Data2 << 16U) | Data1;
 199              		.loc 1 204 0
 200 000a 42EA0342 		orr	r2, r2, r3, lsl #16
 201              	.LVL22:
 202              	.L9:
 207:Drivers/STM32F3xx_HAL_Driver/Src/stm32f3xx_hal_dac_ex.c ****     tmp = (uint32_t) (hdac->Instance);
 203              		.loc 1 207 0
 204 000e 0068     		ldr	r0, [r0]
 205              	.LVL23:
 208:Drivers/STM32F3xx_HAL_Driver/Src/stm32f3xx_hal_dac_ex.c ****     tmp += DAC_DHR12RD_ALIGNMENT(Alignment);
 206              		.loc 1 208 0
 207 0010 0144     		add	r1, r1, r0
 208              	.LVL24:
 211:Drivers/STM32F3xx_HAL_Driver/Src/stm32f3xx_hal_dac_ex.c ****   *(__IO uint32_t *)tmp = data;
 209              		.loc 1 211 0
 210 0012 0A62     		str	r2, [r1, #32]
 215:Drivers/STM32F3xx_HAL_Driver/Src/stm32f3xx_hal_dac_ex.c **** }
 211              		.loc 1 215 0
 212 0014 0020     		movs	r0, #0
 213 0016 7047     		bx	lr
 214              		.cfi_endproc
 215              	.LFE124:
 217              		.section	.text.HAL_DAC_Start,"ax",%progbits
ARM GAS  /tmp/ccVYEPWf.s 			page 24


 218              		.align	2
 219              		.global	HAL_DAC_Start
 220              		.thumb
 221              		.thumb_func
 223              	HAL_DAC_Start:
 224              	.LFB125:
 261:Drivers/STM32F3xx_HAL_Driver/Src/stm32f3xx_hal_dac_ex.c **** {
 225              		.loc 1 261 0
 226              		.cfi_startproc
 227              		@ args = 0, pretend = 0, frame = 0
 228              		@ frame_needed = 0, uses_anonymous_args = 0
 229              		@ link register save eliminated.
 230              	.LVL25:
 231 0000 10B4     		push	{r4}
 232              	.LCFI5:
 233              		.cfi_def_cfa_offset 4
 234              		.cfi_offset 4, -4
 266:Drivers/STM32F3xx_HAL_Driver/Src/stm32f3xx_hal_dac_ex.c ****   __HAL_LOCK(hdac);
 235              		.loc 1 266 0
 236 0002 4379     		ldrb	r3, [r0, #5]	@ zero_extendqisi2
 237 0004 012B     		cmp	r3, #1
 238 0006 25D0     		beq	.L14
 266:Drivers/STM32F3xx_HAL_Driver/Src/stm32f3xx_hal_dac_ex.c ****   __HAL_LOCK(hdac);
 239              		.loc 1 266 0 is_stmt 0 discriminator 2
 240 0008 0122     		movs	r2, #1
 241 000a 4271     		strb	r2, [r0, #5]
 269:Drivers/STM32F3xx_HAL_Driver/Src/stm32f3xx_hal_dac_ex.c ****   hdac->State = HAL_DAC_STATE_BUSY;
 242              		.loc 1 269 0 is_stmt 1 discriminator 2
 243 000c 0223     		movs	r3, #2
 244 000e 0371     		strb	r3, [r0, #4]
 272:Drivers/STM32F3xx_HAL_Driver/Src/stm32f3xx_hal_dac_ex.c ****   __HAL_DAC_ENABLE(hdac, Channel);
 245              		.loc 1 272 0 discriminator 2
 246 0010 0368     		ldr	r3, [r0]
 247 0012 1C68     		ldr	r4, [r3]
 248 0014 8A40     		lsls	r2, r2, r1
 249 0016 2243     		orrs	r2, r2, r4
 250 0018 1A60     		str	r2, [r3]
 274:Drivers/STM32F3xx_HAL_Driver/Src/stm32f3xx_hal_dac_ex.c ****   if(Channel == DAC_CHANNEL_1)
 251              		.loc 1 274 0 discriminator 2
 252 001a 51B9     		cbnz	r1, .L12
 277:Drivers/STM32F3xx_HAL_Driver/Src/stm32f3xx_hal_dac_ex.c ****     if((hdac->Instance->CR & (DAC_CR_TEN1 | DAC_CR_TSEL1)) == (DAC_CR_TEN1 | DAC_CR_TSEL1))
 253              		.loc 1 277 0
 254 001c 0368     		ldr	r3, [r0]
 255 001e 1A68     		ldr	r2, [r3]
 256 0020 02F03C02 		and	r2, r2, #60
 257 0024 3C2A     		cmp	r2, #60
 258 0026 0FD1     		bne	.L13
 280:Drivers/STM32F3xx_HAL_Driver/Src/stm32f3xx_hal_dac_ex.c ****       SET_BIT(hdac->Instance->SWTRIGR, DAC_SWTRIGR_SWTRIG1);
 259              		.loc 1 280 0
 260 0028 5A68     		ldr	r2, [r3, #4]
 261 002a 42F00102 		orr	r2, r2, #1
 262 002e 5A60     		str	r2, [r3, #4]
 263 0030 0AE0     		b	.L13
 264              	.L12:
 286:Drivers/STM32F3xx_HAL_Driver/Src/stm32f3xx_hal_dac_ex.c ****     if((hdac->Instance->CR & (DAC_CR_TEN2 | DAC_CR_TSEL2)) == (DAC_CR_TEN2 | DAC_CR_TSEL2))
 265              		.loc 1 286 0
 266 0032 0368     		ldr	r3, [r0]
ARM GAS  /tmp/ccVYEPWf.s 			page 25


 267 0034 1A68     		ldr	r2, [r3]
 268 0036 02F47012 		and	r2, r2, #3932160
 269 003a B2F5701F 		cmp	r2, #3932160
 270 003e 03D1     		bne	.L13
 289:Drivers/STM32F3xx_HAL_Driver/Src/stm32f3xx_hal_dac_ex.c ****       SET_BIT(hdac->Instance->SWTRIGR, DAC_SWTRIGR_SWTRIG2);
 271              		.loc 1 289 0
 272 0040 5A68     		ldr	r2, [r3, #4]
 273 0042 42F00202 		orr	r2, r2, #2
 274 0046 5A60     		str	r2, [r3, #4]
 275              	.L13:
 294:Drivers/STM32F3xx_HAL_Driver/Src/stm32f3xx_hal_dac_ex.c ****   hdac->State = HAL_DAC_STATE_READY;
 276              		.loc 1 294 0
 277 0048 0123     		movs	r3, #1
 278 004a 0371     		strb	r3, [r0, #4]
 297:Drivers/STM32F3xx_HAL_Driver/Src/stm32f3xx_hal_dac_ex.c ****   __HAL_UNLOCK(hdac);
 279              		.loc 1 297 0
 280 004c 0023     		movs	r3, #0
 281 004e 4371     		strb	r3, [r0, #5]
 300:Drivers/STM32F3xx_HAL_Driver/Src/stm32f3xx_hal_dac_ex.c ****   return HAL_OK;
 282              		.loc 1 300 0
 283 0050 1846     		mov	r0, r3
 284              	.LVL26:
 285 0052 00E0     		b	.L11
 286              	.LVL27:
 287              	.L14:
 266:Drivers/STM32F3xx_HAL_Driver/Src/stm32f3xx_hal_dac_ex.c ****   __HAL_LOCK(hdac);
 288              		.loc 1 266 0
 289 0054 0220     		movs	r0, #2
 290              	.LVL28:
 291              	.L11:
 301:Drivers/STM32F3xx_HAL_Driver/Src/stm32f3xx_hal_dac_ex.c **** }
 292              		.loc 1 301 0
 293 0056 5DF8044B 		ldr	r4, [sp], #4
 294 005a 7047     		bx	lr
 295              		.cfi_endproc
 296              	.LFE125:
 298              		.section	.text.HAL_DAC_Start_DMA,"ax",%progbits
 299              		.align	2
 300              		.global	HAL_DAC_Start_DMA
 301              		.thumb
 302              		.thumb_func
 304              	HAL_DAC_Start_DMA:
 305              	.LFB126:
 379:Drivers/STM32F3xx_HAL_Driver/Src/stm32f3xx_hal_dac_ex.c **** {
 306              		.loc 1 379 0
 307              		.cfi_startproc
 308              		@ args = 4, pretend = 0, frame = 0
 309              		@ frame_needed = 0, uses_anonymous_args = 0
 310              	.LVL29:
 311 0000 70B5     		push	{r4, r5, r6, lr}
 312              	.LCFI6:
 313              		.cfi_def_cfa_offset 16
 314              		.cfi_offset 4, -16
 315              		.cfi_offset 5, -12
 316              		.cfi_offset 6, -8
 317              		.cfi_offset 14, -4
 318 0002 0446     		mov	r4, r0
ARM GAS  /tmp/ccVYEPWf.s 			page 26


 319 0004 0D46     		mov	r5, r1
 320 0006 1146     		mov	r1, r2
 321              	.LVL30:
 322 0008 0498     		ldr	r0, [sp, #16]
 323              	.LVL31:
 387:Drivers/STM32F3xx_HAL_Driver/Src/stm32f3xx_hal_dac_ex.c ****   __HAL_LOCK(hdac);
 324              		.loc 1 387 0
 325 000a 6679     		ldrb	r6, [r4, #5]	@ zero_extendqisi2
 326 000c 012E     		cmp	r6, #1
 327 000e 5BD0     		beq	.L27
 387:Drivers/STM32F3xx_HAL_Driver/Src/stm32f3xx_hal_dac_ex.c ****   __HAL_LOCK(hdac);
 328              		.loc 1 387 0 is_stmt 0 discriminator 2
 329 0010 0122     		movs	r2, #1
 330              	.LVL32:
 331 0012 6271     		strb	r2, [r4, #5]
 390:Drivers/STM32F3xx_HAL_Driver/Src/stm32f3xx_hal_dac_ex.c ****   hdac->State = HAL_DAC_STATE_BUSY;
 332              		.loc 1 390 0 is_stmt 1 discriminator 2
 333 0014 0222     		movs	r2, #2
 334 0016 2271     		strb	r2, [r4, #4]
 392:Drivers/STM32F3xx_HAL_Driver/Src/stm32f3xx_hal_dac_ex.c ****   if(Channel == DAC_CHANNEL_1)
 335              		.loc 1 392 0 discriminator 2
 336 0018 DDB9     		cbnz	r5, .L17
 395:Drivers/STM32F3xx_HAL_Driver/Src/stm32f3xx_hal_dac_ex.c ****     hdac->DMA_Handle1->XferCpltCallback = DAC_DMAConvCpltCh1;
 337              		.loc 1 395 0
 338 001a A268     		ldr	r2, [r4, #8]
 339 001c 2B4E     		ldr	r6, .L32
 340 001e 9662     		str	r6, [r2, #40]
 398:Drivers/STM32F3xx_HAL_Driver/Src/stm32f3xx_hal_dac_ex.c ****     hdac->DMA_Handle1->XferHalfCpltCallback = DAC_DMAHalfConvCpltCh1;
 341              		.loc 1 398 0
 342 0020 A268     		ldr	r2, [r4, #8]
 343 0022 2B4E     		ldr	r6, .L32+4
 344 0024 D662     		str	r6, [r2, #44]
 401:Drivers/STM32F3xx_HAL_Driver/Src/stm32f3xx_hal_dac_ex.c ****     hdac->DMA_Handle1->XferErrorCallback = DAC_DMAErrorCh1;
 345              		.loc 1 401 0
 346 0026 A268     		ldr	r2, [r4, #8]
 347 0028 2A4E     		ldr	r6, .L32+8
 348 002a 1663     		str	r6, [r2, #48]
 404:Drivers/STM32F3xx_HAL_Driver/Src/stm32f3xx_hal_dac_ex.c ****     SET_BIT(hdac->Instance->CR, DAC_CR_DMAEN1);   
 349              		.loc 1 404 0
 350 002c 2268     		ldr	r2, [r4]
 351 002e 1668     		ldr	r6, [r2]
 352 0030 46F48056 		orr	r6, r6, #4096
 353 0034 1660     		str	r6, [r2]
 407:Drivers/STM32F3xx_HAL_Driver/Src/stm32f3xx_hal_dac_ex.c ****     switch(Alignment)
 354              		.loc 1 407 0
 355 0036 0428     		cmp	r0, #4
 356 0038 05D0     		beq	.L19
 357 003a 0828     		cmp	r0, #8
 358 003c 06D0     		beq	.L20
 359 003e 20BB     		cbnz	r0, .L30
 411:Drivers/STM32F3xx_HAL_Driver/Src/stm32f3xx_hal_dac_ex.c ****         tmpreg = (uint32_t)&hdac->Instance->DHR12R1;
 360              		.loc 1 411 0
 361 0040 2268     		ldr	r2, [r4]
 362 0042 0832     		adds	r2, r2, #8
 363              	.LVL33:
 412:Drivers/STM32F3xx_HAL_Driver/Src/stm32f3xx_hal_dac_ex.c ****         break;
 364              		.loc 1 412 0
ARM GAS  /tmp/ccVYEPWf.s 			page 27


 365 0044 24E0     		b	.L18
 366              	.LVL34:
 367              	.L19:
 415:Drivers/STM32F3xx_HAL_Driver/Src/stm32f3xx_hal_dac_ex.c ****         tmpreg = (uint32_t)&hdac->Instance->DHR12L1;
 368              		.loc 1 415 0
 369 0046 2268     		ldr	r2, [r4]
 370 0048 0C32     		adds	r2, r2, #12
 371              	.LVL35:
 416:Drivers/STM32F3xx_HAL_Driver/Src/stm32f3xx_hal_dac_ex.c ****         break;
 372              		.loc 1 416 0
 373 004a 21E0     		b	.L18
 374              	.LVL36:
 375              	.L20:
 419:Drivers/STM32F3xx_HAL_Driver/Src/stm32f3xx_hal_dac_ex.c ****         tmpreg = (uint32_t)&hdac->Instance->DHR8R1;
 376              		.loc 1 419 0
 377 004c 2268     		ldr	r2, [r4]
 378 004e 1032     		adds	r2, r2, #16
 379              	.LVL37:
 420:Drivers/STM32F3xx_HAL_Driver/Src/stm32f3xx_hal_dac_ex.c ****         break;
 380              		.loc 1 420 0
 381 0050 1EE0     		b	.L18
 382              	.LVL38:
 383              	.L17:
 428:Drivers/STM32F3xx_HAL_Driver/Src/stm32f3xx_hal_dac_ex.c ****     hdac->DMA_Handle2->XferCpltCallback = DAC_DMAConvCpltCh2;
 384              		.loc 1 428 0
 385 0052 E268     		ldr	r2, [r4, #12]
 386 0054 204E     		ldr	r6, .L32+12
 387 0056 9662     		str	r6, [r2, #40]
 431:Drivers/STM32F3xx_HAL_Driver/Src/stm32f3xx_hal_dac_ex.c ****     hdac->DMA_Handle2->XferHalfCpltCallback = DAC_DMAHalfConvCpltCh2;
 388              		.loc 1 431 0
 389 0058 E268     		ldr	r2, [r4, #12]
 390 005a 204E     		ldr	r6, .L32+16
 391 005c D662     		str	r6, [r2, #44]
 434:Drivers/STM32F3xx_HAL_Driver/Src/stm32f3xx_hal_dac_ex.c ****     hdac->DMA_Handle2->XferErrorCallback = DAC_DMAErrorCh2;
 392              		.loc 1 434 0
 393 005e E268     		ldr	r2, [r4, #12]
 394 0060 1F4E     		ldr	r6, .L32+20
 395 0062 1663     		str	r6, [r2, #48]
 437:Drivers/STM32F3xx_HAL_Driver/Src/stm32f3xx_hal_dac_ex.c ****     SET_BIT(hdac->Instance->CR, DAC_CR_DMAEN2); 
 396              		.loc 1 437 0
 397 0064 2268     		ldr	r2, [r4]
 398 0066 1668     		ldr	r6, [r2]
 399 0068 46F08056 		orr	r6, r6, #268435456
 400 006c 1660     		str	r6, [r2]
 440:Drivers/STM32F3xx_HAL_Driver/Src/stm32f3xx_hal_dac_ex.c ****     switch(Alignment)
 401              		.loc 1 440 0
 402 006e 0428     		cmp	r0, #4
 403 0070 05D0     		beq	.L22
 404 0072 0828     		cmp	r0, #8
 405 0074 06D0     		beq	.L23
 406 0076 50B9     		cbnz	r0, .L31
 444:Drivers/STM32F3xx_HAL_Driver/Src/stm32f3xx_hal_dac_ex.c ****         tmpreg = (uint32_t)&hdac->Instance->DHR12R2;
 407              		.loc 1 444 0
 408 0078 2268     		ldr	r2, [r4]
 409 007a 1432     		adds	r2, r2, #20
 410              	.LVL39:
 445:Drivers/STM32F3xx_HAL_Driver/Src/stm32f3xx_hal_dac_ex.c ****         break;
ARM GAS  /tmp/ccVYEPWf.s 			page 28


 411              		.loc 1 445 0
 412 007c 08E0     		b	.L18
 413              	.LVL40:
 414              	.L22:
 448:Drivers/STM32F3xx_HAL_Driver/Src/stm32f3xx_hal_dac_ex.c ****         tmpreg = (uint32_t)&hdac->Instance->DHR12L2;
 415              		.loc 1 448 0
 416 007e 2268     		ldr	r2, [r4]
 417 0080 1832     		adds	r2, r2, #24
 418              	.LVL41:
 449:Drivers/STM32F3xx_HAL_Driver/Src/stm32f3xx_hal_dac_ex.c ****         break;
 419              		.loc 1 449 0
 420 0082 05E0     		b	.L18
 421              	.LVL42:
 422              	.L23:
 452:Drivers/STM32F3xx_HAL_Driver/Src/stm32f3xx_hal_dac_ex.c ****         tmpreg = (uint32_t)&hdac->Instance->DHR8R2;
 423              		.loc 1 452 0
 424 0084 2268     		ldr	r2, [r4]
 425 0086 1C32     		adds	r2, r2, #28
 426              	.LVL43:
 453:Drivers/STM32F3xx_HAL_Driver/Src/stm32f3xx_hal_dac_ex.c ****         break;
 427              		.loc 1 453 0
 428 0088 02E0     		b	.L18
 429              	.LVL44:
 430              	.L30:
 380:Drivers/STM32F3xx_HAL_Driver/Src/stm32f3xx_hal_dac_ex.c ****   uint32_t tmpreg = 0U;
 431              		.loc 1 380 0
 432 008a 0022     		movs	r2, #0
 433 008c 00E0     		b	.L18
 434              	.L31:
 435 008e 0022     		movs	r2, #0
 436              	.LVL45:
 437              	.L18:
 460:Drivers/STM32F3xx_HAL_Driver/Src/stm32f3xx_hal_dac_ex.c ****   if(Channel == DAC_CHANNEL_1)
 438              		.loc 1 460 0
 439 0090 45B9     		cbnz	r5, .L25
 463:Drivers/STM32F3xx_HAL_Driver/Src/stm32f3xx_hal_dac_ex.c ****     __HAL_DAC_ENABLE_IT(hdac, DAC_IT_DMAUDR1);
 440              		.loc 1 463 0
 441 0092 2068     		ldr	r0, [r4]
 442 0094 0668     		ldr	r6, [r0]
 443 0096 46F40056 		orr	r6, r6, #8192
 444 009a 0660     		str	r6, [r0]
 466:Drivers/STM32F3xx_HAL_Driver/Src/stm32f3xx_hal_dac_ex.c ****     HAL_DMA_Start_IT(hdac->DMA_Handle1, (uint32_t)pData, tmpreg, Length);
 445              		.loc 1 466 0
 446 009c A068     		ldr	r0, [r4, #8]
 447 009e FFF7FEFF 		bl	HAL_DMA_Start_IT
 448              	.LVL46:
 449 00a2 07E0     		b	.L26
 450              	.LVL47:
 451              	.L25:
 471:Drivers/STM32F3xx_HAL_Driver/Src/stm32f3xx_hal_dac_ex.c ****     __HAL_DAC_ENABLE_IT(hdac, DAC_IT_DMAUDR2);
 452              		.loc 1 471 0
 453 00a4 2068     		ldr	r0, [r4]
 454 00a6 0668     		ldr	r6, [r0]
 455 00a8 46F00056 		orr	r6, r6, #536870912
 456 00ac 0660     		str	r6, [r0]
 474:Drivers/STM32F3xx_HAL_Driver/Src/stm32f3xx_hal_dac_ex.c ****     HAL_DMA_Start_IT(hdac->DMA_Handle2, (uint32_t)pData, tmpreg, Length);
 457              		.loc 1 474 0
ARM GAS  /tmp/ccVYEPWf.s 			page 29


 458 00ae E068     		ldr	r0, [r4, #12]
 459 00b0 FFF7FEFF 		bl	HAL_DMA_Start_IT
 460              	.LVL48:
 461              	.L26:
 478:Drivers/STM32F3xx_HAL_Driver/Src/stm32f3xx_hal_dac_ex.c ****   __HAL_UNLOCK(hdac);
 462              		.loc 1 478 0
 463 00b4 0020     		movs	r0, #0
 464 00b6 6071     		strb	r0, [r4, #5]
 481:Drivers/STM32F3xx_HAL_Driver/Src/stm32f3xx_hal_dac_ex.c ****   __HAL_DAC_ENABLE(hdac, Channel);
 465              		.loc 1 481 0
 466 00b8 2368     		ldr	r3, [r4]
 467 00ba 1A68     		ldr	r2, [r3]
 468 00bc 0121     		movs	r1, #1
 469 00be 01FA05F5 		lsl	r5, r1, r5
 470              	.LVL49:
 471 00c2 1543     		orrs	r5, r5, r2
 472 00c4 1D60     		str	r5, [r3]
 484:Drivers/STM32F3xx_HAL_Driver/Src/stm32f3xx_hal_dac_ex.c ****   return HAL_OK;
 473              		.loc 1 484 0
 474 00c6 70BD     		pop	{r4, r5, r6, pc}
 475              	.LVL50:
 476              	.L27:
 387:Drivers/STM32F3xx_HAL_Driver/Src/stm32f3xx_hal_dac_ex.c ****   __HAL_LOCK(hdac);
 477              		.loc 1 387 0
 478 00c8 0220     		movs	r0, #2
 485:Drivers/STM32F3xx_HAL_Driver/Src/stm32f3xx_hal_dac_ex.c **** }
 479              		.loc 1 485 0
 480 00ca 70BD     		pop	{r4, r5, r6, pc}
 481              	.LVL51:
 482              	.L33:
 483              		.align	2
 484              	.L32:
 485 00cc 00000000 		.word	DAC_DMAConvCpltCh1
 486 00d0 00000000 		.word	DAC_DMAHalfConvCpltCh1
 487 00d4 00000000 		.word	DAC_DMAErrorCh1
 488 00d8 00000000 		.word	DAC_DMAConvCpltCh2
 489 00dc 00000000 		.word	DAC_DMAHalfConvCpltCh2
 490 00e0 00000000 		.word	DAC_DMAErrorCh2
 491              		.cfi_endproc
 492              	.LFE126:
 494              		.section	.text.HAL_DAC_GetValue,"ax",%progbits
 495              		.align	2
 496              		.global	HAL_DAC_GetValue
 497              		.thumb
 498              		.thumb_func
 500              	HAL_DAC_GetValue:
 501              	.LFB127:
 593:Drivers/STM32F3xx_HAL_Driver/Src/stm32f3xx_hal_dac_ex.c **** {
 502              		.loc 1 593 0
 503              		.cfi_startproc
 504              		@ args = 0, pretend = 0, frame = 0
 505              		@ frame_needed = 0, uses_anonymous_args = 0
 506              		@ link register save eliminated.
 507              	.LVL52:
 598:Drivers/STM32F3xx_HAL_Driver/Src/stm32f3xx_hal_dac_ex.c ****   if(Channel == DAC_CHANNEL_1) 
 508              		.loc 1 598 0
 509 0000 11B9     		cbnz	r1, .L35
ARM GAS  /tmp/ccVYEPWf.s 			page 30


 600:Drivers/STM32F3xx_HAL_Driver/Src/stm32f3xx_hal_dac_ex.c ****     return hdac->Instance->DOR1;
 510              		.loc 1 600 0
 511 0002 0368     		ldr	r3, [r0]
 512 0004 D86A     		ldr	r0, [r3, #44]
 513              	.LVL53:
 514 0006 7047     		bx	lr
 515              	.LVL54:
 516              	.L35:
 604:Drivers/STM32F3xx_HAL_Driver/Src/stm32f3xx_hal_dac_ex.c ****     return hdac->Instance->DOR2;
 517              		.loc 1 604 0
 518 0008 0368     		ldr	r3, [r0]
 519 000a 186B     		ldr	r0, [r3, #48]
 520              	.LVL55:
 606:Drivers/STM32F3xx_HAL_Driver/Src/stm32f3xx_hal_dac_ex.c **** }
 521              		.loc 1 606 0
 522 000c 7047     		bx	lr
 523              		.cfi_endproc
 524              	.LFE127:
 526 000e 00BF     		.section	.text.HAL_DACEx_DualGetValue,"ax",%progbits
 527              		.align	2
 528              		.global	HAL_DACEx_DualGetValue
 529              		.thumb
 530              		.thumb_func
 532              	HAL_DACEx_DualGetValue:
 533              	.LFB128:
 644:Drivers/STM32F3xx_HAL_Driver/Src/stm32f3xx_hal_dac_ex.c **** {
 534              		.loc 1 644 0
 535              		.cfi_startproc
 536              		@ args = 0, pretend = 0, frame = 0
 537              		@ frame_needed = 0, uses_anonymous_args = 0
 538              		@ link register save eliminated.
 539              	.LVL56:
 647:Drivers/STM32F3xx_HAL_Driver/Src/stm32f3xx_hal_dac_ex.c ****   tmp |= hdac->Instance->DOR1;
 540              		.loc 1 647 0
 541 0000 0368     		ldr	r3, [r0]
 542 0002 DA6A     		ldr	r2, [r3, #44]
 543              	.LVL57:
 654:Drivers/STM32F3xx_HAL_Driver/Src/stm32f3xx_hal_dac_ex.c ****   tmp |= hdac->Instance->DOR2 << 16U;
 544              		.loc 1 654 0
 545 0004 186B     		ldr	r0, [r3, #48]
 546              	.LVL58:
 662:Drivers/STM32F3xx_HAL_Driver/Src/stm32f3xx_hal_dac_ex.c **** }
 547              		.loc 1 662 0
 548 0006 42EA0040 		orr	r0, r2, r0, lsl #16
 549              	.LVL59:
 550 000a 7047     		bx	lr
 551              		.cfi_endproc
 552              	.LFE128:
 554              		.section	.text.HAL_DAC_ConfigChannel,"ax",%progbits
 555              		.align	2
 556              		.global	HAL_DAC_ConfigChannel
 557              		.thumb
 558              		.thumb_func
 560              	HAL_DAC_ConfigChannel:
 561              	.LFB130:
 782:Drivers/STM32F3xx_HAL_Driver/Src/stm32f3xx_hal_dac_ex.c **** {
 562              		.loc 1 782 0
ARM GAS  /tmp/ccVYEPWf.s 			page 31


 563              		.cfi_startproc
 564              		@ args = 0, pretend = 0, frame = 0
 565              		@ frame_needed = 0, uses_anonymous_args = 0
 566              		@ link register save eliminated.
 567              	.LVL60:
 568 0000 70B4     		push	{r4, r5, r6}
 569              	.LCFI7:
 570              		.cfi_def_cfa_offset 12
 571              		.cfi_offset 4, -12
 572              		.cfi_offset 5, -8
 573              		.cfi_offset 6, -4
 574              	.LVL61:
 805:Drivers/STM32F3xx_HAL_Driver/Src/stm32f3xx_hal_dac_ex.c ****   __HAL_LOCK(hdac);
 575              		.loc 1 805 0
 576 0002 4379     		ldrb	r3, [r0, #5]	@ zero_extendqisi2
 577 0004 012B     		cmp	r3, #1
 578 0006 2CD0     		beq	.L42
 805:Drivers/STM32F3xx_HAL_Driver/Src/stm32f3xx_hal_dac_ex.c ****   __HAL_LOCK(hdac);
 579              		.loc 1 805 0 is_stmt 0 discriminator 2
 580 0008 0123     		movs	r3, #1
 581 000a 4371     		strb	r3, [r0, #5]
 808:Drivers/STM32F3xx_HAL_Driver/Src/stm32f3xx_hal_dac_ex.c ****   hdac->State = HAL_DAC_STATE_BUSY;
 582              		.loc 1 808 0 is_stmt 1 discriminator 2
 583 000c 0223     		movs	r3, #2
 584 000e 0371     		strb	r3, [r0, #4]
 811:Drivers/STM32F3xx_HAL_Driver/Src/stm32f3xx_hal_dac_ex.c ****   tmpreg1 = hdac->Instance->CR;
 585              		.loc 1 811 0 discriminator 2
 586 0010 0368     		ldr	r3, [r0]
 587 0012 1E68     		ldr	r6, [r3]
 588              	.LVL62:
 820:Drivers/STM32F3xx_HAL_Driver/Src/stm32f3xx_hal_dac_ex.c ****   if ((hdac->Instance == DAC1) && (Channel == DAC_CHANNEL_1)) 
 589              		.loc 1 820 0 discriminator 2
 590 0014 144C     		ldr	r4, .L43
 591 0016 A342     		cmp	r3, r4
 592 0018 09D1     		bne	.L40
 820:Drivers/STM32F3xx_HAL_Driver/Src/stm32f3xx_hal_dac_ex.c ****   if ((hdac->Instance == DAC1) && (Channel == DAC_CHANNEL_1)) 
 593              		.loc 1 820 0 is_stmt 0 discriminator 1
 594 001a 42B9     		cbnz	r2, .L40
 823:Drivers/STM32F3xx_HAL_Driver/Src/stm32f3xx_hal_dac_ex.c ****     tmpreg1 &= ~(((uint32_t)(DAC_CR_MAMP1 | DAC_CR_WAVE1 | DAC_CR_TSEL1 | DAC_CR_TEN1 | DAC_CR_BOFF
 595              		.loc 1 823 0 is_stmt 1
 596 001c 40F6FE75 		movw	r5, #4094
 597 0020 9540     		lsls	r5, r5, r2
 598 0022 26EA0505 		bic	r5, r6, r5
 599              	.LVL63:
 824:Drivers/STM32F3xx_HAL_Driver/Src/stm32f3xx_hal_dac_ex.c ****     tmpreg2 = (sConfig->DAC_Trigger | sConfig->DAC_OutputBuffer);    
 600              		.loc 1 824 0
 601 0026 0C68     		ldr	r4, [r1]
 602 0028 4968     		ldr	r1, [r1, #4]
 603              	.LVL64:
 604 002a 0C43     		orrs	r4, r4, r1
 605              	.LVL65:
 606 002c 07E0     		b	.L41
 607              	.LVL66:
 608              	.L40:
 829:Drivers/STM32F3xx_HAL_Driver/Src/stm32f3xx_hal_dac_ex.c ****     tmpreg1 &= ~(((uint32_t)(DAC_CR_MAMP1 | DAC_CR_WAVE1 | DAC_CR_TSEL1 | DAC_CR_TEN1 | DAC_CR_OUTE
 609              		.loc 1 829 0
 610 002e 40F6FE75 		movw	r5, #4094
ARM GAS  /tmp/ccVYEPWf.s 			page 32


 611 0032 9540     		lsls	r5, r5, r2
 612 0034 26EA0505 		bic	r5, r6, r5
 613              	.LVL67:
 830:Drivers/STM32F3xx_HAL_Driver/Src/stm32f3xx_hal_dac_ex.c ****     tmpreg2 = (sConfig->DAC_Trigger | sConfig->DAC_OutputSwitch);    
 614              		.loc 1 830 0
 615 0038 0C68     		ldr	r4, [r1]
 616 003a 8968     		ldr	r1, [r1, #8]
 617              	.LVL68:
 618 003c 0C43     		orrs	r4, r4, r1
 619              	.LVL69:
 620              	.L41:
 838:Drivers/STM32F3xx_HAL_Driver/Src/stm32f3xx_hal_dac_ex.c ****   tmpreg1 |= tmpreg2 << Channel;
 621              		.loc 1 838 0
 622 003e 9440     		lsls	r4, r4, r2
 623              	.LVL70:
 624 0040 44EA0501 		orr	r1, r4, r5
 625              	.LVL71:
 840:Drivers/STM32F3xx_HAL_Driver/Src/stm32f3xx_hal_dac_ex.c ****   hdac->Instance->CR = tmpreg1;
 626              		.loc 1 840 0
 627 0044 1960     		str	r1, [r3]
 843:Drivers/STM32F3xx_HAL_Driver/Src/stm32f3xx_hal_dac_ex.c ****   hdac->Instance->CR &= ~(DAC_CR_WAVE1 << Channel);
 628              		.loc 1 843 0
 629 0046 0368     		ldr	r3, [r0]
 630 0048 1968     		ldr	r1, [r3]
 631              	.LVL72:
 632 004a C024     		movs	r4, #192
 633              	.LVL73:
 634 004c 04FA02F2 		lsl	r2, r4, r2
 635              	.LVL74:
 636 0050 21EA0202 		bic	r2, r1, r2
 637 0054 1A60     		str	r2, [r3]
 846:Drivers/STM32F3xx_HAL_Driver/Src/stm32f3xx_hal_dac_ex.c ****   hdac->State = HAL_DAC_STATE_READY;
 638              		.loc 1 846 0
 639 0056 0123     		movs	r3, #1
 640 0058 0371     		strb	r3, [r0, #4]
 849:Drivers/STM32F3xx_HAL_Driver/Src/stm32f3xx_hal_dac_ex.c ****   __HAL_UNLOCK(hdac);
 641              		.loc 1 849 0
 642 005a 0023     		movs	r3, #0
 643 005c 4371     		strb	r3, [r0, #5]
 852:Drivers/STM32F3xx_HAL_Driver/Src/stm32f3xx_hal_dac_ex.c ****   return HAL_OK;
 644              		.loc 1 852 0
 645 005e 1846     		mov	r0, r3
 646              	.LVL75:
 647 0060 00E0     		b	.L39
 648              	.LVL76:
 649              	.L42:
 805:Drivers/STM32F3xx_HAL_Driver/Src/stm32f3xx_hal_dac_ex.c ****   __HAL_LOCK(hdac);
 650              		.loc 1 805 0
 651 0062 0220     		movs	r0, #2
 652              	.LVL77:
 653              	.L39:
 853:Drivers/STM32F3xx_HAL_Driver/Src/stm32f3xx_hal_dac_ex.c **** }
 654              		.loc 1 853 0
 655 0064 70BC     		pop	{r4, r5, r6}
 656 0066 7047     		bx	lr
 657              	.L44:
 658              		.align	2
ARM GAS  /tmp/ccVYEPWf.s 			page 33


 659              	.L43:
 660 0068 00740040 		.word	1073771520
 661              		.cfi_endproc
 662              	.LFE130:
 664              		.section	.text.HAL_DACEx_TriangleWaveGenerate,"ax",%progbits
 665              		.align	2
 666              		.global	HAL_DACEx_TriangleWaveGenerate
 667              		.thumb
 668              		.thumb_func
 670              	HAL_DACEx_TriangleWaveGenerate:
 671              	.LFB131:
 881:Drivers/STM32F3xx_HAL_Driver/Src/stm32f3xx_hal_dac_ex.c **** {
 672              		.loc 1 881 0
 673              		.cfi_startproc
 674              		@ args = 0, pretend = 0, frame = 0
 675              		@ frame_needed = 0, uses_anonymous_args = 0
 676              		@ link register save eliminated.
 677              	.LVL78:
 678 0000 70B4     		push	{r4, r5, r6}
 679              	.LCFI8:
 680              		.cfi_def_cfa_offset 12
 681              		.cfi_offset 4, -12
 682              		.cfi_offset 5, -8
 683              		.cfi_offset 6, -4
 887:Drivers/STM32F3xx_HAL_Driver/Src/stm32f3xx_hal_dac_ex.c ****   __HAL_LOCK(hdac);
 684              		.loc 1 887 0
 685 0002 4379     		ldrb	r3, [r0, #5]	@ zero_extendqisi2
 686 0004 012B     		cmp	r3, #1
 687 0006 15D0     		beq	.L47
 887:Drivers/STM32F3xx_HAL_Driver/Src/stm32f3xx_hal_dac_ex.c ****   __HAL_LOCK(hdac);
 688              		.loc 1 887 0 is_stmt 0 discriminator 2
 689 0008 0123     		movs	r3, #1
 690 000a 4371     		strb	r3, [r0, #5]
 890:Drivers/STM32F3xx_HAL_Driver/Src/stm32f3xx_hal_dac_ex.c ****   hdac->State = HAL_DAC_STATE_BUSY;
 691              		.loc 1 890 0 is_stmt 1 discriminator 2
 692 000c 0224     		movs	r4, #2
 693 000e 0471     		strb	r4, [r0, #4]
 893:Drivers/STM32F3xx_HAL_Driver/Src/stm32f3xx_hal_dac_ex.c ****   MODIFY_REG(hdac->Instance->CR, ((DAC_CR_WAVE1)|(DAC_CR_MAMP1))<<Channel, (DAC_CR_WAVE1_1 | Amplit
 694              		.loc 1 893 0 discriminator 2
 695 0010 0468     		ldr	r4, [r0]
 696 0012 2668     		ldr	r6, [r4]
 697 0014 4FF47C65 		mov	r5, #4032
 698 0018 8D40     		lsls	r5, r5, r1
 699 001a 26EA0505 		bic	r5, r6, r5
 700 001e 42F08002 		orr	r2, r2, #128
 701              	.LVL79:
 702 0022 02FA01F1 		lsl	r1, r2, r1
 703              	.LVL80:
 704 0026 2943     		orrs	r1, r1, r5
 705 0028 2160     		str	r1, [r4]
 896:Drivers/STM32F3xx_HAL_Driver/Src/stm32f3xx_hal_dac_ex.c ****   hdac->State = HAL_DAC_STATE_READY;
 706              		.loc 1 896 0 discriminator 2
 707 002a 0371     		strb	r3, [r0, #4]
 899:Drivers/STM32F3xx_HAL_Driver/Src/stm32f3xx_hal_dac_ex.c ****   __HAL_UNLOCK(hdac);
 708              		.loc 1 899 0 discriminator 2
 709 002c 0023     		movs	r3, #0
 710 002e 4371     		strb	r3, [r0, #5]
ARM GAS  /tmp/ccVYEPWf.s 			page 34


 902:Drivers/STM32F3xx_HAL_Driver/Src/stm32f3xx_hal_dac_ex.c ****   return HAL_OK;
 711              		.loc 1 902 0 discriminator 2
 712 0030 1846     		mov	r0, r3
 713              	.LVL81:
 714 0032 00E0     		b	.L46
 715              	.LVL82:
 716              	.L47:
 887:Drivers/STM32F3xx_HAL_Driver/Src/stm32f3xx_hal_dac_ex.c ****   __HAL_LOCK(hdac);
 717              		.loc 1 887 0
 718 0034 0220     		movs	r0, #2
 719              	.LVL83:
 720              	.L46:
 903:Drivers/STM32F3xx_HAL_Driver/Src/stm32f3xx_hal_dac_ex.c **** }
 721              		.loc 1 903 0
 722 0036 70BC     		pop	{r4, r5, r6}
 723 0038 7047     		bx	lr
 724              		.cfi_endproc
 725              	.LFE131:
 727 003a 00BF     		.section	.text.HAL_DACEx_NoiseWaveGenerate,"ax",%progbits
 728              		.align	2
 729              		.global	HAL_DACEx_NoiseWaveGenerate
 730              		.thumb
 731              		.thumb_func
 733              	HAL_DACEx_NoiseWaveGenerate:
 734              	.LFB132:
 930:Drivers/STM32F3xx_HAL_Driver/Src/stm32f3xx_hal_dac_ex.c **** {
 735              		.loc 1 930 0
 736              		.cfi_startproc
 737              		@ args = 0, pretend = 0, frame = 0
 738              		@ frame_needed = 0, uses_anonymous_args = 0
 739              		@ link register save eliminated.
 740              	.LVL84:
 741 0000 70B4     		push	{r4, r5, r6}
 742              	.LCFI9:
 743              		.cfi_def_cfa_offset 12
 744              		.cfi_offset 4, -12
 745              		.cfi_offset 5, -8
 746              		.cfi_offset 6, -4
 936:Drivers/STM32F3xx_HAL_Driver/Src/stm32f3xx_hal_dac_ex.c ****   __HAL_LOCK(hdac);
 747              		.loc 1 936 0
 748 0002 4379     		ldrb	r3, [r0, #5]	@ zero_extendqisi2
 749 0004 012B     		cmp	r3, #1
 750 0006 15D0     		beq	.L50
 936:Drivers/STM32F3xx_HAL_Driver/Src/stm32f3xx_hal_dac_ex.c ****   __HAL_LOCK(hdac);
 751              		.loc 1 936 0 is_stmt 0 discriminator 2
 752 0008 0123     		movs	r3, #1
 753 000a 4371     		strb	r3, [r0, #5]
 939:Drivers/STM32F3xx_HAL_Driver/Src/stm32f3xx_hal_dac_ex.c ****   hdac->State = HAL_DAC_STATE_BUSY;
 754              		.loc 1 939 0 is_stmt 1 discriminator 2
 755 000c 0224     		movs	r4, #2
 756 000e 0471     		strb	r4, [r0, #4]
 942:Drivers/STM32F3xx_HAL_Driver/Src/stm32f3xx_hal_dac_ex.c ****   MODIFY_REG(hdac->Instance->CR, ((DAC_CR_WAVE1)|(DAC_CR_MAMP1))<<Channel, (DAC_CR_WAVE1_0 | Amplit
 757              		.loc 1 942 0 discriminator 2
 758 0010 0468     		ldr	r4, [r0]
 759 0012 2668     		ldr	r6, [r4]
 760 0014 4FF47C65 		mov	r5, #4032
 761 0018 8D40     		lsls	r5, r5, r1
ARM GAS  /tmp/ccVYEPWf.s 			page 35


 762 001a 26EA0505 		bic	r5, r6, r5
 763 001e 42F04002 		orr	r2, r2, #64
 764              	.LVL85:
 765 0022 02FA01F1 		lsl	r1, r2, r1
 766              	.LVL86:
 767 0026 2943     		orrs	r1, r1, r5
 768 0028 2160     		str	r1, [r4]
 945:Drivers/STM32F3xx_HAL_Driver/Src/stm32f3xx_hal_dac_ex.c ****   hdac->State = HAL_DAC_STATE_READY;
 769              		.loc 1 945 0 discriminator 2
 770 002a 0371     		strb	r3, [r0, #4]
 948:Drivers/STM32F3xx_HAL_Driver/Src/stm32f3xx_hal_dac_ex.c ****   __HAL_UNLOCK(hdac);
 771              		.loc 1 948 0 discriminator 2
 772 002c 0023     		movs	r3, #0
 773 002e 4371     		strb	r3, [r0, #5]
 951:Drivers/STM32F3xx_HAL_Driver/Src/stm32f3xx_hal_dac_ex.c ****   return HAL_OK;
 774              		.loc 1 951 0 discriminator 2
 775 0030 1846     		mov	r0, r3
 776              	.LVL87:
 777 0032 00E0     		b	.L49
 778              	.LVL88:
 779              	.L50:
 936:Drivers/STM32F3xx_HAL_Driver/Src/stm32f3xx_hal_dac_ex.c ****   __HAL_LOCK(hdac);
 780              		.loc 1 936 0
 781 0034 0220     		movs	r0, #2
 782              	.LVL89:
 783              	.L49:
 952:Drivers/STM32F3xx_HAL_Driver/Src/stm32f3xx_hal_dac_ex.c **** }
 784              		.loc 1 952 0
 785 0036 70BC     		pop	{r4, r5, r6}
 786 0038 7047     		bx	lr
 787              		.cfi_endproc
 788              	.LFE132:
 790 003a 00BF     		.section	.text.HAL_DACEx_ConvCpltCallbackCh2,"ax",%progbits
 791              		.align	2
 792              		.weak	HAL_DACEx_ConvCpltCallbackCh2
 793              		.thumb
 794              		.thumb_func
 796              	HAL_DACEx_ConvCpltCallbackCh2:
 797              	.LFB133:
 966:Drivers/STM32F3xx_HAL_Driver/Src/stm32f3xx_hal_dac_ex.c **** {
 798              		.loc 1 966 0
 799              		.cfi_startproc
 800              		@ args = 0, pretend = 0, frame = 0
 801              		@ frame_needed = 0, uses_anonymous_args = 0
 802              		@ link register save eliminated.
 803              	.LVL90:
 804 0000 7047     		bx	lr
 805              		.cfi_endproc
 806              	.LFE133:
 808 0002 00BF     		.section	.text.DAC_DMAConvCpltCh2,"ax",%progbits
 809              		.align	2
 810              		.thumb
 811              		.thumb_func
 813              	DAC_DMAConvCpltCh2:
 814              	.LFB140:
1083:Drivers/STM32F3xx_HAL_Driver/Src/stm32f3xx_hal_dac_ex.c **** }
1084:Drivers/STM32F3xx_HAL_Driver/Src/stm32f3xx_hal_dac_ex.c **** 
ARM GAS  /tmp/ccVYEPWf.s 			page 36


1085:Drivers/STM32F3xx_HAL_Driver/Src/stm32f3xx_hal_dac_ex.c **** #if  defined(STM32F303xE) || defined(STM32F398xx)                         || \
1086:Drivers/STM32F3xx_HAL_Driver/Src/stm32f3xx_hal_dac_ex.c ****      defined(STM32F303xC) || defined(STM32F358xx)                         || \
1087:Drivers/STM32F3xx_HAL_Driver/Src/stm32f3xx_hal_dac_ex.c ****      defined(STM32F303x8) || defined(STM32F334x8) || defined(STM32F328xx) || \
1088:Drivers/STM32F3xx_HAL_Driver/Src/stm32f3xx_hal_dac_ex.c ****      defined(STM32F373xC) || defined(STM32F378xx)
1089:Drivers/STM32F3xx_HAL_Driver/Src/stm32f3xx_hal_dac_ex.c **** /* DAC channel 2 is available on top of DAC channel 1U */
1090:Drivers/STM32F3xx_HAL_Driver/Src/stm32f3xx_hal_dac_ex.c **** /**
1091:Drivers/STM32F3xx_HAL_Driver/Src/stm32f3xx_hal_dac_ex.c ****   * @brief  DMA conversion complete callback. 
1092:Drivers/STM32F3xx_HAL_Driver/Src/stm32f3xx_hal_dac_ex.c ****   * @param  hdma: pointer to DMA handle.
1093:Drivers/STM32F3xx_HAL_Driver/Src/stm32f3xx_hal_dac_ex.c ****   * @retval None
1094:Drivers/STM32F3xx_HAL_Driver/Src/stm32f3xx_hal_dac_ex.c ****   */
1095:Drivers/STM32F3xx_HAL_Driver/Src/stm32f3xx_hal_dac_ex.c **** static void DAC_DMAConvCpltCh2(DMA_HandleTypeDef *hdma)   
1096:Drivers/STM32F3xx_HAL_Driver/Src/stm32f3xx_hal_dac_ex.c **** {
 815              		.loc 1 1096 0
 816              		.cfi_startproc
 817              		@ args = 0, pretend = 0, frame = 0
 818              		@ frame_needed = 0, uses_anonymous_args = 0
 819              	.LVL91:
 820              		.loc 1 1096 0
 821 0000 10B5     		push	{r4, lr}
 822              	.LCFI10:
 823              		.cfi_def_cfa_offset 8
 824              		.cfi_offset 4, -8
 825              		.cfi_offset 14, -4
1097:Drivers/STM32F3xx_HAL_Driver/Src/stm32f3xx_hal_dac_ex.c ****   DAC_HandleTypeDef* hdac = ( DAC_HandleTypeDef* )((DMA_HandleTypeDef* )hdma)->Parent;
 826              		.loc 1 1097 0
 827 0002 446A     		ldr	r4, [r0, #36]
 828              	.LVL92:
1098:Drivers/STM32F3xx_HAL_Driver/Src/stm32f3xx_hal_dac_ex.c ****   
1099:Drivers/STM32F3xx_HAL_Driver/Src/stm32f3xx_hal_dac_ex.c ****   HAL_DACEx_ConvCpltCallbackCh2(hdac);
 829              		.loc 1 1099 0
 830 0004 2046     		mov	r0, r4
 831              	.LVL93:
 832 0006 FFF7FEFF 		bl	HAL_DACEx_ConvCpltCallbackCh2
 833              	.LVL94:
1100:Drivers/STM32F3xx_HAL_Driver/Src/stm32f3xx_hal_dac_ex.c ****   
1101:Drivers/STM32F3xx_HAL_Driver/Src/stm32f3xx_hal_dac_ex.c ****   hdac->State= HAL_DAC_STATE_READY;
 834              		.loc 1 1101 0
 835 000a 0123     		movs	r3, #1
 836 000c 2371     		strb	r3, [r4, #4]
 837 000e 10BD     		pop	{r4, pc}
 838              		.cfi_endproc
 839              	.LFE140:
 841              		.section	.text.HAL_DACEx_ConvHalfCpltCallbackCh2,"ax",%progbits
 842              		.align	2
 843              		.weak	HAL_DACEx_ConvHalfCpltCallbackCh2
 844              		.thumb
 845              		.thumb_func
 847              	HAL_DACEx_ConvHalfCpltCallbackCh2:
 848              	.LFB134:
 982:Drivers/STM32F3xx_HAL_Driver/Src/stm32f3xx_hal_dac_ex.c **** {
 849              		.loc 1 982 0
 850              		.cfi_startproc
 851              		@ args = 0, pretend = 0, frame = 0
 852              		@ frame_needed = 0, uses_anonymous_args = 0
 853              		@ link register save eliminated.
 854              	.LVL95:
 855 0000 7047     		bx	lr
ARM GAS  /tmp/ccVYEPWf.s 			page 37


 856              		.cfi_endproc
 857              	.LFE134:
 859 0002 00BF     		.section	.text.DAC_DMAHalfConvCpltCh2,"ax",%progbits
 860              		.align	2
 861              		.thumb
 862              		.thumb_func
 864              	DAC_DMAHalfConvCpltCh2:
 865              	.LFB141:
1102:Drivers/STM32F3xx_HAL_Driver/Src/stm32f3xx_hal_dac_ex.c **** }
1103:Drivers/STM32F3xx_HAL_Driver/Src/stm32f3xx_hal_dac_ex.c **** 
1104:Drivers/STM32F3xx_HAL_Driver/Src/stm32f3xx_hal_dac_ex.c **** /**
1105:Drivers/STM32F3xx_HAL_Driver/Src/stm32f3xx_hal_dac_ex.c ****   * @brief  DMA half transfer complete callback. 
1106:Drivers/STM32F3xx_HAL_Driver/Src/stm32f3xx_hal_dac_ex.c ****   * @param  hdma: pointer to DMA handle.
1107:Drivers/STM32F3xx_HAL_Driver/Src/stm32f3xx_hal_dac_ex.c ****   * @retval None
1108:Drivers/STM32F3xx_HAL_Driver/Src/stm32f3xx_hal_dac_ex.c ****   */
1109:Drivers/STM32F3xx_HAL_Driver/Src/stm32f3xx_hal_dac_ex.c **** static void DAC_DMAHalfConvCpltCh2(DMA_HandleTypeDef *hdma)   
1110:Drivers/STM32F3xx_HAL_Driver/Src/stm32f3xx_hal_dac_ex.c **** {
 866              		.loc 1 1110 0
 867              		.cfi_startproc
 868              		@ args = 0, pretend = 0, frame = 0
 869              		@ frame_needed = 0, uses_anonymous_args = 0
 870              	.LVL96:
 871              		.loc 1 1110 0
 872 0000 08B5     		push	{r3, lr}
 873              	.LCFI11:
 874              		.cfi_def_cfa_offset 8
 875              		.cfi_offset 3, -8
 876              		.cfi_offset 14, -4
 877              	.LVL97:
1111:Drivers/STM32F3xx_HAL_Driver/Src/stm32f3xx_hal_dac_ex.c ****     DAC_HandleTypeDef* hdac = ( DAC_HandleTypeDef* )((DMA_HandleTypeDef* )hdma)->Parent;
1112:Drivers/STM32F3xx_HAL_Driver/Src/stm32f3xx_hal_dac_ex.c ****     /* Conversion complete callback */
1113:Drivers/STM32F3xx_HAL_Driver/Src/stm32f3xx_hal_dac_ex.c ****     HAL_DACEx_ConvHalfCpltCallbackCh2(hdac);
 878              		.loc 1 1113 0
 879 0002 406A     		ldr	r0, [r0, #36]
 880              	.LVL98:
 881 0004 FFF7FEFF 		bl	HAL_DACEx_ConvHalfCpltCallbackCh2
 882              	.LVL99:
 883 0008 08BD     		pop	{r3, pc}
 884              		.cfi_endproc
 885              	.LFE141:
 887 000a 00BF     		.section	.text.HAL_DACEx_ErrorCallbackCh2,"ax",%progbits
 888              		.align	2
 889              		.weak	HAL_DACEx_ErrorCallbackCh2
 890              		.thumb
 891              		.thumb_func
 893              	HAL_DACEx_ErrorCallbackCh2:
 894              	.LFB135:
 998:Drivers/STM32F3xx_HAL_Driver/Src/stm32f3xx_hal_dac_ex.c **** {
 895              		.loc 1 998 0
 896              		.cfi_startproc
 897              		@ args = 0, pretend = 0, frame = 0
 898              		@ frame_needed = 0, uses_anonymous_args = 0
 899              		@ link register save eliminated.
 900              	.LVL100:
 901 0000 7047     		bx	lr
 902              		.cfi_endproc
 903              	.LFE135:
ARM GAS  /tmp/ccVYEPWf.s 			page 38


 905 0002 00BF     		.section	.text.DAC_DMAErrorCh2,"ax",%progbits
 906              		.align	2
 907              		.thumb
 908              		.thumb_func
 910              	DAC_DMAErrorCh2:
 911              	.LFB142:
1114:Drivers/STM32F3xx_HAL_Driver/Src/stm32f3xx_hal_dac_ex.c **** }
1115:Drivers/STM32F3xx_HAL_Driver/Src/stm32f3xx_hal_dac_ex.c **** 
1116:Drivers/STM32F3xx_HAL_Driver/Src/stm32f3xx_hal_dac_ex.c **** /**
1117:Drivers/STM32F3xx_HAL_Driver/Src/stm32f3xx_hal_dac_ex.c ****   * @brief  DMA error callback 
1118:Drivers/STM32F3xx_HAL_Driver/Src/stm32f3xx_hal_dac_ex.c ****   * @param  hdma: pointer to DMA handle.
1119:Drivers/STM32F3xx_HAL_Driver/Src/stm32f3xx_hal_dac_ex.c ****   * @retval None
1120:Drivers/STM32F3xx_HAL_Driver/Src/stm32f3xx_hal_dac_ex.c ****   */
1121:Drivers/STM32F3xx_HAL_Driver/Src/stm32f3xx_hal_dac_ex.c **** static void DAC_DMAErrorCh2(DMA_HandleTypeDef *hdma)   
1122:Drivers/STM32F3xx_HAL_Driver/Src/stm32f3xx_hal_dac_ex.c **** {
 912              		.loc 1 1122 0
 913              		.cfi_startproc
 914              		@ args = 0, pretend = 0, frame = 0
 915              		@ frame_needed = 0, uses_anonymous_args = 0
 916              	.LVL101:
 917              		.loc 1 1122 0
 918 0000 10B5     		push	{r4, lr}
 919              	.LCFI12:
 920              		.cfi_def_cfa_offset 8
 921              		.cfi_offset 4, -8
 922              		.cfi_offset 14, -4
1123:Drivers/STM32F3xx_HAL_Driver/Src/stm32f3xx_hal_dac_ex.c ****   DAC_HandleTypeDef* hdac = ( DAC_HandleTypeDef* )((DMA_HandleTypeDef* )hdma)->Parent;
 923              		.loc 1 1123 0
 924 0002 446A     		ldr	r4, [r0, #36]
 925              	.LVL102:
1124:Drivers/STM32F3xx_HAL_Driver/Src/stm32f3xx_hal_dac_ex.c ****     
1125:Drivers/STM32F3xx_HAL_Driver/Src/stm32f3xx_hal_dac_ex.c ****   /* Set DAC error code to DMA error */
1126:Drivers/STM32F3xx_HAL_Driver/Src/stm32f3xx_hal_dac_ex.c ****   hdac->ErrorCode |= HAL_DAC_ERROR_DMA;
 926              		.loc 1 1126 0
 927 0004 2369     		ldr	r3, [r4, #16]
 928 0006 43F00403 		orr	r3, r3, #4
 929 000a 2361     		str	r3, [r4, #16]
1127:Drivers/STM32F3xx_HAL_Driver/Src/stm32f3xx_hal_dac_ex.c ****     
1128:Drivers/STM32F3xx_HAL_Driver/Src/stm32f3xx_hal_dac_ex.c ****   HAL_DACEx_ErrorCallbackCh2(hdac);
 930              		.loc 1 1128 0
 931 000c 2046     		mov	r0, r4
 932              	.LVL103:
 933 000e FFF7FEFF 		bl	HAL_DACEx_ErrorCallbackCh2
 934              	.LVL104:
1129:Drivers/STM32F3xx_HAL_Driver/Src/stm32f3xx_hal_dac_ex.c ****     
1130:Drivers/STM32F3xx_HAL_Driver/Src/stm32f3xx_hal_dac_ex.c ****   hdac->State= HAL_DAC_STATE_READY;
 935              		.loc 1 1130 0
 936 0012 0123     		movs	r3, #1
 937 0014 2371     		strb	r3, [r4, #4]
 938 0016 10BD     		pop	{r4, pc}
 939              		.cfi_endproc
 940              	.LFE142:
 942              		.section	.text.HAL_DACEx_DMAUnderrunCallbackCh2,"ax",%progbits
 943              		.align	2
 944              		.weak	HAL_DACEx_DMAUnderrunCallbackCh2
 945              		.thumb
 946              		.thumb_func
ARM GAS  /tmp/ccVYEPWf.s 			page 39


 948              	HAL_DACEx_DMAUnderrunCallbackCh2:
 949              	.LFB136:
1014:Drivers/STM32F3xx_HAL_Driver/Src/stm32f3xx_hal_dac_ex.c **** {
 950              		.loc 1 1014 0
 951              		.cfi_startproc
 952              		@ args = 0, pretend = 0, frame = 0
 953              		@ frame_needed = 0, uses_anonymous_args = 0
 954              		@ link register save eliminated.
 955              	.LVL105:
 956 0000 7047     		bx	lr
 957              		.cfi_endproc
 958              	.LFE136:
 960 0002 00BF     		.section	.text.HAL_DAC_IRQHandler,"ax",%progbits
 961              		.align	2
 962              		.global	HAL_DAC_IRQHandler
 963              		.thumb
 964              		.thumb_func
 966              	HAL_DAC_IRQHandler:
 967              	.LFB129:
 678:Drivers/STM32F3xx_HAL_Driver/Src/stm32f3xx_hal_dac_ex.c **** {
 968              		.loc 1 678 0
 969              		.cfi_startproc
 970              		@ args = 0, pretend = 0, frame = 0
 971              		@ frame_needed = 0, uses_anonymous_args = 0
 972              	.LVL106:
 678:Drivers/STM32F3xx_HAL_Driver/Src/stm32f3xx_hal_dac_ex.c **** {
 973              		.loc 1 678 0
 974 0000 10B5     		push	{r4, lr}
 975              	.LCFI13:
 976              		.cfi_def_cfa_offset 8
 977              		.cfi_offset 4, -8
 978              		.cfi_offset 14, -4
 979 0002 0446     		mov	r4, r0
 679:Drivers/STM32F3xx_HAL_Driver/Src/stm32f3xx_hal_dac_ex.c ****   if(__HAL_DAC_GET_IT_SOURCE(hdac, DAC_IT_DMAUDR1))
 980              		.loc 1 679 0
 981 0004 0368     		ldr	r3, [r0]
 982 0006 1A68     		ldr	r2, [r3]
 983 0008 12F4005F 		tst	r2, #8192
 984 000c 13D0     		beq	.L59
 682:Drivers/STM32F3xx_HAL_Driver/Src/stm32f3xx_hal_dac_ex.c ****     if(__HAL_DAC_GET_FLAG(hdac, DAC_FLAG_DMAUDR1))
 985              		.loc 1 682 0
 986 000e 5A6B     		ldr	r2, [r3, #52]
 987 0010 12F4005F 		tst	r2, #8192
 988 0014 0FD0     		beq	.L59
 685:Drivers/STM32F3xx_HAL_Driver/Src/stm32f3xx_hal_dac_ex.c ****       hdac->State = HAL_DAC_STATE_ERROR;
 989              		.loc 1 685 0
 990 0016 0422     		movs	r2, #4
 991 0018 0271     		strb	r2, [r0, #4]
 688:Drivers/STM32F3xx_HAL_Driver/Src/stm32f3xx_hal_dac_ex.c ****       SET_BIT(hdac->ErrorCode, HAL_DAC_ERROR_DMAUNDERRUNCH1);
 992              		.loc 1 688 0
 993 001a 0269     		ldr	r2, [r0, #16]
 994 001c 42F00102 		orr	r2, r2, #1
 995 0020 0261     		str	r2, [r0, #16]
 691:Drivers/STM32F3xx_HAL_Driver/Src/stm32f3xx_hal_dac_ex.c ****       __HAL_DAC_CLEAR_FLAG(hdac,DAC_FLAG_DMAUDR1);
 996              		.loc 1 691 0
 997 0022 4FF40052 		mov	r2, #8192
 998 0026 5A63     		str	r2, [r3, #52]
ARM GAS  /tmp/ccVYEPWf.s 			page 40


 694:Drivers/STM32F3xx_HAL_Driver/Src/stm32f3xx_hal_dac_ex.c ****       CLEAR_BIT(hdac->Instance->CR, DAC_CR_DMAEN1);
 999              		.loc 1 694 0
 1000 0028 0368     		ldr	r3, [r0]
 1001 002a 1A68     		ldr	r2, [r3]
 1002 002c 22F48052 		bic	r2, r2, #4096
 1003 0030 1A60     		str	r2, [r3]
 697:Drivers/STM32F3xx_HAL_Driver/Src/stm32f3xx_hal_dac_ex.c ****       HAL_DAC_DMAUnderrunCallbackCh1(hdac);
 1004              		.loc 1 697 0
 1005 0032 FFF7FEFF 		bl	HAL_DAC_DMAUnderrunCallbackCh1
 1006              	.LVL107:
 1007              	.L59:
 701:Drivers/STM32F3xx_HAL_Driver/Src/stm32f3xx_hal_dac_ex.c ****   if(__HAL_DAC_GET_IT_SOURCE(hdac, DAC_IT_DMAUDR2))
 1008              		.loc 1 701 0
 1009 0036 2368     		ldr	r3, [r4]
 1010 0038 1A68     		ldr	r2, [r3]
 1011 003a 12F0005F 		tst	r2, #536870912
 1012 003e 14D0     		beq	.L58
 704:Drivers/STM32F3xx_HAL_Driver/Src/stm32f3xx_hal_dac_ex.c ****     if (__HAL_DAC_GET_FLAG(hdac, DAC_FLAG_DMAUDR2))
 1013              		.loc 1 704 0
 1014 0040 5A6B     		ldr	r2, [r3, #52]
 1015 0042 12F0005F 		tst	r2, #536870912
 1016 0046 10D0     		beq	.L58
 707:Drivers/STM32F3xx_HAL_Driver/Src/stm32f3xx_hal_dac_ex.c ****       hdac->State = HAL_DAC_STATE_ERROR;
 1017              		.loc 1 707 0
 1018 0048 0422     		movs	r2, #4
 1019 004a 2271     		strb	r2, [r4, #4]
 710:Drivers/STM32F3xx_HAL_Driver/Src/stm32f3xx_hal_dac_ex.c ****       SET_BIT(hdac->ErrorCode, HAL_DAC_ERROR_DMAUNDERRUNCH2);
 1020              		.loc 1 710 0
 1021 004c 2269     		ldr	r2, [r4, #16]
 1022 004e 42F00202 		orr	r2, r2, #2
 1023 0052 2261     		str	r2, [r4, #16]
 713:Drivers/STM32F3xx_HAL_Driver/Src/stm32f3xx_hal_dac_ex.c ****       __HAL_DAC_CLEAR_FLAG(hdac,DAC_FLAG_DMAUDR2);
 1024              		.loc 1 713 0
 1025 0054 4FF00052 		mov	r2, #536870912
 1026 0058 5A63     		str	r2, [r3, #52]
 716:Drivers/STM32F3xx_HAL_Driver/Src/stm32f3xx_hal_dac_ex.c ****       CLEAR_BIT(hdac->Instance->CR, DAC_CR_DMAEN2);
 1027              		.loc 1 716 0
 1028 005a 2368     		ldr	r3, [r4]
 1029 005c 1A68     		ldr	r2, [r3]
 1030 005e 22F08052 		bic	r2, r2, #268435456
 1031 0062 1A60     		str	r2, [r3]
 719:Drivers/STM32F3xx_HAL_Driver/Src/stm32f3xx_hal_dac_ex.c ****       HAL_DACEx_DMAUnderrunCallbackCh2(hdac);
 1032              		.loc 1 719 0
 1033 0064 2046     		mov	r0, r4
 1034 0066 FFF7FEFF 		bl	HAL_DACEx_DMAUnderrunCallbackCh2
 1035              	.LVL108:
 1036              	.L58:
 1037 006a 10BD     		pop	{r4, pc}
 1038              		.cfi_endproc
 1039              	.LFE129:
 1041              		.text
 1042              	.Letext0:
 1043              		.file 2 "/home/niklas/Downloads/gcc-arm-none-eabi-4_8-2014q3/arm-none-eabi/include/machine/_defaul
 1044              		.file 3 "/home/niklas/Downloads/gcc-arm-none-eabi-4_8-2014q3/arm-none-eabi/include/stdint.h"
 1045              		.file 4 "Drivers/CMSIS/Device/ST/STM32F3xx/Include/stm32f334x8.h"
 1046              		.file 5 "Drivers/STM32F3xx_HAL_Driver/Inc/stm32f3xx_hal_def.h"
 1047              		.file 6 "Drivers/STM32F3xx_HAL_Driver/Inc/stm32f3xx_hal_dma.h"
ARM GAS  /tmp/ccVYEPWf.s 			page 41


 1048              		.file 7 "Drivers/STM32F3xx_HAL_Driver/Inc/stm32f3xx_hal_dac.h"
 1049              		.file 8 "Drivers/CMSIS/Include/core_cm4.h"
ARM GAS  /tmp/ccVYEPWf.s 			page 42


DEFINED SYMBOLS
                            *ABS*:00000000 stm32f3xx_hal_dac_ex.c
     /tmp/ccVYEPWf.s:21     .text.DAC_DMAErrorCh1:00000000 $t
     /tmp/ccVYEPWf.s:25     .text.DAC_DMAErrorCh1:00000000 DAC_DMAErrorCh1
     /tmp/ccVYEPWf.s:58     .text.DAC_DMAHalfConvCpltCh1:00000000 $t
     /tmp/ccVYEPWf.s:62     .text.DAC_DMAHalfConvCpltCh1:00000000 DAC_DMAHalfConvCpltCh1
     /tmp/ccVYEPWf.s:85     .text.DAC_DMAConvCpltCh1:00000000 $t
     /tmp/ccVYEPWf.s:89     .text.DAC_DMAConvCpltCh1:00000000 DAC_DMAConvCpltCh1
     /tmp/ccVYEPWf.s:117    .text.HAL_DAC_SetValue:00000000 $t
     /tmp/ccVYEPWf.s:122    .text.HAL_DAC_SetValue:00000000 HAL_DAC_SetValue
     /tmp/ccVYEPWf.s:177    .text.HAL_DACEx_DualSetValue:00000000 $t
     /tmp/ccVYEPWf.s:182    .text.HAL_DACEx_DualSetValue:00000000 HAL_DACEx_DualSetValue
     /tmp/ccVYEPWf.s:218    .text.HAL_DAC_Start:00000000 $t
     /tmp/ccVYEPWf.s:223    .text.HAL_DAC_Start:00000000 HAL_DAC_Start
     /tmp/ccVYEPWf.s:299    .text.HAL_DAC_Start_DMA:00000000 $t
     /tmp/ccVYEPWf.s:304    .text.HAL_DAC_Start_DMA:00000000 HAL_DAC_Start_DMA
     /tmp/ccVYEPWf.s:485    .text.HAL_DAC_Start_DMA:000000cc $d
     /tmp/ccVYEPWf.s:813    .text.DAC_DMAConvCpltCh2:00000000 DAC_DMAConvCpltCh2
     /tmp/ccVYEPWf.s:864    .text.DAC_DMAHalfConvCpltCh2:00000000 DAC_DMAHalfConvCpltCh2
     /tmp/ccVYEPWf.s:910    .text.DAC_DMAErrorCh2:00000000 DAC_DMAErrorCh2
     /tmp/ccVYEPWf.s:495    .text.HAL_DAC_GetValue:00000000 $t
     /tmp/ccVYEPWf.s:500    .text.HAL_DAC_GetValue:00000000 HAL_DAC_GetValue
     /tmp/ccVYEPWf.s:527    .text.HAL_DACEx_DualGetValue:00000000 $t
     /tmp/ccVYEPWf.s:532    .text.HAL_DACEx_DualGetValue:00000000 HAL_DACEx_DualGetValue
     /tmp/ccVYEPWf.s:555    .text.HAL_DAC_ConfigChannel:00000000 $t
     /tmp/ccVYEPWf.s:560    .text.HAL_DAC_ConfigChannel:00000000 HAL_DAC_ConfigChannel
     /tmp/ccVYEPWf.s:660    .text.HAL_DAC_ConfigChannel:00000068 $d
     /tmp/ccVYEPWf.s:665    .text.HAL_DACEx_TriangleWaveGenerate:00000000 $t
     /tmp/ccVYEPWf.s:670    .text.HAL_DACEx_TriangleWaveGenerate:00000000 HAL_DACEx_TriangleWaveGenerate
     /tmp/ccVYEPWf.s:728    .text.HAL_DACEx_NoiseWaveGenerate:00000000 $t
     /tmp/ccVYEPWf.s:733    .text.HAL_DACEx_NoiseWaveGenerate:00000000 HAL_DACEx_NoiseWaveGenerate
     /tmp/ccVYEPWf.s:791    .text.HAL_DACEx_ConvCpltCallbackCh2:00000000 $t
     /tmp/ccVYEPWf.s:796    .text.HAL_DACEx_ConvCpltCallbackCh2:00000000 HAL_DACEx_ConvCpltCallbackCh2
     /tmp/ccVYEPWf.s:809    .text.DAC_DMAConvCpltCh2:00000000 $t
     /tmp/ccVYEPWf.s:842    .text.HAL_DACEx_ConvHalfCpltCallbackCh2:00000000 $t
     /tmp/ccVYEPWf.s:847    .text.HAL_DACEx_ConvHalfCpltCallbackCh2:00000000 HAL_DACEx_ConvHalfCpltCallbackCh2
     /tmp/ccVYEPWf.s:860    .text.DAC_DMAHalfConvCpltCh2:00000000 $t
     /tmp/ccVYEPWf.s:888    .text.HAL_DACEx_ErrorCallbackCh2:00000000 $t
     /tmp/ccVYEPWf.s:893    .text.HAL_DACEx_ErrorCallbackCh2:00000000 HAL_DACEx_ErrorCallbackCh2
     /tmp/ccVYEPWf.s:906    .text.DAC_DMAErrorCh2:00000000 $t
     /tmp/ccVYEPWf.s:943    .text.HAL_DACEx_DMAUnderrunCallbackCh2:00000000 $t
     /tmp/ccVYEPWf.s:948    .text.HAL_DACEx_DMAUnderrunCallbackCh2:00000000 HAL_DACEx_DMAUnderrunCallbackCh2
     /tmp/ccVYEPWf.s:961    .text.HAL_DAC_IRQHandler:00000000 $t
     /tmp/ccVYEPWf.s:966    .text.HAL_DAC_IRQHandler:00000000 HAL_DAC_IRQHandler
                     .debug_frame:00000010 $d

UNDEFINED SYMBOLS
HAL_DAC_ErrorCallbackCh1
HAL_DAC_ConvHalfCpltCallbackCh1
HAL_DAC_ConvCpltCallbackCh1
HAL_DMA_Start_IT
HAL_DAC_DMAUnderrunCallbackCh1
