ARM GAS  /tmp/cc6tAl1r.s 			page 1


   1              		.syntax unified
   2              		.cpu cortex-m4
   3              		.eabi_attribute 27, 3
   4              		.eabi_attribute 28, 1
   5              		.fpu fpv4-sp-d16
   6              		.eabi_attribute 20, 1
   7              		.eabi_attribute 21, 1
   8              		.eabi_attribute 23, 1
   9              		.eabi_attribute 24, 1
  10              		.eabi_attribute 25, 1
  11              		.eabi_attribute 26, 1
  12              		.eabi_attribute 30, 1
  13              		.eabi_attribute 34, 1
  14              		.eabi_attribute 18, 4
  15              		.thumb
  16              		.file	"stm32f3xx_hal_flash_ex.c"
  17              		.text
  18              	.Ltext0:
  19              		.cfi_sections	.debug_frame
  20              		.section	.text.FLASH_MassErase,"ax",%progbits
  21              		.align	2
  22              		.thumb
  23              		.thumb_func
  25              	FLASH_MassErase:
  26              	.LFB129:
  27              		.file 1 "Drivers/STM32F3xx_HAL_Driver/Src/stm32f3xx_hal_flash_ex.c"
   1:Drivers/STM32F3xx_HAL_Driver/Src/stm32f3xx_hal_flash_ex.c **** /**
   2:Drivers/STM32F3xx_HAL_Driver/Src/stm32f3xx_hal_flash_ex.c ****   ******************************************************************************
   3:Drivers/STM32F3xx_HAL_Driver/Src/stm32f3xx_hal_flash_ex.c ****   * @file    stm32f3xx_hal_flash_ex.c
   4:Drivers/STM32F3xx_HAL_Driver/Src/stm32f3xx_hal_flash_ex.c ****   * @author  MCD Application Team
   5:Drivers/STM32F3xx_HAL_Driver/Src/stm32f3xx_hal_flash_ex.c ****   * @version V1.4.0
   6:Drivers/STM32F3xx_HAL_Driver/Src/stm32f3xx_hal_flash_ex.c ****   * @date    16-December-2016
   7:Drivers/STM32F3xx_HAL_Driver/Src/stm32f3xx_hal_flash_ex.c ****   * @brief   Extended FLASH HAL module driver.
   8:Drivers/STM32F3xx_HAL_Driver/Src/stm32f3xx_hal_flash_ex.c ****   *    
   9:Drivers/STM32F3xx_HAL_Driver/Src/stm32f3xx_hal_flash_ex.c ****   *          This file provides firmware functions to manage the following 
  10:Drivers/STM32F3xx_HAL_Driver/Src/stm32f3xx_hal_flash_ex.c ****   *          functionalities of the FLASH peripheral:
  11:Drivers/STM32F3xx_HAL_Driver/Src/stm32f3xx_hal_flash_ex.c ****   *           + Extended Initialization/de-initialization functions
  12:Drivers/STM32F3xx_HAL_Driver/Src/stm32f3xx_hal_flash_ex.c ****   *           + Extended I/O operation functions
  13:Drivers/STM32F3xx_HAL_Driver/Src/stm32f3xx_hal_flash_ex.c ****   *           + Extended Peripheral Control functions 
  14:Drivers/STM32F3xx_HAL_Driver/Src/stm32f3xx_hal_flash_ex.c ****   *         
  15:Drivers/STM32F3xx_HAL_Driver/Src/stm32f3xx_hal_flash_ex.c ****   @verbatim
  16:Drivers/STM32F3xx_HAL_Driver/Src/stm32f3xx_hal_flash_ex.c ****   ==============================================================================
  17:Drivers/STM32F3xx_HAL_Driver/Src/stm32f3xx_hal_flash_ex.c ****                ##### Flash peripheral extended features  #####
  18:Drivers/STM32F3xx_HAL_Driver/Src/stm32f3xx_hal_flash_ex.c ****   ==============================================================================
  19:Drivers/STM32F3xx_HAL_Driver/Src/stm32f3xx_hal_flash_ex.c ****            
  20:Drivers/STM32F3xx_HAL_Driver/Src/stm32f3xx_hal_flash_ex.c ****                       ##### How to use this driver #####
  21:Drivers/STM32F3xx_HAL_Driver/Src/stm32f3xx_hal_flash_ex.c ****   ==============================================================================
  22:Drivers/STM32F3xx_HAL_Driver/Src/stm32f3xx_hal_flash_ex.c ****   [..] This driver provides functions to configure and program the FLASH memory 
  23:Drivers/STM32F3xx_HAL_Driver/Src/stm32f3xx_hal_flash_ex.c ****        of all STM32F3xxx devices. It includes
  24:Drivers/STM32F3xx_HAL_Driver/Src/stm32f3xx_hal_flash_ex.c ****        
  25:Drivers/STM32F3xx_HAL_Driver/Src/stm32f3xx_hal_flash_ex.c ****         (++) Set/Reset the write protection
  26:Drivers/STM32F3xx_HAL_Driver/Src/stm32f3xx_hal_flash_ex.c ****         (++) Program the user Option Bytes
  27:Drivers/STM32F3xx_HAL_Driver/Src/stm32f3xx_hal_flash_ex.c ****         (++) Get the Read protection Level
  28:Drivers/STM32F3xx_HAL_Driver/Src/stm32f3xx_hal_flash_ex.c ****   
  29:Drivers/STM32F3xx_HAL_Driver/Src/stm32f3xx_hal_flash_ex.c ****   @endverbatim
  30:Drivers/STM32F3xx_HAL_Driver/Src/stm32f3xx_hal_flash_ex.c ****   ******************************************************************************
  31:Drivers/STM32F3xx_HAL_Driver/Src/stm32f3xx_hal_flash_ex.c ****   * @attention
ARM GAS  /tmp/cc6tAl1r.s 			page 2


  32:Drivers/STM32F3xx_HAL_Driver/Src/stm32f3xx_hal_flash_ex.c ****   *
  33:Drivers/STM32F3xx_HAL_Driver/Src/stm32f3xx_hal_flash_ex.c ****   * <h2><center>&copy; COPYRIGHT(c) 2016 STMicroelectronics</center></h2>
  34:Drivers/STM32F3xx_HAL_Driver/Src/stm32f3xx_hal_flash_ex.c ****   *
  35:Drivers/STM32F3xx_HAL_Driver/Src/stm32f3xx_hal_flash_ex.c ****   * Redistribution and use in source and binary forms, with or without modification,
  36:Drivers/STM32F3xx_HAL_Driver/Src/stm32f3xx_hal_flash_ex.c ****   * are permitted provided that the following conditions are met:
  37:Drivers/STM32F3xx_HAL_Driver/Src/stm32f3xx_hal_flash_ex.c ****   *   1. Redistributions of source code must retain the above copyright notice,
  38:Drivers/STM32F3xx_HAL_Driver/Src/stm32f3xx_hal_flash_ex.c ****   *      this list of conditions and the following disclaimer.
  39:Drivers/STM32F3xx_HAL_Driver/Src/stm32f3xx_hal_flash_ex.c ****   *   2. Redistributions in binary form must reproduce the above copyright notice,
  40:Drivers/STM32F3xx_HAL_Driver/Src/stm32f3xx_hal_flash_ex.c ****   *      this list of conditions and the following disclaimer in the documentation
  41:Drivers/STM32F3xx_HAL_Driver/Src/stm32f3xx_hal_flash_ex.c ****   *      and/or other materials provided with the distribution.
  42:Drivers/STM32F3xx_HAL_Driver/Src/stm32f3xx_hal_flash_ex.c ****   *   3. Neither the name of STMicroelectronics nor the names of its contributors
  43:Drivers/STM32F3xx_HAL_Driver/Src/stm32f3xx_hal_flash_ex.c ****   *      may be used to endorse or promote products derived from this software
  44:Drivers/STM32F3xx_HAL_Driver/Src/stm32f3xx_hal_flash_ex.c ****   *      without specific prior written permission.
  45:Drivers/STM32F3xx_HAL_Driver/Src/stm32f3xx_hal_flash_ex.c ****   *
  46:Drivers/STM32F3xx_HAL_Driver/Src/stm32f3xx_hal_flash_ex.c ****   * THIS SOFTWARE IS PROVIDED BY THE COPYRIGHT HOLDERS AND CONTRIBUTORS "AS IS"
  47:Drivers/STM32F3xx_HAL_Driver/Src/stm32f3xx_hal_flash_ex.c ****   * AND ANY EXPRESS OR IMPLIED WARRANTIES, INCLUDING, BUT NOT LIMITED TO, THE
  48:Drivers/STM32F3xx_HAL_Driver/Src/stm32f3xx_hal_flash_ex.c ****   * IMPLIED WARRANTIES OF MERCHANTABILITY AND FITNESS FOR A PARTICULAR PURPOSE ARE
  49:Drivers/STM32F3xx_HAL_Driver/Src/stm32f3xx_hal_flash_ex.c ****   * DISCLAIMED. IN NO EVENT SHALL THE COPYRIGHT HOLDER OR CONTRIBUTORS BE LIABLE
  50:Drivers/STM32F3xx_HAL_Driver/Src/stm32f3xx_hal_flash_ex.c ****   * FOR ANY DIRECT, INDIRECT, INCIDENTAL, SPECIAL, EXEMPLARY, OR CONSEQUENTIAL
  51:Drivers/STM32F3xx_HAL_Driver/Src/stm32f3xx_hal_flash_ex.c ****   * DAMAGES (INCLUDING, BUT NOT LIMITED TO, PROCUREMENT OF SUBSTITUTE GOODS OR
  52:Drivers/STM32F3xx_HAL_Driver/Src/stm32f3xx_hal_flash_ex.c ****   * SERVICES; LOSS OF USE, DATA, OR PROFITS; OR BUSINESS INTERRUPTION) HOWEVER
  53:Drivers/STM32F3xx_HAL_Driver/Src/stm32f3xx_hal_flash_ex.c ****   * CAUSED AND ON ANY THEORY OF LIABILITY, WHETHER IN CONTRACT, STRICT LIABILITY,
  54:Drivers/STM32F3xx_HAL_Driver/Src/stm32f3xx_hal_flash_ex.c ****   * OR TORT (INCLUDING NEGLIGENCE OR OTHERWISE) ARISING IN ANY WAY OUT OF THE USE
  55:Drivers/STM32F3xx_HAL_Driver/Src/stm32f3xx_hal_flash_ex.c ****   * OF THIS SOFTWARE, EVEN IF ADVISED OF THE POSSIBILITY OF SUCH DAMAGE.
  56:Drivers/STM32F3xx_HAL_Driver/Src/stm32f3xx_hal_flash_ex.c ****   *
  57:Drivers/STM32F3xx_HAL_Driver/Src/stm32f3xx_hal_flash_ex.c ****   ******************************************************************************  
  58:Drivers/STM32F3xx_HAL_Driver/Src/stm32f3xx_hal_flash_ex.c ****   */
  59:Drivers/STM32F3xx_HAL_Driver/Src/stm32f3xx_hal_flash_ex.c **** 
  60:Drivers/STM32F3xx_HAL_Driver/Src/stm32f3xx_hal_flash_ex.c **** /* Includes ------------------------------------------------------------------*/
  61:Drivers/STM32F3xx_HAL_Driver/Src/stm32f3xx_hal_flash_ex.c **** #include "stm32f3xx_hal.h"
  62:Drivers/STM32F3xx_HAL_Driver/Src/stm32f3xx_hal_flash_ex.c **** 
  63:Drivers/STM32F3xx_HAL_Driver/Src/stm32f3xx_hal_flash_ex.c **** /** @addtogroup STM32F3xx_HAL_Driver
  64:Drivers/STM32F3xx_HAL_Driver/Src/stm32f3xx_hal_flash_ex.c ****   * @{
  65:Drivers/STM32F3xx_HAL_Driver/Src/stm32f3xx_hal_flash_ex.c ****   */
  66:Drivers/STM32F3xx_HAL_Driver/Src/stm32f3xx_hal_flash_ex.c **** #ifdef HAL_FLASH_MODULE_ENABLED
  67:Drivers/STM32F3xx_HAL_Driver/Src/stm32f3xx_hal_flash_ex.c **** 
  68:Drivers/STM32F3xx_HAL_Driver/Src/stm32f3xx_hal_flash_ex.c **** /** @addtogroup FLASH
  69:Drivers/STM32F3xx_HAL_Driver/Src/stm32f3xx_hal_flash_ex.c ****   * @{
  70:Drivers/STM32F3xx_HAL_Driver/Src/stm32f3xx_hal_flash_ex.c ****   */
  71:Drivers/STM32F3xx_HAL_Driver/Src/stm32f3xx_hal_flash_ex.c **** /** @addtogroup FLASH_Private_Variables
  72:Drivers/STM32F3xx_HAL_Driver/Src/stm32f3xx_hal_flash_ex.c ****  * @{
  73:Drivers/STM32F3xx_HAL_Driver/Src/stm32f3xx_hal_flash_ex.c ****  */
  74:Drivers/STM32F3xx_HAL_Driver/Src/stm32f3xx_hal_flash_ex.c **** /* Variables used for Erase pages under interruption*/
  75:Drivers/STM32F3xx_HAL_Driver/Src/stm32f3xx_hal_flash_ex.c **** extern FLASH_ProcessTypeDef pFlash;
  76:Drivers/STM32F3xx_HAL_Driver/Src/stm32f3xx_hal_flash_ex.c **** /**
  77:Drivers/STM32F3xx_HAL_Driver/Src/stm32f3xx_hal_flash_ex.c ****   * @}
  78:Drivers/STM32F3xx_HAL_Driver/Src/stm32f3xx_hal_flash_ex.c ****   */
  79:Drivers/STM32F3xx_HAL_Driver/Src/stm32f3xx_hal_flash_ex.c **** 
  80:Drivers/STM32F3xx_HAL_Driver/Src/stm32f3xx_hal_flash_ex.c **** /**
  81:Drivers/STM32F3xx_HAL_Driver/Src/stm32f3xx_hal_flash_ex.c ****   * @}
  82:Drivers/STM32F3xx_HAL_Driver/Src/stm32f3xx_hal_flash_ex.c ****   */
  83:Drivers/STM32F3xx_HAL_Driver/Src/stm32f3xx_hal_flash_ex.c ****   
  84:Drivers/STM32F3xx_HAL_Driver/Src/stm32f3xx_hal_flash_ex.c **** /** @defgroup FLASHEx FLASHEx
  85:Drivers/STM32F3xx_HAL_Driver/Src/stm32f3xx_hal_flash_ex.c ****   * @brief FLASH HAL Extension module driver
  86:Drivers/STM32F3xx_HAL_Driver/Src/stm32f3xx_hal_flash_ex.c ****   * @{
  87:Drivers/STM32F3xx_HAL_Driver/Src/stm32f3xx_hal_flash_ex.c ****   */
  88:Drivers/STM32F3xx_HAL_Driver/Src/stm32f3xx_hal_flash_ex.c **** 
ARM GAS  /tmp/cc6tAl1r.s 			page 3


  89:Drivers/STM32F3xx_HAL_Driver/Src/stm32f3xx_hal_flash_ex.c **** /* Private typedef -----------------------------------------------------------*/
  90:Drivers/STM32F3xx_HAL_Driver/Src/stm32f3xx_hal_flash_ex.c **** /* Private define ------------------------------------------------------------*/
  91:Drivers/STM32F3xx_HAL_Driver/Src/stm32f3xx_hal_flash_ex.c **** /** @defgroup FLASHEx_Private_Constants FLASHEx Private Constants
  92:Drivers/STM32F3xx_HAL_Driver/Src/stm32f3xx_hal_flash_ex.c ****  * @{
  93:Drivers/STM32F3xx_HAL_Driver/Src/stm32f3xx_hal_flash_ex.c ****  */
  94:Drivers/STM32F3xx_HAL_Driver/Src/stm32f3xx_hal_flash_ex.c **** #define FLASH_POSITION_IWDGSW_BIT        (uint32_t)POSITION_VAL(FLASH_OBR_IWDG_SW)
  95:Drivers/STM32F3xx_HAL_Driver/Src/stm32f3xx_hal_flash_ex.c **** #define FLASH_POSITION_OB_USERDATA0_BIT  (uint32_t)POSITION_VAL(FLASH_OBR_DATA0)
  96:Drivers/STM32F3xx_HAL_Driver/Src/stm32f3xx_hal_flash_ex.c **** #define FLASH_POSITION_OB_USERDATA1_BIT  (uint32_t)POSITION_VAL(FLASH_OBR_DATA1)
  97:Drivers/STM32F3xx_HAL_Driver/Src/stm32f3xx_hal_flash_ex.c **** /**
  98:Drivers/STM32F3xx_HAL_Driver/Src/stm32f3xx_hal_flash_ex.c ****   * @}
  99:Drivers/STM32F3xx_HAL_Driver/Src/stm32f3xx_hal_flash_ex.c ****   */
 100:Drivers/STM32F3xx_HAL_Driver/Src/stm32f3xx_hal_flash_ex.c **** 
 101:Drivers/STM32F3xx_HAL_Driver/Src/stm32f3xx_hal_flash_ex.c **** /* Private macro -------------------------------------------------------------*/
 102:Drivers/STM32F3xx_HAL_Driver/Src/stm32f3xx_hal_flash_ex.c **** /** @defgroup FLASHEx_Private_Macros FLASHEx Private Macros
 103:Drivers/STM32F3xx_HAL_Driver/Src/stm32f3xx_hal_flash_ex.c ****   * @{
 104:Drivers/STM32F3xx_HAL_Driver/Src/stm32f3xx_hal_flash_ex.c ****   */
 105:Drivers/STM32F3xx_HAL_Driver/Src/stm32f3xx_hal_flash_ex.c **** /**
 106:Drivers/STM32F3xx_HAL_Driver/Src/stm32f3xx_hal_flash_ex.c ****   * @}
 107:Drivers/STM32F3xx_HAL_Driver/Src/stm32f3xx_hal_flash_ex.c ****   */ 
 108:Drivers/STM32F3xx_HAL_Driver/Src/stm32f3xx_hal_flash_ex.c **** 
 109:Drivers/STM32F3xx_HAL_Driver/Src/stm32f3xx_hal_flash_ex.c **** /* Private variables ---------------------------------------------------------*/
 110:Drivers/STM32F3xx_HAL_Driver/Src/stm32f3xx_hal_flash_ex.c **** /* Private function prototypes -----------------------------------------------*/
 111:Drivers/STM32F3xx_HAL_Driver/Src/stm32f3xx_hal_flash_ex.c **** /** @defgroup FLASHEx_Private_Functions FLASHEx Private Functions
 112:Drivers/STM32F3xx_HAL_Driver/Src/stm32f3xx_hal_flash_ex.c ****  * @{
 113:Drivers/STM32F3xx_HAL_Driver/Src/stm32f3xx_hal_flash_ex.c ****  */
 114:Drivers/STM32F3xx_HAL_Driver/Src/stm32f3xx_hal_flash_ex.c **** /* Erase operations */
 115:Drivers/STM32F3xx_HAL_Driver/Src/stm32f3xx_hal_flash_ex.c **** static void              FLASH_MassErase(void);
 116:Drivers/STM32F3xx_HAL_Driver/Src/stm32f3xx_hal_flash_ex.c **** void    FLASH_PageErase(uint32_t PageAddress);
 117:Drivers/STM32F3xx_HAL_Driver/Src/stm32f3xx_hal_flash_ex.c **** 
 118:Drivers/STM32F3xx_HAL_Driver/Src/stm32f3xx_hal_flash_ex.c **** /* Option bytes control */
 119:Drivers/STM32F3xx_HAL_Driver/Src/stm32f3xx_hal_flash_ex.c **** static HAL_StatusTypeDef FLASH_OB_EnableWRP(uint32_t WriteProtectPage);
 120:Drivers/STM32F3xx_HAL_Driver/Src/stm32f3xx_hal_flash_ex.c **** static HAL_StatusTypeDef FLASH_OB_DisableWRP(uint32_t WriteProtectPage);
 121:Drivers/STM32F3xx_HAL_Driver/Src/stm32f3xx_hal_flash_ex.c **** static HAL_StatusTypeDef FLASH_OB_RDP_LevelConfig(uint8_t ReadProtectLevel);
 122:Drivers/STM32F3xx_HAL_Driver/Src/stm32f3xx_hal_flash_ex.c **** static HAL_StatusTypeDef FLASH_OB_UserConfig(uint8_t UserConfig);
 123:Drivers/STM32F3xx_HAL_Driver/Src/stm32f3xx_hal_flash_ex.c **** static HAL_StatusTypeDef FLASH_OB_ProgramData(uint32_t Address, uint8_t Data);
 124:Drivers/STM32F3xx_HAL_Driver/Src/stm32f3xx_hal_flash_ex.c **** static uint32_t          FLASH_OB_GetWRP(void);
 125:Drivers/STM32F3xx_HAL_Driver/Src/stm32f3xx_hal_flash_ex.c **** static uint32_t          FLASH_OB_GetRDP(void);
 126:Drivers/STM32F3xx_HAL_Driver/Src/stm32f3xx_hal_flash_ex.c **** static uint8_t           FLASH_OB_GetUser(void);
 127:Drivers/STM32F3xx_HAL_Driver/Src/stm32f3xx_hal_flash_ex.c **** 
 128:Drivers/STM32F3xx_HAL_Driver/Src/stm32f3xx_hal_flash_ex.c **** /**
 129:Drivers/STM32F3xx_HAL_Driver/Src/stm32f3xx_hal_flash_ex.c ****   * @}
 130:Drivers/STM32F3xx_HAL_Driver/Src/stm32f3xx_hal_flash_ex.c ****   */
 131:Drivers/STM32F3xx_HAL_Driver/Src/stm32f3xx_hal_flash_ex.c **** 
 132:Drivers/STM32F3xx_HAL_Driver/Src/stm32f3xx_hal_flash_ex.c **** /* Exported functions ---------------------------------------------------------*/
 133:Drivers/STM32F3xx_HAL_Driver/Src/stm32f3xx_hal_flash_ex.c **** /** @defgroup FLASHEx_Exported_Functions FLASHEx Exported Functions
 134:Drivers/STM32F3xx_HAL_Driver/Src/stm32f3xx_hal_flash_ex.c ****   * @{
 135:Drivers/STM32F3xx_HAL_Driver/Src/stm32f3xx_hal_flash_ex.c ****   */
 136:Drivers/STM32F3xx_HAL_Driver/Src/stm32f3xx_hal_flash_ex.c ****   
 137:Drivers/STM32F3xx_HAL_Driver/Src/stm32f3xx_hal_flash_ex.c **** /** @defgroup FLASHEx_Exported_Functions_Group1 FLASHEx Memory Erasing functions
 138:Drivers/STM32F3xx_HAL_Driver/Src/stm32f3xx_hal_flash_ex.c ****  *  @brief   FLASH Memory Erasing functions
 139:Drivers/STM32F3xx_HAL_Driver/Src/stm32f3xx_hal_flash_ex.c ****   *
 140:Drivers/STM32F3xx_HAL_Driver/Src/stm32f3xx_hal_flash_ex.c **** @verbatim   
 141:Drivers/STM32F3xx_HAL_Driver/Src/stm32f3xx_hal_flash_ex.c ****   ==============================================================================
 142:Drivers/STM32F3xx_HAL_Driver/Src/stm32f3xx_hal_flash_ex.c ****                 ##### FLASH Erasing Programming functions ##### 
 143:Drivers/STM32F3xx_HAL_Driver/Src/stm32f3xx_hal_flash_ex.c ****   ==============================================================================
 144:Drivers/STM32F3xx_HAL_Driver/Src/stm32f3xx_hal_flash_ex.c **** 
 145:Drivers/STM32F3xx_HAL_Driver/Src/stm32f3xx_hal_flash_ex.c ****     [..] The FLASH Memory Erasing functions, includes the following functions:
ARM GAS  /tmp/cc6tAl1r.s 			page 4


 146:Drivers/STM32F3xx_HAL_Driver/Src/stm32f3xx_hal_flash_ex.c ****     (+) @ref HAL_FLASHEx_Erase: return only when erase has been done
 147:Drivers/STM32F3xx_HAL_Driver/Src/stm32f3xx_hal_flash_ex.c ****     (+) @ref HAL_FLASHEx_Erase_IT: end of erase is done when @ref HAL_FLASH_EndOfOperationCallback 
 148:Drivers/STM32F3xx_HAL_Driver/Src/stm32f3xx_hal_flash_ex.c ****         is called with parameter 0xFFFFFFFF
 149:Drivers/STM32F3xx_HAL_Driver/Src/stm32f3xx_hal_flash_ex.c **** 
 150:Drivers/STM32F3xx_HAL_Driver/Src/stm32f3xx_hal_flash_ex.c ****     [..] Any operation of erase should follow these steps:
 151:Drivers/STM32F3xx_HAL_Driver/Src/stm32f3xx_hal_flash_ex.c ****     (#) Call the @ref HAL_FLASH_Unlock() function to enable the flash control register and 
 152:Drivers/STM32F3xx_HAL_Driver/Src/stm32f3xx_hal_flash_ex.c ****         program memory access.
 153:Drivers/STM32F3xx_HAL_Driver/Src/stm32f3xx_hal_flash_ex.c ****     (#) Call the desired function to erase page.
 154:Drivers/STM32F3xx_HAL_Driver/Src/stm32f3xx_hal_flash_ex.c ****     (#) Call the @ref HAL_FLASH_Lock() to disable the flash program memory access 
 155:Drivers/STM32F3xx_HAL_Driver/Src/stm32f3xx_hal_flash_ex.c ****        (recommended to protect the FLASH memory against possible unwanted operation).
 156:Drivers/STM32F3xx_HAL_Driver/Src/stm32f3xx_hal_flash_ex.c **** 
 157:Drivers/STM32F3xx_HAL_Driver/Src/stm32f3xx_hal_flash_ex.c **** @endverbatim
 158:Drivers/STM32F3xx_HAL_Driver/Src/stm32f3xx_hal_flash_ex.c ****   * @{
 159:Drivers/STM32F3xx_HAL_Driver/Src/stm32f3xx_hal_flash_ex.c ****   */
 160:Drivers/STM32F3xx_HAL_Driver/Src/stm32f3xx_hal_flash_ex.c ****   
 161:Drivers/STM32F3xx_HAL_Driver/Src/stm32f3xx_hal_flash_ex.c **** 
 162:Drivers/STM32F3xx_HAL_Driver/Src/stm32f3xx_hal_flash_ex.c **** /**
 163:Drivers/STM32F3xx_HAL_Driver/Src/stm32f3xx_hal_flash_ex.c ****   * @brief  Perform a mass erase or erase the specified FLASH memory pages
 164:Drivers/STM32F3xx_HAL_Driver/Src/stm32f3xx_hal_flash_ex.c ****   * @note   To correctly run this function, the @ref HAL_FLASH_Unlock() function
 165:Drivers/STM32F3xx_HAL_Driver/Src/stm32f3xx_hal_flash_ex.c ****   *         must be called before.
 166:Drivers/STM32F3xx_HAL_Driver/Src/stm32f3xx_hal_flash_ex.c ****   *         Call the @ref HAL_FLASH_Lock() to disable the flash memory access 
 167:Drivers/STM32F3xx_HAL_Driver/Src/stm32f3xx_hal_flash_ex.c ****   *         (recommended to protect the FLASH memory against possible unwanted operation)
 168:Drivers/STM32F3xx_HAL_Driver/Src/stm32f3xx_hal_flash_ex.c ****   * @param[in]  pEraseInit pointer to an FLASH_EraseInitTypeDef structure that
 169:Drivers/STM32F3xx_HAL_Driver/Src/stm32f3xx_hal_flash_ex.c ****   *         contains the configuration information for the erasing.
 170:Drivers/STM32F3xx_HAL_Driver/Src/stm32f3xx_hal_flash_ex.c ****   *
 171:Drivers/STM32F3xx_HAL_Driver/Src/stm32f3xx_hal_flash_ex.c ****   * @param[out]  PageError pointer to variable  that
 172:Drivers/STM32F3xx_HAL_Driver/Src/stm32f3xx_hal_flash_ex.c ****   *         contains the configuration information on faulty page in case of error
 173:Drivers/STM32F3xx_HAL_Driver/Src/stm32f3xx_hal_flash_ex.c ****   *         (0xFFFFFFFF means that all the pages have been correctly erased)
 174:Drivers/STM32F3xx_HAL_Driver/Src/stm32f3xx_hal_flash_ex.c ****   *
 175:Drivers/STM32F3xx_HAL_Driver/Src/stm32f3xx_hal_flash_ex.c ****   * @retval HAL_StatusTypeDef HAL Status
 176:Drivers/STM32F3xx_HAL_Driver/Src/stm32f3xx_hal_flash_ex.c ****   */
 177:Drivers/STM32F3xx_HAL_Driver/Src/stm32f3xx_hal_flash_ex.c **** HAL_StatusTypeDef HAL_FLASHEx_Erase(FLASH_EraseInitTypeDef *pEraseInit, uint32_t *PageError)
 178:Drivers/STM32F3xx_HAL_Driver/Src/stm32f3xx_hal_flash_ex.c **** {
 179:Drivers/STM32F3xx_HAL_Driver/Src/stm32f3xx_hal_flash_ex.c ****   HAL_StatusTypeDef status = HAL_ERROR;
 180:Drivers/STM32F3xx_HAL_Driver/Src/stm32f3xx_hal_flash_ex.c ****   uint32_t address = 0U;
 181:Drivers/STM32F3xx_HAL_Driver/Src/stm32f3xx_hal_flash_ex.c **** 
 182:Drivers/STM32F3xx_HAL_Driver/Src/stm32f3xx_hal_flash_ex.c ****   /* Process Locked */
 183:Drivers/STM32F3xx_HAL_Driver/Src/stm32f3xx_hal_flash_ex.c ****   __HAL_LOCK(&pFlash);
 184:Drivers/STM32F3xx_HAL_Driver/Src/stm32f3xx_hal_flash_ex.c **** 
 185:Drivers/STM32F3xx_HAL_Driver/Src/stm32f3xx_hal_flash_ex.c ****   /* Check the parameters */
 186:Drivers/STM32F3xx_HAL_Driver/Src/stm32f3xx_hal_flash_ex.c ****   assert_param(IS_FLASH_TYPEERASE(pEraseInit->TypeErase));
 187:Drivers/STM32F3xx_HAL_Driver/Src/stm32f3xx_hal_flash_ex.c **** 
 188:Drivers/STM32F3xx_HAL_Driver/Src/stm32f3xx_hal_flash_ex.c ****   if (pEraseInit->TypeErase == FLASH_TYPEERASE_MASSERASE)
 189:Drivers/STM32F3xx_HAL_Driver/Src/stm32f3xx_hal_flash_ex.c ****   {
 190:Drivers/STM32F3xx_HAL_Driver/Src/stm32f3xx_hal_flash_ex.c ****       /* Mass Erase requested for Bank1 */
 191:Drivers/STM32F3xx_HAL_Driver/Src/stm32f3xx_hal_flash_ex.c ****       /* Wait for last operation to be completed */
 192:Drivers/STM32F3xx_HAL_Driver/Src/stm32f3xx_hal_flash_ex.c ****       if (FLASH_WaitForLastOperation((uint32_t)FLASH_TIMEOUT_VALUE) == HAL_OK)
 193:Drivers/STM32F3xx_HAL_Driver/Src/stm32f3xx_hal_flash_ex.c ****       {
 194:Drivers/STM32F3xx_HAL_Driver/Src/stm32f3xx_hal_flash_ex.c ****         /*Mass erase to be done*/
 195:Drivers/STM32F3xx_HAL_Driver/Src/stm32f3xx_hal_flash_ex.c ****         FLASH_MassErase();
 196:Drivers/STM32F3xx_HAL_Driver/Src/stm32f3xx_hal_flash_ex.c ****         
 197:Drivers/STM32F3xx_HAL_Driver/Src/stm32f3xx_hal_flash_ex.c ****         /* Wait for last operation to be completed */
 198:Drivers/STM32F3xx_HAL_Driver/Src/stm32f3xx_hal_flash_ex.c ****         status = FLASH_WaitForLastOperation((uint32_t)FLASH_TIMEOUT_VALUE);
 199:Drivers/STM32F3xx_HAL_Driver/Src/stm32f3xx_hal_flash_ex.c ****         
 200:Drivers/STM32F3xx_HAL_Driver/Src/stm32f3xx_hal_flash_ex.c ****         /* If the erase operation is completed, disable the MER Bit */
 201:Drivers/STM32F3xx_HAL_Driver/Src/stm32f3xx_hal_flash_ex.c ****         CLEAR_BIT(FLASH->CR, FLASH_CR_MER);
 202:Drivers/STM32F3xx_HAL_Driver/Src/stm32f3xx_hal_flash_ex.c ****       }
ARM GAS  /tmp/cc6tAl1r.s 			page 5


 203:Drivers/STM32F3xx_HAL_Driver/Src/stm32f3xx_hal_flash_ex.c ****   }
 204:Drivers/STM32F3xx_HAL_Driver/Src/stm32f3xx_hal_flash_ex.c ****   else
 205:Drivers/STM32F3xx_HAL_Driver/Src/stm32f3xx_hal_flash_ex.c ****   {
 206:Drivers/STM32F3xx_HAL_Driver/Src/stm32f3xx_hal_flash_ex.c ****     /* Page Erase is requested */
 207:Drivers/STM32F3xx_HAL_Driver/Src/stm32f3xx_hal_flash_ex.c ****     /* Check the parameters */
 208:Drivers/STM32F3xx_HAL_Driver/Src/stm32f3xx_hal_flash_ex.c ****     assert_param(IS_FLASH_PROGRAM_ADDRESS(pEraseInit->PageAddress));
 209:Drivers/STM32F3xx_HAL_Driver/Src/stm32f3xx_hal_flash_ex.c ****     assert_param(IS_FLASH_NB_PAGES(pEraseInit->PageAddress, pEraseInit->NbPages));
 210:Drivers/STM32F3xx_HAL_Driver/Src/stm32f3xx_hal_flash_ex.c ****     
 211:Drivers/STM32F3xx_HAL_Driver/Src/stm32f3xx_hal_flash_ex.c ****       /* Page Erase requested on address located on bank1 */
 212:Drivers/STM32F3xx_HAL_Driver/Src/stm32f3xx_hal_flash_ex.c ****       /* Wait for last operation to be completed */
 213:Drivers/STM32F3xx_HAL_Driver/Src/stm32f3xx_hal_flash_ex.c ****       if (FLASH_WaitForLastOperation((uint32_t)FLASH_TIMEOUT_VALUE) == HAL_OK)
 214:Drivers/STM32F3xx_HAL_Driver/Src/stm32f3xx_hal_flash_ex.c ****       {
 215:Drivers/STM32F3xx_HAL_Driver/Src/stm32f3xx_hal_flash_ex.c ****         /*Initialization of PageError variable*/
 216:Drivers/STM32F3xx_HAL_Driver/Src/stm32f3xx_hal_flash_ex.c ****         *PageError = 0xFFFFFFFFU;
 217:Drivers/STM32F3xx_HAL_Driver/Src/stm32f3xx_hal_flash_ex.c ****         
 218:Drivers/STM32F3xx_HAL_Driver/Src/stm32f3xx_hal_flash_ex.c ****         /* Erase page by page to be done*/
 219:Drivers/STM32F3xx_HAL_Driver/Src/stm32f3xx_hal_flash_ex.c ****         for(address = pEraseInit->PageAddress;
 220:Drivers/STM32F3xx_HAL_Driver/Src/stm32f3xx_hal_flash_ex.c ****             address < ((pEraseInit->NbPages * FLASH_PAGE_SIZE) + pEraseInit->PageAddress);
 221:Drivers/STM32F3xx_HAL_Driver/Src/stm32f3xx_hal_flash_ex.c ****             address += FLASH_PAGE_SIZE)
 222:Drivers/STM32F3xx_HAL_Driver/Src/stm32f3xx_hal_flash_ex.c ****         {
 223:Drivers/STM32F3xx_HAL_Driver/Src/stm32f3xx_hal_flash_ex.c ****           FLASH_PageErase(address);
 224:Drivers/STM32F3xx_HAL_Driver/Src/stm32f3xx_hal_flash_ex.c ****           
 225:Drivers/STM32F3xx_HAL_Driver/Src/stm32f3xx_hal_flash_ex.c ****           /* Wait for last operation to be completed */
 226:Drivers/STM32F3xx_HAL_Driver/Src/stm32f3xx_hal_flash_ex.c ****           status = FLASH_WaitForLastOperation((uint32_t)FLASH_TIMEOUT_VALUE);
 227:Drivers/STM32F3xx_HAL_Driver/Src/stm32f3xx_hal_flash_ex.c ****           
 228:Drivers/STM32F3xx_HAL_Driver/Src/stm32f3xx_hal_flash_ex.c ****           /* If the erase operation is completed, disable the PER Bit */
 229:Drivers/STM32F3xx_HAL_Driver/Src/stm32f3xx_hal_flash_ex.c ****           CLEAR_BIT(FLASH->CR, FLASH_CR_PER);
 230:Drivers/STM32F3xx_HAL_Driver/Src/stm32f3xx_hal_flash_ex.c ****           
 231:Drivers/STM32F3xx_HAL_Driver/Src/stm32f3xx_hal_flash_ex.c ****           if (status != HAL_OK)
 232:Drivers/STM32F3xx_HAL_Driver/Src/stm32f3xx_hal_flash_ex.c ****           {
 233:Drivers/STM32F3xx_HAL_Driver/Src/stm32f3xx_hal_flash_ex.c ****             /* In case of error, stop erase procedure and return the faulty address */
 234:Drivers/STM32F3xx_HAL_Driver/Src/stm32f3xx_hal_flash_ex.c ****             *PageError = address;
 235:Drivers/STM32F3xx_HAL_Driver/Src/stm32f3xx_hal_flash_ex.c ****             break;
 236:Drivers/STM32F3xx_HAL_Driver/Src/stm32f3xx_hal_flash_ex.c ****           }
 237:Drivers/STM32F3xx_HAL_Driver/Src/stm32f3xx_hal_flash_ex.c ****         }
 238:Drivers/STM32F3xx_HAL_Driver/Src/stm32f3xx_hal_flash_ex.c ****       }
 239:Drivers/STM32F3xx_HAL_Driver/Src/stm32f3xx_hal_flash_ex.c ****   }
 240:Drivers/STM32F3xx_HAL_Driver/Src/stm32f3xx_hal_flash_ex.c **** 
 241:Drivers/STM32F3xx_HAL_Driver/Src/stm32f3xx_hal_flash_ex.c ****   /* Process Unlocked */
 242:Drivers/STM32F3xx_HAL_Driver/Src/stm32f3xx_hal_flash_ex.c ****   __HAL_UNLOCK(&pFlash);
 243:Drivers/STM32F3xx_HAL_Driver/Src/stm32f3xx_hal_flash_ex.c **** 
 244:Drivers/STM32F3xx_HAL_Driver/Src/stm32f3xx_hal_flash_ex.c ****   return status;
 245:Drivers/STM32F3xx_HAL_Driver/Src/stm32f3xx_hal_flash_ex.c **** }
 246:Drivers/STM32F3xx_HAL_Driver/Src/stm32f3xx_hal_flash_ex.c **** 
 247:Drivers/STM32F3xx_HAL_Driver/Src/stm32f3xx_hal_flash_ex.c **** /**
 248:Drivers/STM32F3xx_HAL_Driver/Src/stm32f3xx_hal_flash_ex.c ****   * @brief  Perform a mass erase or erase the specified FLASH memory pages with interrupt enabled
 249:Drivers/STM32F3xx_HAL_Driver/Src/stm32f3xx_hal_flash_ex.c ****   * @note   To correctly run this function, the @ref HAL_FLASH_Unlock() function
 250:Drivers/STM32F3xx_HAL_Driver/Src/stm32f3xx_hal_flash_ex.c ****   *         must be called before.
 251:Drivers/STM32F3xx_HAL_Driver/Src/stm32f3xx_hal_flash_ex.c ****   *         Call the @ref HAL_FLASH_Lock() to disable the flash memory access 
 252:Drivers/STM32F3xx_HAL_Driver/Src/stm32f3xx_hal_flash_ex.c ****   *         (recommended to protect the FLASH memory against possible unwanted operation)
 253:Drivers/STM32F3xx_HAL_Driver/Src/stm32f3xx_hal_flash_ex.c ****   * @param  pEraseInit pointer to an FLASH_EraseInitTypeDef structure that
 254:Drivers/STM32F3xx_HAL_Driver/Src/stm32f3xx_hal_flash_ex.c ****   *         contains the configuration information for the erasing.
 255:Drivers/STM32F3xx_HAL_Driver/Src/stm32f3xx_hal_flash_ex.c ****   *
 256:Drivers/STM32F3xx_HAL_Driver/Src/stm32f3xx_hal_flash_ex.c ****   * @retval HAL_StatusTypeDef HAL Status
 257:Drivers/STM32F3xx_HAL_Driver/Src/stm32f3xx_hal_flash_ex.c ****   */
 258:Drivers/STM32F3xx_HAL_Driver/Src/stm32f3xx_hal_flash_ex.c **** HAL_StatusTypeDef HAL_FLASHEx_Erase_IT(FLASH_EraseInitTypeDef *pEraseInit)
 259:Drivers/STM32F3xx_HAL_Driver/Src/stm32f3xx_hal_flash_ex.c **** {
ARM GAS  /tmp/cc6tAl1r.s 			page 6


 260:Drivers/STM32F3xx_HAL_Driver/Src/stm32f3xx_hal_flash_ex.c ****   HAL_StatusTypeDef status = HAL_OK;
 261:Drivers/STM32F3xx_HAL_Driver/Src/stm32f3xx_hal_flash_ex.c **** 
 262:Drivers/STM32F3xx_HAL_Driver/Src/stm32f3xx_hal_flash_ex.c ****   /* Process Locked */
 263:Drivers/STM32F3xx_HAL_Driver/Src/stm32f3xx_hal_flash_ex.c ****   __HAL_LOCK(&pFlash);
 264:Drivers/STM32F3xx_HAL_Driver/Src/stm32f3xx_hal_flash_ex.c **** 
 265:Drivers/STM32F3xx_HAL_Driver/Src/stm32f3xx_hal_flash_ex.c ****   /* If procedure already ongoing, reject the next one */
 266:Drivers/STM32F3xx_HAL_Driver/Src/stm32f3xx_hal_flash_ex.c ****   if (pFlash.ProcedureOnGoing != FLASH_PROC_NONE)
 267:Drivers/STM32F3xx_HAL_Driver/Src/stm32f3xx_hal_flash_ex.c ****   {
 268:Drivers/STM32F3xx_HAL_Driver/Src/stm32f3xx_hal_flash_ex.c ****     return HAL_ERROR;
 269:Drivers/STM32F3xx_HAL_Driver/Src/stm32f3xx_hal_flash_ex.c ****   }
 270:Drivers/STM32F3xx_HAL_Driver/Src/stm32f3xx_hal_flash_ex.c ****   
 271:Drivers/STM32F3xx_HAL_Driver/Src/stm32f3xx_hal_flash_ex.c ****   /* Check the parameters */
 272:Drivers/STM32F3xx_HAL_Driver/Src/stm32f3xx_hal_flash_ex.c ****   assert_param(IS_FLASH_TYPEERASE(pEraseInit->TypeErase));
 273:Drivers/STM32F3xx_HAL_Driver/Src/stm32f3xx_hal_flash_ex.c **** 
 274:Drivers/STM32F3xx_HAL_Driver/Src/stm32f3xx_hal_flash_ex.c ****   /* Enable End of FLASH Operation and Error source interrupts */
 275:Drivers/STM32F3xx_HAL_Driver/Src/stm32f3xx_hal_flash_ex.c ****   __HAL_FLASH_ENABLE_IT(FLASH_IT_EOP | FLASH_IT_ERR);
 276:Drivers/STM32F3xx_HAL_Driver/Src/stm32f3xx_hal_flash_ex.c **** 
 277:Drivers/STM32F3xx_HAL_Driver/Src/stm32f3xx_hal_flash_ex.c ****   if (pEraseInit->TypeErase == FLASH_TYPEERASE_MASSERASE)
 278:Drivers/STM32F3xx_HAL_Driver/Src/stm32f3xx_hal_flash_ex.c ****   {
 279:Drivers/STM32F3xx_HAL_Driver/Src/stm32f3xx_hal_flash_ex.c ****     /*Mass erase to be done*/
 280:Drivers/STM32F3xx_HAL_Driver/Src/stm32f3xx_hal_flash_ex.c ****     pFlash.ProcedureOnGoing = FLASH_PROC_MASSERASE;
 281:Drivers/STM32F3xx_HAL_Driver/Src/stm32f3xx_hal_flash_ex.c ****         FLASH_MassErase();
 282:Drivers/STM32F3xx_HAL_Driver/Src/stm32f3xx_hal_flash_ex.c ****   }
 283:Drivers/STM32F3xx_HAL_Driver/Src/stm32f3xx_hal_flash_ex.c ****   else
 284:Drivers/STM32F3xx_HAL_Driver/Src/stm32f3xx_hal_flash_ex.c ****   {
 285:Drivers/STM32F3xx_HAL_Driver/Src/stm32f3xx_hal_flash_ex.c ****     /* Erase by page to be done*/
 286:Drivers/STM32F3xx_HAL_Driver/Src/stm32f3xx_hal_flash_ex.c **** 
 287:Drivers/STM32F3xx_HAL_Driver/Src/stm32f3xx_hal_flash_ex.c ****     /* Check the parameters */
 288:Drivers/STM32F3xx_HAL_Driver/Src/stm32f3xx_hal_flash_ex.c ****     assert_param(IS_FLASH_PROGRAM_ADDRESS(pEraseInit->PageAddress));
 289:Drivers/STM32F3xx_HAL_Driver/Src/stm32f3xx_hal_flash_ex.c ****     assert_param(IS_FLASH_NB_PAGES(pEraseInit->PageAddress, pEraseInit->NbPages));
 290:Drivers/STM32F3xx_HAL_Driver/Src/stm32f3xx_hal_flash_ex.c **** 
 291:Drivers/STM32F3xx_HAL_Driver/Src/stm32f3xx_hal_flash_ex.c ****     pFlash.ProcedureOnGoing = FLASH_PROC_PAGEERASE;
 292:Drivers/STM32F3xx_HAL_Driver/Src/stm32f3xx_hal_flash_ex.c ****     pFlash.DataRemaining = pEraseInit->NbPages;
 293:Drivers/STM32F3xx_HAL_Driver/Src/stm32f3xx_hal_flash_ex.c ****     pFlash.Address = pEraseInit->PageAddress;
 294:Drivers/STM32F3xx_HAL_Driver/Src/stm32f3xx_hal_flash_ex.c **** 
 295:Drivers/STM32F3xx_HAL_Driver/Src/stm32f3xx_hal_flash_ex.c ****     /*Erase 1st page and wait for IT*/
 296:Drivers/STM32F3xx_HAL_Driver/Src/stm32f3xx_hal_flash_ex.c ****     FLASH_PageErase(pEraseInit->PageAddress);
 297:Drivers/STM32F3xx_HAL_Driver/Src/stm32f3xx_hal_flash_ex.c ****   }
 298:Drivers/STM32F3xx_HAL_Driver/Src/stm32f3xx_hal_flash_ex.c **** 
 299:Drivers/STM32F3xx_HAL_Driver/Src/stm32f3xx_hal_flash_ex.c ****   return status;
 300:Drivers/STM32F3xx_HAL_Driver/Src/stm32f3xx_hal_flash_ex.c **** }
 301:Drivers/STM32F3xx_HAL_Driver/Src/stm32f3xx_hal_flash_ex.c **** 
 302:Drivers/STM32F3xx_HAL_Driver/Src/stm32f3xx_hal_flash_ex.c **** /**
 303:Drivers/STM32F3xx_HAL_Driver/Src/stm32f3xx_hal_flash_ex.c ****   * @}
 304:Drivers/STM32F3xx_HAL_Driver/Src/stm32f3xx_hal_flash_ex.c ****   */
 305:Drivers/STM32F3xx_HAL_Driver/Src/stm32f3xx_hal_flash_ex.c **** 
 306:Drivers/STM32F3xx_HAL_Driver/Src/stm32f3xx_hal_flash_ex.c **** /** @defgroup FLASHEx_Exported_Functions_Group2 Option Bytes Programming functions
 307:Drivers/STM32F3xx_HAL_Driver/Src/stm32f3xx_hal_flash_ex.c ****  *  @brief   Option Bytes Programming functions
 308:Drivers/STM32F3xx_HAL_Driver/Src/stm32f3xx_hal_flash_ex.c ****   *
 309:Drivers/STM32F3xx_HAL_Driver/Src/stm32f3xx_hal_flash_ex.c **** @verbatim   
 310:Drivers/STM32F3xx_HAL_Driver/Src/stm32f3xx_hal_flash_ex.c ****   ==============================================================================
 311:Drivers/STM32F3xx_HAL_Driver/Src/stm32f3xx_hal_flash_ex.c ****                 ##### Option Bytes Programming functions ##### 
 312:Drivers/STM32F3xx_HAL_Driver/Src/stm32f3xx_hal_flash_ex.c ****   ==============================================================================  
 313:Drivers/STM32F3xx_HAL_Driver/Src/stm32f3xx_hal_flash_ex.c ****     [..]
 314:Drivers/STM32F3xx_HAL_Driver/Src/stm32f3xx_hal_flash_ex.c ****     This subsection provides a set of functions allowing to control the FLASH 
 315:Drivers/STM32F3xx_HAL_Driver/Src/stm32f3xx_hal_flash_ex.c ****     option bytes operations.
 316:Drivers/STM32F3xx_HAL_Driver/Src/stm32f3xx_hal_flash_ex.c **** 
ARM GAS  /tmp/cc6tAl1r.s 			page 7


 317:Drivers/STM32F3xx_HAL_Driver/Src/stm32f3xx_hal_flash_ex.c **** @endverbatim
 318:Drivers/STM32F3xx_HAL_Driver/Src/stm32f3xx_hal_flash_ex.c ****   * @{
 319:Drivers/STM32F3xx_HAL_Driver/Src/stm32f3xx_hal_flash_ex.c ****   */
 320:Drivers/STM32F3xx_HAL_Driver/Src/stm32f3xx_hal_flash_ex.c **** 
 321:Drivers/STM32F3xx_HAL_Driver/Src/stm32f3xx_hal_flash_ex.c **** /**
 322:Drivers/STM32F3xx_HAL_Driver/Src/stm32f3xx_hal_flash_ex.c ****   * @brief  Erases the FLASH option bytes.
 323:Drivers/STM32F3xx_HAL_Driver/Src/stm32f3xx_hal_flash_ex.c ****   * @note   This functions erases all option bytes except the Read protection (RDP).
 324:Drivers/STM32F3xx_HAL_Driver/Src/stm32f3xx_hal_flash_ex.c ****   *         The function @ref HAL_FLASH_Unlock() should be called before to unlock the FLASH interf
 325:Drivers/STM32F3xx_HAL_Driver/Src/stm32f3xx_hal_flash_ex.c ****   *         The function @ref HAL_FLASH_OB_Unlock() should be called before to unlock the options b
 326:Drivers/STM32F3xx_HAL_Driver/Src/stm32f3xx_hal_flash_ex.c ****   *         The function @ref HAL_FLASH_OB_Launch() should be called after to force the reload of t
 327:Drivers/STM32F3xx_HAL_Driver/Src/stm32f3xx_hal_flash_ex.c ****   *         (system reset will occur)
 328:Drivers/STM32F3xx_HAL_Driver/Src/stm32f3xx_hal_flash_ex.c ****   * @retval HAL status
 329:Drivers/STM32F3xx_HAL_Driver/Src/stm32f3xx_hal_flash_ex.c ****   */
 330:Drivers/STM32F3xx_HAL_Driver/Src/stm32f3xx_hal_flash_ex.c **** 
 331:Drivers/STM32F3xx_HAL_Driver/Src/stm32f3xx_hal_flash_ex.c **** HAL_StatusTypeDef HAL_FLASHEx_OBErase(void)
 332:Drivers/STM32F3xx_HAL_Driver/Src/stm32f3xx_hal_flash_ex.c **** {
 333:Drivers/STM32F3xx_HAL_Driver/Src/stm32f3xx_hal_flash_ex.c ****   uint8_t rdptmp = OB_RDP_LEVEL_0;
 334:Drivers/STM32F3xx_HAL_Driver/Src/stm32f3xx_hal_flash_ex.c ****   HAL_StatusTypeDef status = HAL_ERROR;
 335:Drivers/STM32F3xx_HAL_Driver/Src/stm32f3xx_hal_flash_ex.c **** 
 336:Drivers/STM32F3xx_HAL_Driver/Src/stm32f3xx_hal_flash_ex.c ****   /* Get the actual read protection Option Byte value */
 337:Drivers/STM32F3xx_HAL_Driver/Src/stm32f3xx_hal_flash_ex.c ****   rdptmp = FLASH_OB_GetRDP();
 338:Drivers/STM32F3xx_HAL_Driver/Src/stm32f3xx_hal_flash_ex.c **** 
 339:Drivers/STM32F3xx_HAL_Driver/Src/stm32f3xx_hal_flash_ex.c ****   /* Wait for last operation to be completed */
 340:Drivers/STM32F3xx_HAL_Driver/Src/stm32f3xx_hal_flash_ex.c ****   status = FLASH_WaitForLastOperation((uint32_t)FLASH_TIMEOUT_VALUE);
 341:Drivers/STM32F3xx_HAL_Driver/Src/stm32f3xx_hal_flash_ex.c **** 
 342:Drivers/STM32F3xx_HAL_Driver/Src/stm32f3xx_hal_flash_ex.c ****   if(status == HAL_OK)
 343:Drivers/STM32F3xx_HAL_Driver/Src/stm32f3xx_hal_flash_ex.c ****   {
 344:Drivers/STM32F3xx_HAL_Driver/Src/stm32f3xx_hal_flash_ex.c ****     /* Clean the error context */
 345:Drivers/STM32F3xx_HAL_Driver/Src/stm32f3xx_hal_flash_ex.c ****     pFlash.ErrorCode = HAL_FLASH_ERROR_NONE;
 346:Drivers/STM32F3xx_HAL_Driver/Src/stm32f3xx_hal_flash_ex.c **** 
 347:Drivers/STM32F3xx_HAL_Driver/Src/stm32f3xx_hal_flash_ex.c ****     /* If the previous operation is completed, proceed to erase the option bytes */
 348:Drivers/STM32F3xx_HAL_Driver/Src/stm32f3xx_hal_flash_ex.c ****     SET_BIT(FLASH->CR, FLASH_CR_OPTER);
 349:Drivers/STM32F3xx_HAL_Driver/Src/stm32f3xx_hal_flash_ex.c ****     SET_BIT(FLASH->CR, FLASH_CR_STRT);
 350:Drivers/STM32F3xx_HAL_Driver/Src/stm32f3xx_hal_flash_ex.c **** 
 351:Drivers/STM32F3xx_HAL_Driver/Src/stm32f3xx_hal_flash_ex.c ****     /* Wait for last operation to be completed */
 352:Drivers/STM32F3xx_HAL_Driver/Src/stm32f3xx_hal_flash_ex.c ****     status = FLASH_WaitForLastOperation((uint32_t)FLASH_TIMEOUT_VALUE);
 353:Drivers/STM32F3xx_HAL_Driver/Src/stm32f3xx_hal_flash_ex.c **** 
 354:Drivers/STM32F3xx_HAL_Driver/Src/stm32f3xx_hal_flash_ex.c ****     /* If the erase operation is completed, disable the OPTER Bit */
 355:Drivers/STM32F3xx_HAL_Driver/Src/stm32f3xx_hal_flash_ex.c ****     CLEAR_BIT(FLASH->CR, FLASH_CR_OPTER);
 356:Drivers/STM32F3xx_HAL_Driver/Src/stm32f3xx_hal_flash_ex.c **** 
 357:Drivers/STM32F3xx_HAL_Driver/Src/stm32f3xx_hal_flash_ex.c ****     if(status == HAL_OK)
 358:Drivers/STM32F3xx_HAL_Driver/Src/stm32f3xx_hal_flash_ex.c ****     {
 359:Drivers/STM32F3xx_HAL_Driver/Src/stm32f3xx_hal_flash_ex.c ****       /* Restore the last read protection Option Byte value */
 360:Drivers/STM32F3xx_HAL_Driver/Src/stm32f3xx_hal_flash_ex.c ****       status = FLASH_OB_RDP_LevelConfig(rdptmp);
 361:Drivers/STM32F3xx_HAL_Driver/Src/stm32f3xx_hal_flash_ex.c ****     }
 362:Drivers/STM32F3xx_HAL_Driver/Src/stm32f3xx_hal_flash_ex.c ****   }
 363:Drivers/STM32F3xx_HAL_Driver/Src/stm32f3xx_hal_flash_ex.c **** 
 364:Drivers/STM32F3xx_HAL_Driver/Src/stm32f3xx_hal_flash_ex.c ****   /* Return the erase status */
 365:Drivers/STM32F3xx_HAL_Driver/Src/stm32f3xx_hal_flash_ex.c ****   return status;
 366:Drivers/STM32F3xx_HAL_Driver/Src/stm32f3xx_hal_flash_ex.c **** }
 367:Drivers/STM32F3xx_HAL_Driver/Src/stm32f3xx_hal_flash_ex.c **** 
 368:Drivers/STM32F3xx_HAL_Driver/Src/stm32f3xx_hal_flash_ex.c **** /**
 369:Drivers/STM32F3xx_HAL_Driver/Src/stm32f3xx_hal_flash_ex.c ****   * @brief  Program option bytes
 370:Drivers/STM32F3xx_HAL_Driver/Src/stm32f3xx_hal_flash_ex.c ****   * @note   The function @ref HAL_FLASH_Unlock() should be called before to unlock the FLASH interf
 371:Drivers/STM32F3xx_HAL_Driver/Src/stm32f3xx_hal_flash_ex.c ****   *         The function @ref HAL_FLASH_OB_Unlock() should be called before to unlock the options b
 372:Drivers/STM32F3xx_HAL_Driver/Src/stm32f3xx_hal_flash_ex.c ****   *         The function @ref HAL_FLASH_OB_Launch() should be called after to force the reload of t
 373:Drivers/STM32F3xx_HAL_Driver/Src/stm32f3xx_hal_flash_ex.c ****   *         (system reset will occur)
ARM GAS  /tmp/cc6tAl1r.s 			page 8


 374:Drivers/STM32F3xx_HAL_Driver/Src/stm32f3xx_hal_flash_ex.c ****   *
 375:Drivers/STM32F3xx_HAL_Driver/Src/stm32f3xx_hal_flash_ex.c ****   * @param  pOBInit pointer to an FLASH_OBInitStruct structure that
 376:Drivers/STM32F3xx_HAL_Driver/Src/stm32f3xx_hal_flash_ex.c ****   *         contains the configuration information for the programming.
 377:Drivers/STM32F3xx_HAL_Driver/Src/stm32f3xx_hal_flash_ex.c ****   *
 378:Drivers/STM32F3xx_HAL_Driver/Src/stm32f3xx_hal_flash_ex.c ****   * @retval HAL_StatusTypeDef HAL Status
 379:Drivers/STM32F3xx_HAL_Driver/Src/stm32f3xx_hal_flash_ex.c ****   */
 380:Drivers/STM32F3xx_HAL_Driver/Src/stm32f3xx_hal_flash_ex.c **** HAL_StatusTypeDef HAL_FLASHEx_OBProgram(FLASH_OBProgramInitTypeDef *pOBInit)
 381:Drivers/STM32F3xx_HAL_Driver/Src/stm32f3xx_hal_flash_ex.c **** {
 382:Drivers/STM32F3xx_HAL_Driver/Src/stm32f3xx_hal_flash_ex.c ****   HAL_StatusTypeDef status = HAL_ERROR;
 383:Drivers/STM32F3xx_HAL_Driver/Src/stm32f3xx_hal_flash_ex.c **** 
 384:Drivers/STM32F3xx_HAL_Driver/Src/stm32f3xx_hal_flash_ex.c ****   /* Process Locked */
 385:Drivers/STM32F3xx_HAL_Driver/Src/stm32f3xx_hal_flash_ex.c ****   __HAL_LOCK(&pFlash);
 386:Drivers/STM32F3xx_HAL_Driver/Src/stm32f3xx_hal_flash_ex.c **** 
 387:Drivers/STM32F3xx_HAL_Driver/Src/stm32f3xx_hal_flash_ex.c ****   /* Check the parameters */
 388:Drivers/STM32F3xx_HAL_Driver/Src/stm32f3xx_hal_flash_ex.c ****   assert_param(IS_OPTIONBYTE(pOBInit->OptionType));
 389:Drivers/STM32F3xx_HAL_Driver/Src/stm32f3xx_hal_flash_ex.c **** 
 390:Drivers/STM32F3xx_HAL_Driver/Src/stm32f3xx_hal_flash_ex.c ****   /* Write protection configuration */
 391:Drivers/STM32F3xx_HAL_Driver/Src/stm32f3xx_hal_flash_ex.c ****   if((pOBInit->OptionType & OPTIONBYTE_WRP) == OPTIONBYTE_WRP)
 392:Drivers/STM32F3xx_HAL_Driver/Src/stm32f3xx_hal_flash_ex.c ****   {
 393:Drivers/STM32F3xx_HAL_Driver/Src/stm32f3xx_hal_flash_ex.c ****     assert_param(IS_WRPSTATE(pOBInit->WRPState));
 394:Drivers/STM32F3xx_HAL_Driver/Src/stm32f3xx_hal_flash_ex.c ****     if (pOBInit->WRPState == OB_WRPSTATE_ENABLE)
 395:Drivers/STM32F3xx_HAL_Driver/Src/stm32f3xx_hal_flash_ex.c ****     {
 396:Drivers/STM32F3xx_HAL_Driver/Src/stm32f3xx_hal_flash_ex.c ****       /* Enable of Write protection on the selected page */
 397:Drivers/STM32F3xx_HAL_Driver/Src/stm32f3xx_hal_flash_ex.c ****       status = FLASH_OB_EnableWRP(pOBInit->WRPPage);
 398:Drivers/STM32F3xx_HAL_Driver/Src/stm32f3xx_hal_flash_ex.c ****     }
 399:Drivers/STM32F3xx_HAL_Driver/Src/stm32f3xx_hal_flash_ex.c ****     else
 400:Drivers/STM32F3xx_HAL_Driver/Src/stm32f3xx_hal_flash_ex.c ****     {
 401:Drivers/STM32F3xx_HAL_Driver/Src/stm32f3xx_hal_flash_ex.c ****       /* Disable of Write protection on the selected page */
 402:Drivers/STM32F3xx_HAL_Driver/Src/stm32f3xx_hal_flash_ex.c ****       status = FLASH_OB_DisableWRP(pOBInit->WRPPage);
 403:Drivers/STM32F3xx_HAL_Driver/Src/stm32f3xx_hal_flash_ex.c ****     }
 404:Drivers/STM32F3xx_HAL_Driver/Src/stm32f3xx_hal_flash_ex.c ****     if (status != HAL_OK)
 405:Drivers/STM32F3xx_HAL_Driver/Src/stm32f3xx_hal_flash_ex.c ****     {
 406:Drivers/STM32F3xx_HAL_Driver/Src/stm32f3xx_hal_flash_ex.c ****       /* Process Unlocked */
 407:Drivers/STM32F3xx_HAL_Driver/Src/stm32f3xx_hal_flash_ex.c ****       __HAL_UNLOCK(&pFlash);
 408:Drivers/STM32F3xx_HAL_Driver/Src/stm32f3xx_hal_flash_ex.c ****       return status;
 409:Drivers/STM32F3xx_HAL_Driver/Src/stm32f3xx_hal_flash_ex.c ****     }
 410:Drivers/STM32F3xx_HAL_Driver/Src/stm32f3xx_hal_flash_ex.c ****   }
 411:Drivers/STM32F3xx_HAL_Driver/Src/stm32f3xx_hal_flash_ex.c **** 
 412:Drivers/STM32F3xx_HAL_Driver/Src/stm32f3xx_hal_flash_ex.c ****   /* Read protection configuration */
 413:Drivers/STM32F3xx_HAL_Driver/Src/stm32f3xx_hal_flash_ex.c ****   if((pOBInit->OptionType & OPTIONBYTE_RDP) == OPTIONBYTE_RDP)
 414:Drivers/STM32F3xx_HAL_Driver/Src/stm32f3xx_hal_flash_ex.c ****   {
 415:Drivers/STM32F3xx_HAL_Driver/Src/stm32f3xx_hal_flash_ex.c ****     status = FLASH_OB_RDP_LevelConfig(pOBInit->RDPLevel);
 416:Drivers/STM32F3xx_HAL_Driver/Src/stm32f3xx_hal_flash_ex.c ****     if (status != HAL_OK)
 417:Drivers/STM32F3xx_HAL_Driver/Src/stm32f3xx_hal_flash_ex.c ****     {
 418:Drivers/STM32F3xx_HAL_Driver/Src/stm32f3xx_hal_flash_ex.c ****       /* Process Unlocked */
 419:Drivers/STM32F3xx_HAL_Driver/Src/stm32f3xx_hal_flash_ex.c ****       __HAL_UNLOCK(&pFlash);
 420:Drivers/STM32F3xx_HAL_Driver/Src/stm32f3xx_hal_flash_ex.c ****       return status;
 421:Drivers/STM32F3xx_HAL_Driver/Src/stm32f3xx_hal_flash_ex.c ****     }
 422:Drivers/STM32F3xx_HAL_Driver/Src/stm32f3xx_hal_flash_ex.c ****   }
 423:Drivers/STM32F3xx_HAL_Driver/Src/stm32f3xx_hal_flash_ex.c **** 
 424:Drivers/STM32F3xx_HAL_Driver/Src/stm32f3xx_hal_flash_ex.c ****   /* USER configuration */
 425:Drivers/STM32F3xx_HAL_Driver/Src/stm32f3xx_hal_flash_ex.c ****   if((pOBInit->OptionType & OPTIONBYTE_USER) == OPTIONBYTE_USER)
 426:Drivers/STM32F3xx_HAL_Driver/Src/stm32f3xx_hal_flash_ex.c ****   {
 427:Drivers/STM32F3xx_HAL_Driver/Src/stm32f3xx_hal_flash_ex.c ****     status = FLASH_OB_UserConfig(pOBInit->USERConfig);
 428:Drivers/STM32F3xx_HAL_Driver/Src/stm32f3xx_hal_flash_ex.c ****     if (status != HAL_OK)
 429:Drivers/STM32F3xx_HAL_Driver/Src/stm32f3xx_hal_flash_ex.c ****     {
 430:Drivers/STM32F3xx_HAL_Driver/Src/stm32f3xx_hal_flash_ex.c ****       /* Process Unlocked */
ARM GAS  /tmp/cc6tAl1r.s 			page 9


 431:Drivers/STM32F3xx_HAL_Driver/Src/stm32f3xx_hal_flash_ex.c ****       __HAL_UNLOCK(&pFlash);
 432:Drivers/STM32F3xx_HAL_Driver/Src/stm32f3xx_hal_flash_ex.c ****       return status;
 433:Drivers/STM32F3xx_HAL_Driver/Src/stm32f3xx_hal_flash_ex.c ****     }
 434:Drivers/STM32F3xx_HAL_Driver/Src/stm32f3xx_hal_flash_ex.c ****   }
 435:Drivers/STM32F3xx_HAL_Driver/Src/stm32f3xx_hal_flash_ex.c **** 
 436:Drivers/STM32F3xx_HAL_Driver/Src/stm32f3xx_hal_flash_ex.c ****   /* DATA configuration*/
 437:Drivers/STM32F3xx_HAL_Driver/Src/stm32f3xx_hal_flash_ex.c ****   if((pOBInit->OptionType & OPTIONBYTE_DATA) == OPTIONBYTE_DATA)
 438:Drivers/STM32F3xx_HAL_Driver/Src/stm32f3xx_hal_flash_ex.c ****   {
 439:Drivers/STM32F3xx_HAL_Driver/Src/stm32f3xx_hal_flash_ex.c ****     status = FLASH_OB_ProgramData(pOBInit->DATAAddress, pOBInit->DATAData);
 440:Drivers/STM32F3xx_HAL_Driver/Src/stm32f3xx_hal_flash_ex.c ****     if (status != HAL_OK)
 441:Drivers/STM32F3xx_HAL_Driver/Src/stm32f3xx_hal_flash_ex.c ****     {
 442:Drivers/STM32F3xx_HAL_Driver/Src/stm32f3xx_hal_flash_ex.c ****       /* Process Unlocked */
 443:Drivers/STM32F3xx_HAL_Driver/Src/stm32f3xx_hal_flash_ex.c ****       __HAL_UNLOCK(&pFlash);
 444:Drivers/STM32F3xx_HAL_Driver/Src/stm32f3xx_hal_flash_ex.c ****       return status;
 445:Drivers/STM32F3xx_HAL_Driver/Src/stm32f3xx_hal_flash_ex.c ****     }
 446:Drivers/STM32F3xx_HAL_Driver/Src/stm32f3xx_hal_flash_ex.c ****   }
 447:Drivers/STM32F3xx_HAL_Driver/Src/stm32f3xx_hal_flash_ex.c **** 
 448:Drivers/STM32F3xx_HAL_Driver/Src/stm32f3xx_hal_flash_ex.c ****   /* Process Unlocked */
 449:Drivers/STM32F3xx_HAL_Driver/Src/stm32f3xx_hal_flash_ex.c ****   __HAL_UNLOCK(&pFlash);
 450:Drivers/STM32F3xx_HAL_Driver/Src/stm32f3xx_hal_flash_ex.c **** 
 451:Drivers/STM32F3xx_HAL_Driver/Src/stm32f3xx_hal_flash_ex.c ****   return status;
 452:Drivers/STM32F3xx_HAL_Driver/Src/stm32f3xx_hal_flash_ex.c **** }
 453:Drivers/STM32F3xx_HAL_Driver/Src/stm32f3xx_hal_flash_ex.c **** 
 454:Drivers/STM32F3xx_HAL_Driver/Src/stm32f3xx_hal_flash_ex.c **** /**
 455:Drivers/STM32F3xx_HAL_Driver/Src/stm32f3xx_hal_flash_ex.c ****   * @brief  Get the Option byte configuration
 456:Drivers/STM32F3xx_HAL_Driver/Src/stm32f3xx_hal_flash_ex.c ****   * @param  pOBInit pointer to an FLASH_OBInitStruct structure that
 457:Drivers/STM32F3xx_HAL_Driver/Src/stm32f3xx_hal_flash_ex.c ****   *         contains the configuration information for the programming.
 458:Drivers/STM32F3xx_HAL_Driver/Src/stm32f3xx_hal_flash_ex.c ****   *
 459:Drivers/STM32F3xx_HAL_Driver/Src/stm32f3xx_hal_flash_ex.c ****   * @retval None
 460:Drivers/STM32F3xx_HAL_Driver/Src/stm32f3xx_hal_flash_ex.c ****   */
 461:Drivers/STM32F3xx_HAL_Driver/Src/stm32f3xx_hal_flash_ex.c **** void HAL_FLASHEx_OBGetConfig(FLASH_OBProgramInitTypeDef *pOBInit)
 462:Drivers/STM32F3xx_HAL_Driver/Src/stm32f3xx_hal_flash_ex.c **** {
 463:Drivers/STM32F3xx_HAL_Driver/Src/stm32f3xx_hal_flash_ex.c ****   pOBInit->OptionType = OPTIONBYTE_WRP | OPTIONBYTE_RDP | OPTIONBYTE_USER;
 464:Drivers/STM32F3xx_HAL_Driver/Src/stm32f3xx_hal_flash_ex.c **** 
 465:Drivers/STM32F3xx_HAL_Driver/Src/stm32f3xx_hal_flash_ex.c ****   /*Get WRP*/
 466:Drivers/STM32F3xx_HAL_Driver/Src/stm32f3xx_hal_flash_ex.c ****   pOBInit->WRPPage = FLASH_OB_GetWRP();
 467:Drivers/STM32F3xx_HAL_Driver/Src/stm32f3xx_hal_flash_ex.c **** 
 468:Drivers/STM32F3xx_HAL_Driver/Src/stm32f3xx_hal_flash_ex.c ****   /*Get RDP Level*/
 469:Drivers/STM32F3xx_HAL_Driver/Src/stm32f3xx_hal_flash_ex.c ****   pOBInit->RDPLevel = FLASH_OB_GetRDP();
 470:Drivers/STM32F3xx_HAL_Driver/Src/stm32f3xx_hal_flash_ex.c **** 
 471:Drivers/STM32F3xx_HAL_Driver/Src/stm32f3xx_hal_flash_ex.c ****   /*Get USER*/
 472:Drivers/STM32F3xx_HAL_Driver/Src/stm32f3xx_hal_flash_ex.c ****   pOBInit->USERConfig = FLASH_OB_GetUser();
 473:Drivers/STM32F3xx_HAL_Driver/Src/stm32f3xx_hal_flash_ex.c **** }
 474:Drivers/STM32F3xx_HAL_Driver/Src/stm32f3xx_hal_flash_ex.c **** 
 475:Drivers/STM32F3xx_HAL_Driver/Src/stm32f3xx_hal_flash_ex.c **** /**
 476:Drivers/STM32F3xx_HAL_Driver/Src/stm32f3xx_hal_flash_ex.c ****   * @brief  Get the Option byte user data
 477:Drivers/STM32F3xx_HAL_Driver/Src/stm32f3xx_hal_flash_ex.c ****   * @param  DATAAdress Address of the option byte DATA
 478:Drivers/STM32F3xx_HAL_Driver/Src/stm32f3xx_hal_flash_ex.c ****   *          This parameter can be one of the following values:
 479:Drivers/STM32F3xx_HAL_Driver/Src/stm32f3xx_hal_flash_ex.c ****   *            @arg @ref OB_DATA_ADDRESS_DATA0
 480:Drivers/STM32F3xx_HAL_Driver/Src/stm32f3xx_hal_flash_ex.c ****   *            @arg @ref OB_DATA_ADDRESS_DATA1
 481:Drivers/STM32F3xx_HAL_Driver/Src/stm32f3xx_hal_flash_ex.c ****   * @retval Value programmed in USER data
 482:Drivers/STM32F3xx_HAL_Driver/Src/stm32f3xx_hal_flash_ex.c ****   */
 483:Drivers/STM32F3xx_HAL_Driver/Src/stm32f3xx_hal_flash_ex.c **** uint32_t HAL_FLASHEx_OBGetUserData(uint32_t DATAAdress)
 484:Drivers/STM32F3xx_HAL_Driver/Src/stm32f3xx_hal_flash_ex.c **** {
 485:Drivers/STM32F3xx_HAL_Driver/Src/stm32f3xx_hal_flash_ex.c ****   uint32_t value = 0U;
 486:Drivers/STM32F3xx_HAL_Driver/Src/stm32f3xx_hal_flash_ex.c ****   
 487:Drivers/STM32F3xx_HAL_Driver/Src/stm32f3xx_hal_flash_ex.c ****   if (DATAAdress == OB_DATA_ADDRESS_DATA0)
ARM GAS  /tmp/cc6tAl1r.s 			page 10


 488:Drivers/STM32F3xx_HAL_Driver/Src/stm32f3xx_hal_flash_ex.c ****   {
 489:Drivers/STM32F3xx_HAL_Driver/Src/stm32f3xx_hal_flash_ex.c ****     /* Get value programmed in OB USER Data0 */
 490:Drivers/STM32F3xx_HAL_Driver/Src/stm32f3xx_hal_flash_ex.c ****     value = READ_BIT(FLASH->OBR, FLASH_OBR_DATA0) >> FLASH_POSITION_OB_USERDATA0_BIT;
 491:Drivers/STM32F3xx_HAL_Driver/Src/stm32f3xx_hal_flash_ex.c ****   }
 492:Drivers/STM32F3xx_HAL_Driver/Src/stm32f3xx_hal_flash_ex.c ****   else
 493:Drivers/STM32F3xx_HAL_Driver/Src/stm32f3xx_hal_flash_ex.c ****   {
 494:Drivers/STM32F3xx_HAL_Driver/Src/stm32f3xx_hal_flash_ex.c ****     /* Get value programmed in OB USER Data1 */
 495:Drivers/STM32F3xx_HAL_Driver/Src/stm32f3xx_hal_flash_ex.c ****     value = READ_BIT(FLASH->OBR, FLASH_OBR_DATA1) >> FLASH_POSITION_OB_USERDATA1_BIT;
 496:Drivers/STM32F3xx_HAL_Driver/Src/stm32f3xx_hal_flash_ex.c ****   }
 497:Drivers/STM32F3xx_HAL_Driver/Src/stm32f3xx_hal_flash_ex.c ****   
 498:Drivers/STM32F3xx_HAL_Driver/Src/stm32f3xx_hal_flash_ex.c ****   return value;
 499:Drivers/STM32F3xx_HAL_Driver/Src/stm32f3xx_hal_flash_ex.c **** }
 500:Drivers/STM32F3xx_HAL_Driver/Src/stm32f3xx_hal_flash_ex.c **** 
 501:Drivers/STM32F3xx_HAL_Driver/Src/stm32f3xx_hal_flash_ex.c **** /**
 502:Drivers/STM32F3xx_HAL_Driver/Src/stm32f3xx_hal_flash_ex.c ****   * @}
 503:Drivers/STM32F3xx_HAL_Driver/Src/stm32f3xx_hal_flash_ex.c ****   */
 504:Drivers/STM32F3xx_HAL_Driver/Src/stm32f3xx_hal_flash_ex.c **** 
 505:Drivers/STM32F3xx_HAL_Driver/Src/stm32f3xx_hal_flash_ex.c **** /**
 506:Drivers/STM32F3xx_HAL_Driver/Src/stm32f3xx_hal_flash_ex.c ****   * @}
 507:Drivers/STM32F3xx_HAL_Driver/Src/stm32f3xx_hal_flash_ex.c ****   */
 508:Drivers/STM32F3xx_HAL_Driver/Src/stm32f3xx_hal_flash_ex.c **** 
 509:Drivers/STM32F3xx_HAL_Driver/Src/stm32f3xx_hal_flash_ex.c **** /** @addtogroup FLASHEx_Private_Functions
 510:Drivers/STM32F3xx_HAL_Driver/Src/stm32f3xx_hal_flash_ex.c ****  * @{
 511:Drivers/STM32F3xx_HAL_Driver/Src/stm32f3xx_hal_flash_ex.c ****  */
 512:Drivers/STM32F3xx_HAL_Driver/Src/stm32f3xx_hal_flash_ex.c **** 
 513:Drivers/STM32F3xx_HAL_Driver/Src/stm32f3xx_hal_flash_ex.c **** /**
 514:Drivers/STM32F3xx_HAL_Driver/Src/stm32f3xx_hal_flash_ex.c ****   * @brief  Full erase of FLASH memory Bank 
 515:Drivers/STM32F3xx_HAL_Driver/Src/stm32f3xx_hal_flash_ex.c ****   *
 516:Drivers/STM32F3xx_HAL_Driver/Src/stm32f3xx_hal_flash_ex.c ****   * @retval None
 517:Drivers/STM32F3xx_HAL_Driver/Src/stm32f3xx_hal_flash_ex.c ****   */
 518:Drivers/STM32F3xx_HAL_Driver/Src/stm32f3xx_hal_flash_ex.c **** static void FLASH_MassErase(void)
 519:Drivers/STM32F3xx_HAL_Driver/Src/stm32f3xx_hal_flash_ex.c **** {
  28              		.loc 1 519 0
  29              		.cfi_startproc
  30              		@ args = 0, pretend = 0, frame = 0
  31              		@ frame_needed = 0, uses_anonymous_args = 0
  32              		@ link register save eliminated.
 520:Drivers/STM32F3xx_HAL_Driver/Src/stm32f3xx_hal_flash_ex.c ****   /* Clean the error context */
 521:Drivers/STM32F3xx_HAL_Driver/Src/stm32f3xx_hal_flash_ex.c ****   pFlash.ErrorCode = HAL_FLASH_ERROR_NONE;
  33              		.loc 1 521 0
  34 0000 0022     		movs	r2, #0
  35 0002 064B     		ldr	r3, .L2
  36 0004 DA61     		str	r2, [r3, #28]
 522:Drivers/STM32F3xx_HAL_Driver/Src/stm32f3xx_hal_flash_ex.c **** 
 523:Drivers/STM32F3xx_HAL_Driver/Src/stm32f3xx_hal_flash_ex.c ****     /* Only bank1 will be erased*/
 524:Drivers/STM32F3xx_HAL_Driver/Src/stm32f3xx_hal_flash_ex.c ****     SET_BIT(FLASH->CR, FLASH_CR_MER);
  37              		.loc 1 524 0
  38 0006 064B     		ldr	r3, .L2+4
  39 0008 1A69     		ldr	r2, [r3, #16]
  40 000a 42F00402 		orr	r2, r2, #4
  41 000e 1A61     		str	r2, [r3, #16]
 525:Drivers/STM32F3xx_HAL_Driver/Src/stm32f3xx_hal_flash_ex.c ****     SET_BIT(FLASH->CR, FLASH_CR_STRT);
  42              		.loc 1 525 0
  43 0010 1A69     		ldr	r2, [r3, #16]
  44 0012 42F04002 		orr	r2, r2, #64
  45 0016 1A61     		str	r2, [r3, #16]
  46 0018 7047     		bx	lr
ARM GAS  /tmp/cc6tAl1r.s 			page 11


  47              	.L3:
  48 001a 00BF     		.align	2
  49              	.L2:
  50 001c 00000000 		.word	pFlash
  51 0020 00200240 		.word	1073881088
  52              		.cfi_endproc
  53              	.LFE129:
  55              		.section	.text.FLASH_OB_GetWRP,"ax",%progbits
  56              		.align	2
  57              		.thumb
  58              		.thumb_func
  60              	FLASH_OB_GetWRP:
  61              	.LFB135:
 526:Drivers/STM32F3xx_HAL_Driver/Src/stm32f3xx_hal_flash_ex.c **** }
 527:Drivers/STM32F3xx_HAL_Driver/Src/stm32f3xx_hal_flash_ex.c **** 
 528:Drivers/STM32F3xx_HAL_Driver/Src/stm32f3xx_hal_flash_ex.c **** /**
 529:Drivers/STM32F3xx_HAL_Driver/Src/stm32f3xx_hal_flash_ex.c ****   * @brief  Enable the write protection of the desired pages
 530:Drivers/STM32F3xx_HAL_Driver/Src/stm32f3xx_hal_flash_ex.c ****   * @note   An option byte erase is done automatically in this function. 
 531:Drivers/STM32F3xx_HAL_Driver/Src/stm32f3xx_hal_flash_ex.c ****   * @note   When the memory read protection level is selected (RDP level = 1), 
 532:Drivers/STM32F3xx_HAL_Driver/Src/stm32f3xx_hal_flash_ex.c ****   *         it is not possible to program or erase the flash page i if
 533:Drivers/STM32F3xx_HAL_Driver/Src/stm32f3xx_hal_flash_ex.c ****   *         debug features are connected or boot code is executed in RAM, even if nWRPi = 1 
 534:Drivers/STM32F3xx_HAL_Driver/Src/stm32f3xx_hal_flash_ex.c ****   * 
 535:Drivers/STM32F3xx_HAL_Driver/Src/stm32f3xx_hal_flash_ex.c ****   * @param  WriteProtectPage specifies the page(s) to be write protected.
 536:Drivers/STM32F3xx_HAL_Driver/Src/stm32f3xx_hal_flash_ex.c ****   *         The value of this parameter depend on device used within the same series 
 537:Drivers/STM32F3xx_HAL_Driver/Src/stm32f3xx_hal_flash_ex.c ****   * @retval HAL status 
 538:Drivers/STM32F3xx_HAL_Driver/Src/stm32f3xx_hal_flash_ex.c ****   */
 539:Drivers/STM32F3xx_HAL_Driver/Src/stm32f3xx_hal_flash_ex.c **** static HAL_StatusTypeDef FLASH_OB_EnableWRP(uint32_t WriteProtectPage)
 540:Drivers/STM32F3xx_HAL_Driver/Src/stm32f3xx_hal_flash_ex.c **** {
 541:Drivers/STM32F3xx_HAL_Driver/Src/stm32f3xx_hal_flash_ex.c ****   HAL_StatusTypeDef status = HAL_OK;
 542:Drivers/STM32F3xx_HAL_Driver/Src/stm32f3xx_hal_flash_ex.c ****   uint16_t WRP0_Data = 0xFFFFU;
 543:Drivers/STM32F3xx_HAL_Driver/Src/stm32f3xx_hal_flash_ex.c **** #if defined(OB_WRP1_WRP1)
 544:Drivers/STM32F3xx_HAL_Driver/Src/stm32f3xx_hal_flash_ex.c ****   uint16_t WRP1_Data = 0xFFFFU;
 545:Drivers/STM32F3xx_HAL_Driver/Src/stm32f3xx_hal_flash_ex.c **** #endif /* OB_WRP1_WRP1 */
 546:Drivers/STM32F3xx_HAL_Driver/Src/stm32f3xx_hal_flash_ex.c **** #if defined(OB_WRP2_WRP2)
 547:Drivers/STM32F3xx_HAL_Driver/Src/stm32f3xx_hal_flash_ex.c ****   uint16_t WRP2_Data = 0xFFFFU;
 548:Drivers/STM32F3xx_HAL_Driver/Src/stm32f3xx_hal_flash_ex.c **** #endif /* OB_WRP2_WRP2 */
 549:Drivers/STM32F3xx_HAL_Driver/Src/stm32f3xx_hal_flash_ex.c **** #if defined(OB_WRP3_WRP3)
 550:Drivers/STM32F3xx_HAL_Driver/Src/stm32f3xx_hal_flash_ex.c ****   uint16_t WRP3_Data = 0xFFFFU;
 551:Drivers/STM32F3xx_HAL_Driver/Src/stm32f3xx_hal_flash_ex.c **** #endif /* OB_WRP3_WRP3 */
 552:Drivers/STM32F3xx_HAL_Driver/Src/stm32f3xx_hal_flash_ex.c ****   
 553:Drivers/STM32F3xx_HAL_Driver/Src/stm32f3xx_hal_flash_ex.c ****   /* Check the parameters */
 554:Drivers/STM32F3xx_HAL_Driver/Src/stm32f3xx_hal_flash_ex.c ****   assert_param(IS_OB_WRP(WriteProtectPage));
 555:Drivers/STM32F3xx_HAL_Driver/Src/stm32f3xx_hal_flash_ex.c ****     
 556:Drivers/STM32F3xx_HAL_Driver/Src/stm32f3xx_hal_flash_ex.c ****   /* Get current write protected pages and the new pages to be protected ******/
 557:Drivers/STM32F3xx_HAL_Driver/Src/stm32f3xx_hal_flash_ex.c ****   WriteProtectPage = (uint32_t)(~((~FLASH_OB_GetWRP()) | WriteProtectPage));
 558:Drivers/STM32F3xx_HAL_Driver/Src/stm32f3xx_hal_flash_ex.c ****   
 559:Drivers/STM32F3xx_HAL_Driver/Src/stm32f3xx_hal_flash_ex.c **** #if defined(OB_WRP_PAGES0TO15MASK)
 560:Drivers/STM32F3xx_HAL_Driver/Src/stm32f3xx_hal_flash_ex.c ****   WRP0_Data = (uint16_t)(WriteProtectPage & OB_WRP_PAGES0TO15MASK);
 561:Drivers/STM32F3xx_HAL_Driver/Src/stm32f3xx_hal_flash_ex.c **** #endif /* OB_WRP_PAGES0TO31MASK */
 562:Drivers/STM32F3xx_HAL_Driver/Src/stm32f3xx_hal_flash_ex.c ****   
 563:Drivers/STM32F3xx_HAL_Driver/Src/stm32f3xx_hal_flash_ex.c **** #if defined(OB_WRP_PAGES16TO31MASK)
 564:Drivers/STM32F3xx_HAL_Driver/Src/stm32f3xx_hal_flash_ex.c ****   WRP1_Data = (uint16_t)((WriteProtectPage & OB_WRP_PAGES16TO31MASK) >> 8U);
 565:Drivers/STM32F3xx_HAL_Driver/Src/stm32f3xx_hal_flash_ex.c **** #endif /* OB_WRP_PAGES32TO63MASK */
 566:Drivers/STM32F3xx_HAL_Driver/Src/stm32f3xx_hal_flash_ex.c ****  
 567:Drivers/STM32F3xx_HAL_Driver/Src/stm32f3xx_hal_flash_ex.c **** #if defined(OB_WRP_PAGES32TO47MASK)
 568:Drivers/STM32F3xx_HAL_Driver/Src/stm32f3xx_hal_flash_ex.c ****   WRP2_Data = (uint16_t)((WriteProtectPage & OB_WRP_PAGES32TO47MASK) >> 16U);
 569:Drivers/STM32F3xx_HAL_Driver/Src/stm32f3xx_hal_flash_ex.c **** #endif /* OB_WRP_PAGES32TO47MASK */
ARM GAS  /tmp/cc6tAl1r.s 			page 12


 570:Drivers/STM32F3xx_HAL_Driver/Src/stm32f3xx_hal_flash_ex.c **** 
 571:Drivers/STM32F3xx_HAL_Driver/Src/stm32f3xx_hal_flash_ex.c **** #if defined(OB_WRP_PAGES48TO127MASK)
 572:Drivers/STM32F3xx_HAL_Driver/Src/stm32f3xx_hal_flash_ex.c ****   WRP3_Data = (uint16_t)((WriteProtectPage & OB_WRP_PAGES48TO127MASK) >> 24U); 
 573:Drivers/STM32F3xx_HAL_Driver/Src/stm32f3xx_hal_flash_ex.c **** #elif defined(OB_WRP_PAGES48TO255MASK)
 574:Drivers/STM32F3xx_HAL_Driver/Src/stm32f3xx_hal_flash_ex.c ****   WRP3_Data = (uint16_t)((WriteProtectPage & OB_WRP_PAGES48TO255MASK) >> 24U); 
 575:Drivers/STM32F3xx_HAL_Driver/Src/stm32f3xx_hal_flash_ex.c **** #endif /* OB_WRP_PAGES48TO63MASK */
 576:Drivers/STM32F3xx_HAL_Driver/Src/stm32f3xx_hal_flash_ex.c ****   
 577:Drivers/STM32F3xx_HAL_Driver/Src/stm32f3xx_hal_flash_ex.c ****   /* Wait for last operation to be completed */
 578:Drivers/STM32F3xx_HAL_Driver/Src/stm32f3xx_hal_flash_ex.c ****   status = FLASH_WaitForLastOperation((uint32_t)FLASH_TIMEOUT_VALUE);
 579:Drivers/STM32F3xx_HAL_Driver/Src/stm32f3xx_hal_flash_ex.c **** 
 580:Drivers/STM32F3xx_HAL_Driver/Src/stm32f3xx_hal_flash_ex.c ****   if(status == HAL_OK)
 581:Drivers/STM32F3xx_HAL_Driver/Src/stm32f3xx_hal_flash_ex.c ****   { 
 582:Drivers/STM32F3xx_HAL_Driver/Src/stm32f3xx_hal_flash_ex.c ****     /* Clean the error context */
 583:Drivers/STM32F3xx_HAL_Driver/Src/stm32f3xx_hal_flash_ex.c ****     pFlash.ErrorCode = HAL_FLASH_ERROR_NONE;
 584:Drivers/STM32F3xx_HAL_Driver/Src/stm32f3xx_hal_flash_ex.c **** 
 585:Drivers/STM32F3xx_HAL_Driver/Src/stm32f3xx_hal_flash_ex.c ****     /* To be able to write again option byte, need to perform a option byte erase */
 586:Drivers/STM32F3xx_HAL_Driver/Src/stm32f3xx_hal_flash_ex.c ****     status = HAL_FLASHEx_OBErase();
 587:Drivers/STM32F3xx_HAL_Driver/Src/stm32f3xx_hal_flash_ex.c ****     if (status == HAL_OK)  
 588:Drivers/STM32F3xx_HAL_Driver/Src/stm32f3xx_hal_flash_ex.c ****     {
 589:Drivers/STM32F3xx_HAL_Driver/Src/stm32f3xx_hal_flash_ex.c ****       /* Enable write protection */
 590:Drivers/STM32F3xx_HAL_Driver/Src/stm32f3xx_hal_flash_ex.c ****       SET_BIT(FLASH->CR, FLASH_CR_OPTPG);
 591:Drivers/STM32F3xx_HAL_Driver/Src/stm32f3xx_hal_flash_ex.c **** 
 592:Drivers/STM32F3xx_HAL_Driver/Src/stm32f3xx_hal_flash_ex.c **** #if defined(OB_WRP0_WRP0)
 593:Drivers/STM32F3xx_HAL_Driver/Src/stm32f3xx_hal_flash_ex.c ****       if(WRP0_Data != 0xFFU)
 594:Drivers/STM32F3xx_HAL_Driver/Src/stm32f3xx_hal_flash_ex.c ****       {
 595:Drivers/STM32F3xx_HAL_Driver/Src/stm32f3xx_hal_flash_ex.c ****         OB->WRP0 &= WRP0_Data;
 596:Drivers/STM32F3xx_HAL_Driver/Src/stm32f3xx_hal_flash_ex.c ****         
 597:Drivers/STM32F3xx_HAL_Driver/Src/stm32f3xx_hal_flash_ex.c ****         /* Wait for last operation to be completed */
 598:Drivers/STM32F3xx_HAL_Driver/Src/stm32f3xx_hal_flash_ex.c ****         status = FLASH_WaitForLastOperation((uint32_t)FLASH_TIMEOUT_VALUE);
 599:Drivers/STM32F3xx_HAL_Driver/Src/stm32f3xx_hal_flash_ex.c ****       }
 600:Drivers/STM32F3xx_HAL_Driver/Src/stm32f3xx_hal_flash_ex.c **** #endif /* OB_WRP0_WRP0 */
 601:Drivers/STM32F3xx_HAL_Driver/Src/stm32f3xx_hal_flash_ex.c **** 
 602:Drivers/STM32F3xx_HAL_Driver/Src/stm32f3xx_hal_flash_ex.c **** #if defined(OB_WRP1_WRP1)
 603:Drivers/STM32F3xx_HAL_Driver/Src/stm32f3xx_hal_flash_ex.c ****       if((status == HAL_OK) && (WRP1_Data != 0xFFU))
 604:Drivers/STM32F3xx_HAL_Driver/Src/stm32f3xx_hal_flash_ex.c ****       {
 605:Drivers/STM32F3xx_HAL_Driver/Src/stm32f3xx_hal_flash_ex.c ****         OB->WRP1 &= WRP1_Data;
 606:Drivers/STM32F3xx_HAL_Driver/Src/stm32f3xx_hal_flash_ex.c ****         
 607:Drivers/STM32F3xx_HAL_Driver/Src/stm32f3xx_hal_flash_ex.c ****         /* Wait for last operation to be completed */
 608:Drivers/STM32F3xx_HAL_Driver/Src/stm32f3xx_hal_flash_ex.c ****         status = FLASH_WaitForLastOperation((uint32_t)FLASH_TIMEOUT_VALUE);
 609:Drivers/STM32F3xx_HAL_Driver/Src/stm32f3xx_hal_flash_ex.c ****       }
 610:Drivers/STM32F3xx_HAL_Driver/Src/stm32f3xx_hal_flash_ex.c **** #endif /* OB_WRP1_WRP1 */
 611:Drivers/STM32F3xx_HAL_Driver/Src/stm32f3xx_hal_flash_ex.c **** 
 612:Drivers/STM32F3xx_HAL_Driver/Src/stm32f3xx_hal_flash_ex.c **** #if defined(OB_WRP2_WRP2)
 613:Drivers/STM32F3xx_HAL_Driver/Src/stm32f3xx_hal_flash_ex.c ****       if((status == HAL_OK) && (WRP2_Data != 0xFFU))
 614:Drivers/STM32F3xx_HAL_Driver/Src/stm32f3xx_hal_flash_ex.c ****       {
 615:Drivers/STM32F3xx_HAL_Driver/Src/stm32f3xx_hal_flash_ex.c ****         OB->WRP2 &= WRP2_Data;
 616:Drivers/STM32F3xx_HAL_Driver/Src/stm32f3xx_hal_flash_ex.c ****         
 617:Drivers/STM32F3xx_HAL_Driver/Src/stm32f3xx_hal_flash_ex.c ****         /* Wait for last operation to be completed */
 618:Drivers/STM32F3xx_HAL_Driver/Src/stm32f3xx_hal_flash_ex.c ****         status = FLASH_WaitForLastOperation((uint32_t)FLASH_TIMEOUT_VALUE);
 619:Drivers/STM32F3xx_HAL_Driver/Src/stm32f3xx_hal_flash_ex.c ****       }
 620:Drivers/STM32F3xx_HAL_Driver/Src/stm32f3xx_hal_flash_ex.c **** #endif /* OB_WRP2_WRP2 */
 621:Drivers/STM32F3xx_HAL_Driver/Src/stm32f3xx_hal_flash_ex.c **** 
 622:Drivers/STM32F3xx_HAL_Driver/Src/stm32f3xx_hal_flash_ex.c **** #if defined(OB_WRP3_WRP3)
 623:Drivers/STM32F3xx_HAL_Driver/Src/stm32f3xx_hal_flash_ex.c ****       if((status == HAL_OK) && (WRP3_Data != 0xFFU))
 624:Drivers/STM32F3xx_HAL_Driver/Src/stm32f3xx_hal_flash_ex.c ****       {
 625:Drivers/STM32F3xx_HAL_Driver/Src/stm32f3xx_hal_flash_ex.c ****         OB->WRP3 &= WRP3_Data;
 626:Drivers/STM32F3xx_HAL_Driver/Src/stm32f3xx_hal_flash_ex.c ****         
ARM GAS  /tmp/cc6tAl1r.s 			page 13


 627:Drivers/STM32F3xx_HAL_Driver/Src/stm32f3xx_hal_flash_ex.c ****         /* Wait for last operation to be completed */
 628:Drivers/STM32F3xx_HAL_Driver/Src/stm32f3xx_hal_flash_ex.c ****         status = FLASH_WaitForLastOperation((uint32_t)FLASH_TIMEOUT_VALUE);
 629:Drivers/STM32F3xx_HAL_Driver/Src/stm32f3xx_hal_flash_ex.c ****       }
 630:Drivers/STM32F3xx_HAL_Driver/Src/stm32f3xx_hal_flash_ex.c **** #endif /* OB_WRP3_WRP3 */
 631:Drivers/STM32F3xx_HAL_Driver/Src/stm32f3xx_hal_flash_ex.c **** 
 632:Drivers/STM32F3xx_HAL_Driver/Src/stm32f3xx_hal_flash_ex.c ****       /* if the program operation is completed, disable the OPTPG Bit */
 633:Drivers/STM32F3xx_HAL_Driver/Src/stm32f3xx_hal_flash_ex.c ****       CLEAR_BIT(FLASH->CR, FLASH_CR_OPTPG);
 634:Drivers/STM32F3xx_HAL_Driver/Src/stm32f3xx_hal_flash_ex.c ****     }
 635:Drivers/STM32F3xx_HAL_Driver/Src/stm32f3xx_hal_flash_ex.c ****   }
 636:Drivers/STM32F3xx_HAL_Driver/Src/stm32f3xx_hal_flash_ex.c ****   
 637:Drivers/STM32F3xx_HAL_Driver/Src/stm32f3xx_hal_flash_ex.c ****   return status;
 638:Drivers/STM32F3xx_HAL_Driver/Src/stm32f3xx_hal_flash_ex.c **** }
 639:Drivers/STM32F3xx_HAL_Driver/Src/stm32f3xx_hal_flash_ex.c **** 
 640:Drivers/STM32F3xx_HAL_Driver/Src/stm32f3xx_hal_flash_ex.c **** /**
 641:Drivers/STM32F3xx_HAL_Driver/Src/stm32f3xx_hal_flash_ex.c ****   * @brief  Disable the write protection of the desired pages
 642:Drivers/STM32F3xx_HAL_Driver/Src/stm32f3xx_hal_flash_ex.c ****   * @note   An option byte erase is done automatically in this function. 
 643:Drivers/STM32F3xx_HAL_Driver/Src/stm32f3xx_hal_flash_ex.c ****   * @note   When the memory read protection level is selected (RDP level = 1), 
 644:Drivers/STM32F3xx_HAL_Driver/Src/stm32f3xx_hal_flash_ex.c ****   *         it is not possible to program or erase the flash page i if   
 645:Drivers/STM32F3xx_HAL_Driver/Src/stm32f3xx_hal_flash_ex.c ****   *         debug features are connected or boot code is executed in RAM, even if nWRPi = 1 
 646:Drivers/STM32F3xx_HAL_Driver/Src/stm32f3xx_hal_flash_ex.c ****   * 
 647:Drivers/STM32F3xx_HAL_Driver/Src/stm32f3xx_hal_flash_ex.c ****   * @param  WriteProtectPage specifies the page(s) to be write unprotected.
 648:Drivers/STM32F3xx_HAL_Driver/Src/stm32f3xx_hal_flash_ex.c ****   *         The value of this parameter depend on device used within the same series 
 649:Drivers/STM32F3xx_HAL_Driver/Src/stm32f3xx_hal_flash_ex.c ****   * @retval HAL status 
 650:Drivers/STM32F3xx_HAL_Driver/Src/stm32f3xx_hal_flash_ex.c ****   */
 651:Drivers/STM32F3xx_HAL_Driver/Src/stm32f3xx_hal_flash_ex.c **** static HAL_StatusTypeDef FLASH_OB_DisableWRP(uint32_t WriteProtectPage)
 652:Drivers/STM32F3xx_HAL_Driver/Src/stm32f3xx_hal_flash_ex.c **** {
 653:Drivers/STM32F3xx_HAL_Driver/Src/stm32f3xx_hal_flash_ex.c ****   HAL_StatusTypeDef status = HAL_OK;
 654:Drivers/STM32F3xx_HAL_Driver/Src/stm32f3xx_hal_flash_ex.c ****   uint16_t WRP0_Data = 0xFFFFU;
 655:Drivers/STM32F3xx_HAL_Driver/Src/stm32f3xx_hal_flash_ex.c **** #if defined(OB_WRP1_WRP1)
 656:Drivers/STM32F3xx_HAL_Driver/Src/stm32f3xx_hal_flash_ex.c ****   uint16_t WRP1_Data = 0xFFFFU;
 657:Drivers/STM32F3xx_HAL_Driver/Src/stm32f3xx_hal_flash_ex.c **** #endif /* OB_WRP1_WRP1 */
 658:Drivers/STM32F3xx_HAL_Driver/Src/stm32f3xx_hal_flash_ex.c **** #if defined(OB_WRP2_WRP2)
 659:Drivers/STM32F3xx_HAL_Driver/Src/stm32f3xx_hal_flash_ex.c ****   uint16_t WRP2_Data = 0xFFFFU;
 660:Drivers/STM32F3xx_HAL_Driver/Src/stm32f3xx_hal_flash_ex.c **** #endif /* OB_WRP2_WRP2 */
 661:Drivers/STM32F3xx_HAL_Driver/Src/stm32f3xx_hal_flash_ex.c **** #if defined(OB_WRP3_WRP3)
 662:Drivers/STM32F3xx_HAL_Driver/Src/stm32f3xx_hal_flash_ex.c ****   uint16_t WRP3_Data = 0xFFFFU;
 663:Drivers/STM32F3xx_HAL_Driver/Src/stm32f3xx_hal_flash_ex.c **** #endif /* OB_WRP3_WRP3 */
 664:Drivers/STM32F3xx_HAL_Driver/Src/stm32f3xx_hal_flash_ex.c ****   
 665:Drivers/STM32F3xx_HAL_Driver/Src/stm32f3xx_hal_flash_ex.c ****   /* Check the parameters */
 666:Drivers/STM32F3xx_HAL_Driver/Src/stm32f3xx_hal_flash_ex.c ****   assert_param(IS_OB_WRP(WriteProtectPage));
 667:Drivers/STM32F3xx_HAL_Driver/Src/stm32f3xx_hal_flash_ex.c **** 
 668:Drivers/STM32F3xx_HAL_Driver/Src/stm32f3xx_hal_flash_ex.c ****   /* Get current write protected pages and the new pages to be unprotected ******/
 669:Drivers/STM32F3xx_HAL_Driver/Src/stm32f3xx_hal_flash_ex.c ****   WriteProtectPage = (FLASH_OB_GetWRP() | WriteProtectPage);
 670:Drivers/STM32F3xx_HAL_Driver/Src/stm32f3xx_hal_flash_ex.c **** 
 671:Drivers/STM32F3xx_HAL_Driver/Src/stm32f3xx_hal_flash_ex.c **** #if defined(OB_WRP_PAGES0TO15MASK)
 672:Drivers/STM32F3xx_HAL_Driver/Src/stm32f3xx_hal_flash_ex.c ****   WRP0_Data = (uint16_t)(WriteProtectPage & OB_WRP_PAGES0TO15MASK);
 673:Drivers/STM32F3xx_HAL_Driver/Src/stm32f3xx_hal_flash_ex.c **** #endif /* OB_WRP_PAGES0TO31MASK */
 674:Drivers/STM32F3xx_HAL_Driver/Src/stm32f3xx_hal_flash_ex.c ****   
 675:Drivers/STM32F3xx_HAL_Driver/Src/stm32f3xx_hal_flash_ex.c **** #if defined(OB_WRP_PAGES16TO31MASK)
 676:Drivers/STM32F3xx_HAL_Driver/Src/stm32f3xx_hal_flash_ex.c ****   WRP1_Data = (uint16_t)((WriteProtectPage & OB_WRP_PAGES16TO31MASK) >> 8U);
 677:Drivers/STM32F3xx_HAL_Driver/Src/stm32f3xx_hal_flash_ex.c **** #endif /* OB_WRP_PAGES32TO63MASK */
 678:Drivers/STM32F3xx_HAL_Driver/Src/stm32f3xx_hal_flash_ex.c ****  
 679:Drivers/STM32F3xx_HAL_Driver/Src/stm32f3xx_hal_flash_ex.c **** #if defined(OB_WRP_PAGES32TO47MASK)
 680:Drivers/STM32F3xx_HAL_Driver/Src/stm32f3xx_hal_flash_ex.c ****   WRP2_Data = (uint16_t)((WriteProtectPage & OB_WRP_PAGES32TO47MASK) >> 16U);
 681:Drivers/STM32F3xx_HAL_Driver/Src/stm32f3xx_hal_flash_ex.c **** #endif /* OB_WRP_PAGES32TO47MASK */
 682:Drivers/STM32F3xx_HAL_Driver/Src/stm32f3xx_hal_flash_ex.c **** 
 683:Drivers/STM32F3xx_HAL_Driver/Src/stm32f3xx_hal_flash_ex.c **** #if defined(OB_WRP_PAGES48TO127MASK)
ARM GAS  /tmp/cc6tAl1r.s 			page 14


 684:Drivers/STM32F3xx_HAL_Driver/Src/stm32f3xx_hal_flash_ex.c ****   WRP3_Data = (uint16_t)((WriteProtectPage & OB_WRP_PAGES48TO127MASK) >> 24U); 
 685:Drivers/STM32F3xx_HAL_Driver/Src/stm32f3xx_hal_flash_ex.c **** #elif defined(OB_WRP_PAGES48TO255MASK)
 686:Drivers/STM32F3xx_HAL_Driver/Src/stm32f3xx_hal_flash_ex.c ****   WRP3_Data = (uint16_t)((WriteProtectPage & OB_WRP_PAGES48TO255MASK) >> 24U); 
 687:Drivers/STM32F3xx_HAL_Driver/Src/stm32f3xx_hal_flash_ex.c **** #endif /* OB_WRP_PAGES48TO63MASK */
 688:Drivers/STM32F3xx_HAL_Driver/Src/stm32f3xx_hal_flash_ex.c **** 
 689:Drivers/STM32F3xx_HAL_Driver/Src/stm32f3xx_hal_flash_ex.c ****     
 690:Drivers/STM32F3xx_HAL_Driver/Src/stm32f3xx_hal_flash_ex.c ****   /* Wait for last operation to be completed */
 691:Drivers/STM32F3xx_HAL_Driver/Src/stm32f3xx_hal_flash_ex.c ****   status = FLASH_WaitForLastOperation((uint32_t)FLASH_TIMEOUT_VALUE);
 692:Drivers/STM32F3xx_HAL_Driver/Src/stm32f3xx_hal_flash_ex.c **** 
 693:Drivers/STM32F3xx_HAL_Driver/Src/stm32f3xx_hal_flash_ex.c ****   if(status == HAL_OK)
 694:Drivers/STM32F3xx_HAL_Driver/Src/stm32f3xx_hal_flash_ex.c ****   { 
 695:Drivers/STM32F3xx_HAL_Driver/Src/stm32f3xx_hal_flash_ex.c ****     /* Clean the error context */
 696:Drivers/STM32F3xx_HAL_Driver/Src/stm32f3xx_hal_flash_ex.c ****     pFlash.ErrorCode = HAL_FLASH_ERROR_NONE;
 697:Drivers/STM32F3xx_HAL_Driver/Src/stm32f3xx_hal_flash_ex.c **** 
 698:Drivers/STM32F3xx_HAL_Driver/Src/stm32f3xx_hal_flash_ex.c ****     /* To be able to write again option byte, need to perform a option byte erase */
 699:Drivers/STM32F3xx_HAL_Driver/Src/stm32f3xx_hal_flash_ex.c ****     status = HAL_FLASHEx_OBErase();
 700:Drivers/STM32F3xx_HAL_Driver/Src/stm32f3xx_hal_flash_ex.c ****     if (status == HAL_OK)  
 701:Drivers/STM32F3xx_HAL_Driver/Src/stm32f3xx_hal_flash_ex.c ****     {
 702:Drivers/STM32F3xx_HAL_Driver/Src/stm32f3xx_hal_flash_ex.c ****       SET_BIT(FLASH->CR, FLASH_CR_OPTPG);
 703:Drivers/STM32F3xx_HAL_Driver/Src/stm32f3xx_hal_flash_ex.c **** 
 704:Drivers/STM32F3xx_HAL_Driver/Src/stm32f3xx_hal_flash_ex.c **** #if defined(OB_WRP0_WRP0)
 705:Drivers/STM32F3xx_HAL_Driver/Src/stm32f3xx_hal_flash_ex.c ****       if(WRP0_Data != 0xFFU)
 706:Drivers/STM32F3xx_HAL_Driver/Src/stm32f3xx_hal_flash_ex.c ****       {
 707:Drivers/STM32F3xx_HAL_Driver/Src/stm32f3xx_hal_flash_ex.c ****         OB->WRP0 |= WRP0_Data;
 708:Drivers/STM32F3xx_HAL_Driver/Src/stm32f3xx_hal_flash_ex.c ****         
 709:Drivers/STM32F3xx_HAL_Driver/Src/stm32f3xx_hal_flash_ex.c ****         /* Wait for last operation to be completed */
 710:Drivers/STM32F3xx_HAL_Driver/Src/stm32f3xx_hal_flash_ex.c ****         status = FLASH_WaitForLastOperation((uint32_t)FLASH_TIMEOUT_VALUE);
 711:Drivers/STM32F3xx_HAL_Driver/Src/stm32f3xx_hal_flash_ex.c ****       }
 712:Drivers/STM32F3xx_HAL_Driver/Src/stm32f3xx_hal_flash_ex.c **** #endif /* OB_WRP0_WRP0 */
 713:Drivers/STM32F3xx_HAL_Driver/Src/stm32f3xx_hal_flash_ex.c **** 
 714:Drivers/STM32F3xx_HAL_Driver/Src/stm32f3xx_hal_flash_ex.c **** #if defined(OB_WRP1_WRP1)
 715:Drivers/STM32F3xx_HAL_Driver/Src/stm32f3xx_hal_flash_ex.c ****       if((status == HAL_OK) && (WRP1_Data != 0xFFU))
 716:Drivers/STM32F3xx_HAL_Driver/Src/stm32f3xx_hal_flash_ex.c ****       {
 717:Drivers/STM32F3xx_HAL_Driver/Src/stm32f3xx_hal_flash_ex.c ****         OB->WRP1 |= WRP1_Data;
 718:Drivers/STM32F3xx_HAL_Driver/Src/stm32f3xx_hal_flash_ex.c ****         
 719:Drivers/STM32F3xx_HAL_Driver/Src/stm32f3xx_hal_flash_ex.c ****         /* Wait for last operation to be completed */
 720:Drivers/STM32F3xx_HAL_Driver/Src/stm32f3xx_hal_flash_ex.c ****         status = FLASH_WaitForLastOperation((uint32_t)FLASH_TIMEOUT_VALUE);
 721:Drivers/STM32F3xx_HAL_Driver/Src/stm32f3xx_hal_flash_ex.c ****       }
 722:Drivers/STM32F3xx_HAL_Driver/Src/stm32f3xx_hal_flash_ex.c **** #endif /* OB_WRP1_WRP1 */
 723:Drivers/STM32F3xx_HAL_Driver/Src/stm32f3xx_hal_flash_ex.c **** 
 724:Drivers/STM32F3xx_HAL_Driver/Src/stm32f3xx_hal_flash_ex.c **** #if defined(OB_WRP2_WRP2)
 725:Drivers/STM32F3xx_HAL_Driver/Src/stm32f3xx_hal_flash_ex.c ****       if((status == HAL_OK) && (WRP2_Data != 0xFFU))
 726:Drivers/STM32F3xx_HAL_Driver/Src/stm32f3xx_hal_flash_ex.c ****       {
 727:Drivers/STM32F3xx_HAL_Driver/Src/stm32f3xx_hal_flash_ex.c ****         OB->WRP2 |= WRP2_Data;
 728:Drivers/STM32F3xx_HAL_Driver/Src/stm32f3xx_hal_flash_ex.c ****         
 729:Drivers/STM32F3xx_HAL_Driver/Src/stm32f3xx_hal_flash_ex.c ****         /* Wait for last operation to be completed */
 730:Drivers/STM32F3xx_HAL_Driver/Src/stm32f3xx_hal_flash_ex.c ****         status = FLASH_WaitForLastOperation((uint32_t)FLASH_TIMEOUT_VALUE);
 731:Drivers/STM32F3xx_HAL_Driver/Src/stm32f3xx_hal_flash_ex.c ****       }
 732:Drivers/STM32F3xx_HAL_Driver/Src/stm32f3xx_hal_flash_ex.c **** #endif /* OB_WRP2_WRP2 */
 733:Drivers/STM32F3xx_HAL_Driver/Src/stm32f3xx_hal_flash_ex.c **** 
 734:Drivers/STM32F3xx_HAL_Driver/Src/stm32f3xx_hal_flash_ex.c **** #if defined(OB_WRP3_WRP3)
 735:Drivers/STM32F3xx_HAL_Driver/Src/stm32f3xx_hal_flash_ex.c ****       if((status == HAL_OK) && (WRP3_Data != 0xFFU))
 736:Drivers/STM32F3xx_HAL_Driver/Src/stm32f3xx_hal_flash_ex.c ****       {
 737:Drivers/STM32F3xx_HAL_Driver/Src/stm32f3xx_hal_flash_ex.c ****         OB->WRP3 |= WRP3_Data;
 738:Drivers/STM32F3xx_HAL_Driver/Src/stm32f3xx_hal_flash_ex.c ****         
 739:Drivers/STM32F3xx_HAL_Driver/Src/stm32f3xx_hal_flash_ex.c ****         /* Wait for last operation to be completed */
 740:Drivers/STM32F3xx_HAL_Driver/Src/stm32f3xx_hal_flash_ex.c ****         status = FLASH_WaitForLastOperation((uint32_t)FLASH_TIMEOUT_VALUE);
ARM GAS  /tmp/cc6tAl1r.s 			page 15


 741:Drivers/STM32F3xx_HAL_Driver/Src/stm32f3xx_hal_flash_ex.c ****       }
 742:Drivers/STM32F3xx_HAL_Driver/Src/stm32f3xx_hal_flash_ex.c **** #endif /* OB_WRP3_WRP3 */
 743:Drivers/STM32F3xx_HAL_Driver/Src/stm32f3xx_hal_flash_ex.c **** 
 744:Drivers/STM32F3xx_HAL_Driver/Src/stm32f3xx_hal_flash_ex.c ****       /* if the program operation is completed, disable the OPTPG Bit */
 745:Drivers/STM32F3xx_HAL_Driver/Src/stm32f3xx_hal_flash_ex.c ****       CLEAR_BIT(FLASH->CR, FLASH_CR_OPTPG);
 746:Drivers/STM32F3xx_HAL_Driver/Src/stm32f3xx_hal_flash_ex.c ****     }
 747:Drivers/STM32F3xx_HAL_Driver/Src/stm32f3xx_hal_flash_ex.c ****   }
 748:Drivers/STM32F3xx_HAL_Driver/Src/stm32f3xx_hal_flash_ex.c ****   return status;
 749:Drivers/STM32F3xx_HAL_Driver/Src/stm32f3xx_hal_flash_ex.c **** }
 750:Drivers/STM32F3xx_HAL_Driver/Src/stm32f3xx_hal_flash_ex.c **** 
 751:Drivers/STM32F3xx_HAL_Driver/Src/stm32f3xx_hal_flash_ex.c **** /**
 752:Drivers/STM32F3xx_HAL_Driver/Src/stm32f3xx_hal_flash_ex.c ****   * @brief  Set the read protection level.
 753:Drivers/STM32F3xx_HAL_Driver/Src/stm32f3xx_hal_flash_ex.c ****   * @param  ReadProtectLevel specifies the read protection level.
 754:Drivers/STM32F3xx_HAL_Driver/Src/stm32f3xx_hal_flash_ex.c ****   *         This parameter can be one of the following values:
 755:Drivers/STM32F3xx_HAL_Driver/Src/stm32f3xx_hal_flash_ex.c ****   *            @arg @ref OB_RDP_LEVEL_0 No protection
 756:Drivers/STM32F3xx_HAL_Driver/Src/stm32f3xx_hal_flash_ex.c ****   *            @arg @ref OB_RDP_LEVEL_1 Read protection of the memory
 757:Drivers/STM32F3xx_HAL_Driver/Src/stm32f3xx_hal_flash_ex.c ****   *            @arg @ref OB_RDP_LEVEL_2 Full chip protection
 758:Drivers/STM32F3xx_HAL_Driver/Src/stm32f3xx_hal_flash_ex.c ****   * @note   Warning: When enabling OB_RDP level 2 it's no more possible to go back to level 1 or 0
 759:Drivers/STM32F3xx_HAL_Driver/Src/stm32f3xx_hal_flash_ex.c ****   * @retval HAL status
 760:Drivers/STM32F3xx_HAL_Driver/Src/stm32f3xx_hal_flash_ex.c ****   */
 761:Drivers/STM32F3xx_HAL_Driver/Src/stm32f3xx_hal_flash_ex.c **** static HAL_StatusTypeDef FLASH_OB_RDP_LevelConfig(uint8_t ReadProtectLevel)
 762:Drivers/STM32F3xx_HAL_Driver/Src/stm32f3xx_hal_flash_ex.c **** {
 763:Drivers/STM32F3xx_HAL_Driver/Src/stm32f3xx_hal_flash_ex.c ****   HAL_StatusTypeDef status = HAL_OK;
 764:Drivers/STM32F3xx_HAL_Driver/Src/stm32f3xx_hal_flash_ex.c ****   
 765:Drivers/STM32F3xx_HAL_Driver/Src/stm32f3xx_hal_flash_ex.c ****   /* Check the parameters */
 766:Drivers/STM32F3xx_HAL_Driver/Src/stm32f3xx_hal_flash_ex.c ****   assert_param(IS_OB_RDP_LEVEL(ReadProtectLevel));
 767:Drivers/STM32F3xx_HAL_Driver/Src/stm32f3xx_hal_flash_ex.c ****   
 768:Drivers/STM32F3xx_HAL_Driver/Src/stm32f3xx_hal_flash_ex.c ****   /* Wait for last operation to be completed */
 769:Drivers/STM32F3xx_HAL_Driver/Src/stm32f3xx_hal_flash_ex.c ****   status = FLASH_WaitForLastOperation((uint32_t)FLASH_TIMEOUT_VALUE);
 770:Drivers/STM32F3xx_HAL_Driver/Src/stm32f3xx_hal_flash_ex.c ****   
 771:Drivers/STM32F3xx_HAL_Driver/Src/stm32f3xx_hal_flash_ex.c ****   if(status == HAL_OK)
 772:Drivers/STM32F3xx_HAL_Driver/Src/stm32f3xx_hal_flash_ex.c ****   { 
 773:Drivers/STM32F3xx_HAL_Driver/Src/stm32f3xx_hal_flash_ex.c ****     /* Clean the error context */
 774:Drivers/STM32F3xx_HAL_Driver/Src/stm32f3xx_hal_flash_ex.c ****     pFlash.ErrorCode = HAL_FLASH_ERROR_NONE;
 775:Drivers/STM32F3xx_HAL_Driver/Src/stm32f3xx_hal_flash_ex.c ****     
 776:Drivers/STM32F3xx_HAL_Driver/Src/stm32f3xx_hal_flash_ex.c ****     /* If the previous operation is completed, proceed to erase the option bytes */
 777:Drivers/STM32F3xx_HAL_Driver/Src/stm32f3xx_hal_flash_ex.c ****     SET_BIT(FLASH->CR, FLASH_CR_OPTER);
 778:Drivers/STM32F3xx_HAL_Driver/Src/stm32f3xx_hal_flash_ex.c ****     SET_BIT(FLASH->CR, FLASH_CR_STRT);
 779:Drivers/STM32F3xx_HAL_Driver/Src/stm32f3xx_hal_flash_ex.c **** 
 780:Drivers/STM32F3xx_HAL_Driver/Src/stm32f3xx_hal_flash_ex.c ****     /* Wait for last operation to be completed */
 781:Drivers/STM32F3xx_HAL_Driver/Src/stm32f3xx_hal_flash_ex.c ****     status = FLASH_WaitForLastOperation((uint32_t)FLASH_TIMEOUT_VALUE);
 782:Drivers/STM32F3xx_HAL_Driver/Src/stm32f3xx_hal_flash_ex.c **** 
 783:Drivers/STM32F3xx_HAL_Driver/Src/stm32f3xx_hal_flash_ex.c ****     /* If the erase operation is completed, disable the OPTER Bit */
 784:Drivers/STM32F3xx_HAL_Driver/Src/stm32f3xx_hal_flash_ex.c ****     CLEAR_BIT(FLASH->CR, FLASH_CR_OPTER);
 785:Drivers/STM32F3xx_HAL_Driver/Src/stm32f3xx_hal_flash_ex.c **** 
 786:Drivers/STM32F3xx_HAL_Driver/Src/stm32f3xx_hal_flash_ex.c ****     if(status == HAL_OK)
 787:Drivers/STM32F3xx_HAL_Driver/Src/stm32f3xx_hal_flash_ex.c ****     {
 788:Drivers/STM32F3xx_HAL_Driver/Src/stm32f3xx_hal_flash_ex.c ****       /* Enable the Option Bytes Programming operation */
 789:Drivers/STM32F3xx_HAL_Driver/Src/stm32f3xx_hal_flash_ex.c ****       SET_BIT(FLASH->CR, FLASH_CR_OPTPG);
 790:Drivers/STM32F3xx_HAL_Driver/Src/stm32f3xx_hal_flash_ex.c ****       
 791:Drivers/STM32F3xx_HAL_Driver/Src/stm32f3xx_hal_flash_ex.c ****       WRITE_REG(OB->RDP, ReadProtectLevel);
 792:Drivers/STM32F3xx_HAL_Driver/Src/stm32f3xx_hal_flash_ex.c ****       
 793:Drivers/STM32F3xx_HAL_Driver/Src/stm32f3xx_hal_flash_ex.c ****       /* Wait for last operation to be completed */
 794:Drivers/STM32F3xx_HAL_Driver/Src/stm32f3xx_hal_flash_ex.c ****       status = FLASH_WaitForLastOperation((uint32_t)FLASH_TIMEOUT_VALUE); 
 795:Drivers/STM32F3xx_HAL_Driver/Src/stm32f3xx_hal_flash_ex.c ****       
 796:Drivers/STM32F3xx_HAL_Driver/Src/stm32f3xx_hal_flash_ex.c ****       /* if the program operation is completed, disable the OPTPG Bit */
 797:Drivers/STM32F3xx_HAL_Driver/Src/stm32f3xx_hal_flash_ex.c ****       CLEAR_BIT(FLASH->CR, FLASH_CR_OPTPG);
ARM GAS  /tmp/cc6tAl1r.s 			page 16


 798:Drivers/STM32F3xx_HAL_Driver/Src/stm32f3xx_hal_flash_ex.c ****     }
 799:Drivers/STM32F3xx_HAL_Driver/Src/stm32f3xx_hal_flash_ex.c ****   }
 800:Drivers/STM32F3xx_HAL_Driver/Src/stm32f3xx_hal_flash_ex.c ****   
 801:Drivers/STM32F3xx_HAL_Driver/Src/stm32f3xx_hal_flash_ex.c ****   return status;
 802:Drivers/STM32F3xx_HAL_Driver/Src/stm32f3xx_hal_flash_ex.c **** }
 803:Drivers/STM32F3xx_HAL_Driver/Src/stm32f3xx_hal_flash_ex.c **** 
 804:Drivers/STM32F3xx_HAL_Driver/Src/stm32f3xx_hal_flash_ex.c **** /**
 805:Drivers/STM32F3xx_HAL_Driver/Src/stm32f3xx_hal_flash_ex.c ****   * @brief  Program the FLASH User Option Byte.    
 806:Drivers/STM32F3xx_HAL_Driver/Src/stm32f3xx_hal_flash_ex.c ****   * @note   Programming of the OB should be performed only after an erase (otherwise PGERR occurs)
 807:Drivers/STM32F3xx_HAL_Driver/Src/stm32f3xx_hal_flash_ex.c ****   * @param  UserConfig The FLASH User Option Bytes values: IWDG_SW(Bit0), RST_STOP(Bit1), RST_STDBY
 808:Drivers/STM32F3xx_HAL_Driver/Src/stm32f3xx_hal_flash_ex.c ****   *         VDDA_Analog_Monitoring(Bit5) and SRAM_Parity_Enable(Bit6). 
 809:Drivers/STM32F3xx_HAL_Driver/Src/stm32f3xx_hal_flash_ex.c ****   *         And SDADC12_VDD_MONITOR(Bit7) for STM32F373 or STM32F378 . 
 810:Drivers/STM32F3xx_HAL_Driver/Src/stm32f3xx_hal_flash_ex.c ****   * @retval HAL status
 811:Drivers/STM32F3xx_HAL_Driver/Src/stm32f3xx_hal_flash_ex.c ****   */
 812:Drivers/STM32F3xx_HAL_Driver/Src/stm32f3xx_hal_flash_ex.c **** static HAL_StatusTypeDef FLASH_OB_UserConfig(uint8_t UserConfig)
 813:Drivers/STM32F3xx_HAL_Driver/Src/stm32f3xx_hal_flash_ex.c **** {
 814:Drivers/STM32F3xx_HAL_Driver/Src/stm32f3xx_hal_flash_ex.c ****   HAL_StatusTypeDef status = HAL_OK;
 815:Drivers/STM32F3xx_HAL_Driver/Src/stm32f3xx_hal_flash_ex.c **** 
 816:Drivers/STM32F3xx_HAL_Driver/Src/stm32f3xx_hal_flash_ex.c ****   /* Check the parameters */
 817:Drivers/STM32F3xx_HAL_Driver/Src/stm32f3xx_hal_flash_ex.c ****   assert_param(IS_OB_IWDG_SOURCE((UserConfig&OB_IWDG_SW)));
 818:Drivers/STM32F3xx_HAL_Driver/Src/stm32f3xx_hal_flash_ex.c ****   assert_param(IS_OB_STOP_SOURCE((UserConfig&OB_STOP_NO_RST)));
 819:Drivers/STM32F3xx_HAL_Driver/Src/stm32f3xx_hal_flash_ex.c ****   assert_param(IS_OB_STDBY_SOURCE((UserConfig&OB_STDBY_NO_RST)));
 820:Drivers/STM32F3xx_HAL_Driver/Src/stm32f3xx_hal_flash_ex.c ****   assert_param(IS_OB_BOOT1((UserConfig&OB_BOOT1_SET)));
 821:Drivers/STM32F3xx_HAL_Driver/Src/stm32f3xx_hal_flash_ex.c ****   assert_param(IS_OB_VDDA_ANALOG((UserConfig&OB_VDDA_ANALOG_ON)));
 822:Drivers/STM32F3xx_HAL_Driver/Src/stm32f3xx_hal_flash_ex.c ****   assert_param(IS_OB_SRAM_PARITY((UserConfig&OB_SRAM_PARITY_RESET)));
 823:Drivers/STM32F3xx_HAL_Driver/Src/stm32f3xx_hal_flash_ex.c **** #if defined(FLASH_OBR_SDADC12_VDD_MONITOR)
 824:Drivers/STM32F3xx_HAL_Driver/Src/stm32f3xx_hal_flash_ex.c ****   assert_param(IS_OB_SDACD_VDD_MONITOR((UserConfig&OB_SDACD_VDD_MONITOR_SET)));
 825:Drivers/STM32F3xx_HAL_Driver/Src/stm32f3xx_hal_flash_ex.c **** #endif /* FLASH_OBR_SDADC12_VDD_MONITOR */
 826:Drivers/STM32F3xx_HAL_Driver/Src/stm32f3xx_hal_flash_ex.c **** 
 827:Drivers/STM32F3xx_HAL_Driver/Src/stm32f3xx_hal_flash_ex.c ****   /* Wait for last operation to be completed */
 828:Drivers/STM32F3xx_HAL_Driver/Src/stm32f3xx_hal_flash_ex.c ****   status = FLASH_WaitForLastOperation((uint32_t)FLASH_TIMEOUT_VALUE);
 829:Drivers/STM32F3xx_HAL_Driver/Src/stm32f3xx_hal_flash_ex.c ****   
 830:Drivers/STM32F3xx_HAL_Driver/Src/stm32f3xx_hal_flash_ex.c ****   if(status == HAL_OK)
 831:Drivers/STM32F3xx_HAL_Driver/Src/stm32f3xx_hal_flash_ex.c ****   {     
 832:Drivers/STM32F3xx_HAL_Driver/Src/stm32f3xx_hal_flash_ex.c ****     /* Clean the error context */
 833:Drivers/STM32F3xx_HAL_Driver/Src/stm32f3xx_hal_flash_ex.c ****     pFlash.ErrorCode = HAL_FLASH_ERROR_NONE;
 834:Drivers/STM32F3xx_HAL_Driver/Src/stm32f3xx_hal_flash_ex.c **** 
 835:Drivers/STM32F3xx_HAL_Driver/Src/stm32f3xx_hal_flash_ex.c ****     /* Enable the Option Bytes Programming operation */
 836:Drivers/STM32F3xx_HAL_Driver/Src/stm32f3xx_hal_flash_ex.c ****     SET_BIT(FLASH->CR, FLASH_CR_OPTPG); 
 837:Drivers/STM32F3xx_HAL_Driver/Src/stm32f3xx_hal_flash_ex.c ****  
 838:Drivers/STM32F3xx_HAL_Driver/Src/stm32f3xx_hal_flash_ex.c **** #if   defined(FLASH_OBR_SDADC12_VDD_MONITOR)
 839:Drivers/STM32F3xx_HAL_Driver/Src/stm32f3xx_hal_flash_ex.c ****     OB->USER = (UserConfig | 0x08U);
 840:Drivers/STM32F3xx_HAL_Driver/Src/stm32f3xx_hal_flash_ex.c **** #else
 841:Drivers/STM32F3xx_HAL_Driver/Src/stm32f3xx_hal_flash_ex.c ****     OB->USER = (UserConfig | 0x88U);
 842:Drivers/STM32F3xx_HAL_Driver/Src/stm32f3xx_hal_flash_ex.c **** #endif
 843:Drivers/STM32F3xx_HAL_Driver/Src/stm32f3xx_hal_flash_ex.c **** 
 844:Drivers/STM32F3xx_HAL_Driver/Src/stm32f3xx_hal_flash_ex.c ****     /* Wait for last operation to be completed */
 845:Drivers/STM32F3xx_HAL_Driver/Src/stm32f3xx_hal_flash_ex.c ****     status = FLASH_WaitForLastOperation((uint32_t)FLASH_TIMEOUT_VALUE);
 846:Drivers/STM32F3xx_HAL_Driver/Src/stm32f3xx_hal_flash_ex.c **** 
 847:Drivers/STM32F3xx_HAL_Driver/Src/stm32f3xx_hal_flash_ex.c ****     /* if the program operation is completed, disable the OPTPG Bit */
 848:Drivers/STM32F3xx_HAL_Driver/Src/stm32f3xx_hal_flash_ex.c ****     CLEAR_BIT(FLASH->CR, FLASH_CR_OPTPG);
 849:Drivers/STM32F3xx_HAL_Driver/Src/stm32f3xx_hal_flash_ex.c ****   }
 850:Drivers/STM32F3xx_HAL_Driver/Src/stm32f3xx_hal_flash_ex.c ****   
 851:Drivers/STM32F3xx_HAL_Driver/Src/stm32f3xx_hal_flash_ex.c ****   return status; 
 852:Drivers/STM32F3xx_HAL_Driver/Src/stm32f3xx_hal_flash_ex.c **** }
 853:Drivers/STM32F3xx_HAL_Driver/Src/stm32f3xx_hal_flash_ex.c **** 
 854:Drivers/STM32F3xx_HAL_Driver/Src/stm32f3xx_hal_flash_ex.c **** /**
ARM GAS  /tmp/cc6tAl1r.s 			page 17


 855:Drivers/STM32F3xx_HAL_Driver/Src/stm32f3xx_hal_flash_ex.c ****   * @brief  Programs a half word at a specified Option Byte Data address.
 856:Drivers/STM32F3xx_HAL_Driver/Src/stm32f3xx_hal_flash_ex.c ****   * @note   The function @ref HAL_FLASH_Unlock() should be called before to unlock the FLASH interf
 857:Drivers/STM32F3xx_HAL_Driver/Src/stm32f3xx_hal_flash_ex.c ****   *         The function @ref HAL_FLASH_OB_Unlock() should be called before to unlock the options b
 858:Drivers/STM32F3xx_HAL_Driver/Src/stm32f3xx_hal_flash_ex.c ****   *         The function @ref HAL_FLASH_OB_Launch() should be called after to force the reload of t
 859:Drivers/STM32F3xx_HAL_Driver/Src/stm32f3xx_hal_flash_ex.c ****   *         (system reset will occur)
 860:Drivers/STM32F3xx_HAL_Driver/Src/stm32f3xx_hal_flash_ex.c ****   *         Programming of the OB should be performed only after an erase (otherwise PGERR occurs)
 861:Drivers/STM32F3xx_HAL_Driver/Src/stm32f3xx_hal_flash_ex.c ****   * @param  Address specifies the address to be programmed.
 862:Drivers/STM32F3xx_HAL_Driver/Src/stm32f3xx_hal_flash_ex.c ****   *         This parameter can be 0x1FFFF804 or 0x1FFFF806. 
 863:Drivers/STM32F3xx_HAL_Driver/Src/stm32f3xx_hal_flash_ex.c ****   * @param  Data specifies the data to be programmed.
 864:Drivers/STM32F3xx_HAL_Driver/Src/stm32f3xx_hal_flash_ex.c ****   * @retval HAL status
 865:Drivers/STM32F3xx_HAL_Driver/Src/stm32f3xx_hal_flash_ex.c ****   */
 866:Drivers/STM32F3xx_HAL_Driver/Src/stm32f3xx_hal_flash_ex.c **** static HAL_StatusTypeDef FLASH_OB_ProgramData(uint32_t Address, uint8_t Data)
 867:Drivers/STM32F3xx_HAL_Driver/Src/stm32f3xx_hal_flash_ex.c **** {
 868:Drivers/STM32F3xx_HAL_Driver/Src/stm32f3xx_hal_flash_ex.c ****   HAL_StatusTypeDef status = HAL_ERROR;
 869:Drivers/STM32F3xx_HAL_Driver/Src/stm32f3xx_hal_flash_ex.c ****   
 870:Drivers/STM32F3xx_HAL_Driver/Src/stm32f3xx_hal_flash_ex.c ****   /* Check the parameters */
 871:Drivers/STM32F3xx_HAL_Driver/Src/stm32f3xx_hal_flash_ex.c ****   assert_param(IS_OB_DATA_ADDRESS(Address));
 872:Drivers/STM32F3xx_HAL_Driver/Src/stm32f3xx_hal_flash_ex.c ****   
 873:Drivers/STM32F3xx_HAL_Driver/Src/stm32f3xx_hal_flash_ex.c ****   /* Wait for last operation to be completed */
 874:Drivers/STM32F3xx_HAL_Driver/Src/stm32f3xx_hal_flash_ex.c ****   status = FLASH_WaitForLastOperation((uint32_t)FLASH_TIMEOUT_VALUE);
 875:Drivers/STM32F3xx_HAL_Driver/Src/stm32f3xx_hal_flash_ex.c ****   
 876:Drivers/STM32F3xx_HAL_Driver/Src/stm32f3xx_hal_flash_ex.c ****   if(status == HAL_OK)
 877:Drivers/STM32F3xx_HAL_Driver/Src/stm32f3xx_hal_flash_ex.c ****   {
 878:Drivers/STM32F3xx_HAL_Driver/Src/stm32f3xx_hal_flash_ex.c ****     /* Clean the error context */
 879:Drivers/STM32F3xx_HAL_Driver/Src/stm32f3xx_hal_flash_ex.c ****     pFlash.ErrorCode = HAL_FLASH_ERROR_NONE;
 880:Drivers/STM32F3xx_HAL_Driver/Src/stm32f3xx_hal_flash_ex.c **** 
 881:Drivers/STM32F3xx_HAL_Driver/Src/stm32f3xx_hal_flash_ex.c ****     /* Enables the Option Bytes Programming operation */
 882:Drivers/STM32F3xx_HAL_Driver/Src/stm32f3xx_hal_flash_ex.c ****     SET_BIT(FLASH->CR, FLASH_CR_OPTPG); 
 883:Drivers/STM32F3xx_HAL_Driver/Src/stm32f3xx_hal_flash_ex.c ****     *(__IO uint16_t*)Address = Data;
 884:Drivers/STM32F3xx_HAL_Driver/Src/stm32f3xx_hal_flash_ex.c ****     
 885:Drivers/STM32F3xx_HAL_Driver/Src/stm32f3xx_hal_flash_ex.c ****     /* Wait for last operation to be completed */
 886:Drivers/STM32F3xx_HAL_Driver/Src/stm32f3xx_hal_flash_ex.c ****     status = FLASH_WaitForLastOperation((uint32_t)FLASH_TIMEOUT_VALUE);
 887:Drivers/STM32F3xx_HAL_Driver/Src/stm32f3xx_hal_flash_ex.c ****     
 888:Drivers/STM32F3xx_HAL_Driver/Src/stm32f3xx_hal_flash_ex.c ****     /* If the program operation is completed, disable the OPTPG Bit */
 889:Drivers/STM32F3xx_HAL_Driver/Src/stm32f3xx_hal_flash_ex.c ****     CLEAR_BIT(FLASH->CR, FLASH_CR_OPTPG);
 890:Drivers/STM32F3xx_HAL_Driver/Src/stm32f3xx_hal_flash_ex.c ****   }
 891:Drivers/STM32F3xx_HAL_Driver/Src/stm32f3xx_hal_flash_ex.c ****   /* Return the Option Byte Data Program Status */
 892:Drivers/STM32F3xx_HAL_Driver/Src/stm32f3xx_hal_flash_ex.c ****   return status;
 893:Drivers/STM32F3xx_HAL_Driver/Src/stm32f3xx_hal_flash_ex.c **** }
 894:Drivers/STM32F3xx_HAL_Driver/Src/stm32f3xx_hal_flash_ex.c **** 
 895:Drivers/STM32F3xx_HAL_Driver/Src/stm32f3xx_hal_flash_ex.c **** /**
 896:Drivers/STM32F3xx_HAL_Driver/Src/stm32f3xx_hal_flash_ex.c ****   * @brief  Return the FLASH Write Protection Option Bytes value.
 897:Drivers/STM32F3xx_HAL_Driver/Src/stm32f3xx_hal_flash_ex.c ****   * @retval The FLASH Write Protection Option Bytes value
 898:Drivers/STM32F3xx_HAL_Driver/Src/stm32f3xx_hal_flash_ex.c ****   */
 899:Drivers/STM32F3xx_HAL_Driver/Src/stm32f3xx_hal_flash_ex.c **** static uint32_t FLASH_OB_GetWRP(void)
 900:Drivers/STM32F3xx_HAL_Driver/Src/stm32f3xx_hal_flash_ex.c **** {
  62              		.loc 1 900 0
  63              		.cfi_startproc
  64              		@ args = 0, pretend = 0, frame = 0
  65              		@ frame_needed = 0, uses_anonymous_args = 0
  66              		@ link register save eliminated.
 901:Drivers/STM32F3xx_HAL_Driver/Src/stm32f3xx_hal_flash_ex.c ****   /* Return the FLASH write protection Register value */
 902:Drivers/STM32F3xx_HAL_Driver/Src/stm32f3xx_hal_flash_ex.c ****   return (uint32_t)(READ_REG(FLASH->WRPR));
  67              		.loc 1 902 0
  68 0000 014B     		ldr	r3, .L5
  69 0002 186A     		ldr	r0, [r3, #32]
 903:Drivers/STM32F3xx_HAL_Driver/Src/stm32f3xx_hal_flash_ex.c **** }
ARM GAS  /tmp/cc6tAl1r.s 			page 18


  70              		.loc 1 903 0
  71 0004 7047     		bx	lr
  72              	.L6:
  73 0006 00BF     		.align	2
  74              	.L5:
  75 0008 00200240 		.word	1073881088
  76              		.cfi_endproc
  77              	.LFE135:
  79              		.section	.text.FLASH_OB_GetRDP,"ax",%progbits
  80              		.align	2
  81              		.thumb
  82              		.thumb_func
  84              	FLASH_OB_GetRDP:
  85              	.LFB136:
 904:Drivers/STM32F3xx_HAL_Driver/Src/stm32f3xx_hal_flash_ex.c **** 
 905:Drivers/STM32F3xx_HAL_Driver/Src/stm32f3xx_hal_flash_ex.c **** /**
 906:Drivers/STM32F3xx_HAL_Driver/Src/stm32f3xx_hal_flash_ex.c ****   * @brief  Returns the FLASH Read Protection level.
 907:Drivers/STM32F3xx_HAL_Driver/Src/stm32f3xx_hal_flash_ex.c ****   * @retval FLASH RDP level
 908:Drivers/STM32F3xx_HAL_Driver/Src/stm32f3xx_hal_flash_ex.c ****   *         This parameter can be one of the following values:
 909:Drivers/STM32F3xx_HAL_Driver/Src/stm32f3xx_hal_flash_ex.c ****   *            @arg @ref OB_RDP_LEVEL_0 No protection
 910:Drivers/STM32F3xx_HAL_Driver/Src/stm32f3xx_hal_flash_ex.c ****   *            @arg @ref OB_RDP_LEVEL_1 Read protection of the memory
 911:Drivers/STM32F3xx_HAL_Driver/Src/stm32f3xx_hal_flash_ex.c ****   *            @arg @ref OB_RDP_LEVEL_2 Full chip protection
 912:Drivers/STM32F3xx_HAL_Driver/Src/stm32f3xx_hal_flash_ex.c ****   */
 913:Drivers/STM32F3xx_HAL_Driver/Src/stm32f3xx_hal_flash_ex.c **** static uint32_t FLASH_OB_GetRDP(void)
 914:Drivers/STM32F3xx_HAL_Driver/Src/stm32f3xx_hal_flash_ex.c **** {
  86              		.loc 1 914 0
  87              		.cfi_startproc
  88              		@ args = 0, pretend = 0, frame = 0
  89              		@ frame_needed = 0, uses_anonymous_args = 0
  90              		@ link register save eliminated.
  91              	.LVL0:
 915:Drivers/STM32F3xx_HAL_Driver/Src/stm32f3xx_hal_flash_ex.c ****   uint32_t readstatus = OB_RDP_LEVEL_0;
 916:Drivers/STM32F3xx_HAL_Driver/Src/stm32f3xx_hal_flash_ex.c ****   uint32_t tmp_reg = 0U;
 917:Drivers/STM32F3xx_HAL_Driver/Src/stm32f3xx_hal_flash_ex.c ****   
 918:Drivers/STM32F3xx_HAL_Driver/Src/stm32f3xx_hal_flash_ex.c ****   /* Read RDP level bits */
 919:Drivers/STM32F3xx_HAL_Driver/Src/stm32f3xx_hal_flash_ex.c **** #if defined(FLASH_OBR_RDPRT)
 920:Drivers/STM32F3xx_HAL_Driver/Src/stm32f3xx_hal_flash_ex.c ****   tmp_reg = READ_BIT(FLASH->OBR, FLASH_OBR_RDPRT);
  92              		.loc 1 920 0
  93 0000 064B     		ldr	r3, .L11
  94 0002 DB69     		ldr	r3, [r3, #28]
  95 0004 03F00603 		and	r3, r3, #6
  96              	.LVL1:
 921:Drivers/STM32F3xx_HAL_Driver/Src/stm32f3xx_hal_flash_ex.c **** #endif
 922:Drivers/STM32F3xx_HAL_Driver/Src/stm32f3xx_hal_flash_ex.c **** #if defined(FLASH_OBR_LEVEL1_PROT)
 923:Drivers/STM32F3xx_HAL_Driver/Src/stm32f3xx_hal_flash_ex.c ****   tmp_reg = READ_BIT(FLASH->OBR, (FLASH_OBR_LEVEL1_PROT | FLASH_OBR_LEVEL2_PROT));
 924:Drivers/STM32F3xx_HAL_Driver/Src/stm32f3xx_hal_flash_ex.c **** #endif /* FLASH_OBR_LEVEL1_PROT */
 925:Drivers/STM32F3xx_HAL_Driver/Src/stm32f3xx_hal_flash_ex.c **** 
 926:Drivers/STM32F3xx_HAL_Driver/Src/stm32f3xx_hal_flash_ex.c **** #if defined(FLASH_OBR_RDPRT)
 927:Drivers/STM32F3xx_HAL_Driver/Src/stm32f3xx_hal_flash_ex.c ****   if (tmp_reg == FLASH_OBR_RDPRT_1)
  97              		.loc 1 927 0
  98 0008 022B     		cmp	r3, #2
  99 000a 03D0     		beq	.L9
 928:Drivers/STM32F3xx_HAL_Driver/Src/stm32f3xx_hal_flash_ex.c **** #endif
 929:Drivers/STM32F3xx_HAL_Driver/Src/stm32f3xx_hal_flash_ex.c **** #if defined(FLASH_OBR_LEVEL1_PROT)
 930:Drivers/STM32F3xx_HAL_Driver/Src/stm32f3xx_hal_flash_ex.c ****   if (tmp_reg == FLASH_OBR_LEVEL1_PROT)
 931:Drivers/STM32F3xx_HAL_Driver/Src/stm32f3xx_hal_flash_ex.c **** #endif /* FLASH_OBR_LEVEL1_PROT */
 932:Drivers/STM32F3xx_HAL_Driver/Src/stm32f3xx_hal_flash_ex.c ****   {
ARM GAS  /tmp/cc6tAl1r.s 			page 19


 933:Drivers/STM32F3xx_HAL_Driver/Src/stm32f3xx_hal_flash_ex.c ****     readstatus = OB_RDP_LEVEL_1;
 934:Drivers/STM32F3xx_HAL_Driver/Src/stm32f3xx_hal_flash_ex.c ****   }
 935:Drivers/STM32F3xx_HAL_Driver/Src/stm32f3xx_hal_flash_ex.c **** #if   defined(FLASH_OBR_RDPRT)
 936:Drivers/STM32F3xx_HAL_Driver/Src/stm32f3xx_hal_flash_ex.c ****   else if (tmp_reg == FLASH_OBR_RDPRT_2)
 100              		.loc 1 936 0
 101 000c 062B     		cmp	r3, #6
 102 000e 03D1     		bne	.L10
 937:Drivers/STM32F3xx_HAL_Driver/Src/stm32f3xx_hal_flash_ex.c **** #elif defined(FLASH_OBR_LEVEL2_PROT)
 938:Drivers/STM32F3xx_HAL_Driver/Src/stm32f3xx_hal_flash_ex.c ****   else if (tmp_reg == FLASH_OBR_LEVEL2_PROT)
 939:Drivers/STM32F3xx_HAL_Driver/Src/stm32f3xx_hal_flash_ex.c **** #endif
 940:Drivers/STM32F3xx_HAL_Driver/Src/stm32f3xx_hal_flash_ex.c ****   {
 941:Drivers/STM32F3xx_HAL_Driver/Src/stm32f3xx_hal_flash_ex.c ****     readstatus = OB_RDP_LEVEL_2;
 103              		.loc 1 941 0
 104 0010 CC20     		movs	r0, #204
 105 0012 7047     		bx	lr
 106              	.L9:
 933:Drivers/STM32F3xx_HAL_Driver/Src/stm32f3xx_hal_flash_ex.c ****     readstatus = OB_RDP_LEVEL_1;
 107              		.loc 1 933 0
 108 0014 BB20     		movs	r0, #187
 109 0016 7047     		bx	lr
 110              	.L10:
 942:Drivers/STM32F3xx_HAL_Driver/Src/stm32f3xx_hal_flash_ex.c ****   }
 943:Drivers/STM32F3xx_HAL_Driver/Src/stm32f3xx_hal_flash_ex.c ****   else 
 944:Drivers/STM32F3xx_HAL_Driver/Src/stm32f3xx_hal_flash_ex.c ****   {
 945:Drivers/STM32F3xx_HAL_Driver/Src/stm32f3xx_hal_flash_ex.c ****     readstatus = OB_RDP_LEVEL_0;
 111              		.loc 1 945 0
 112 0018 AA20     		movs	r0, #170
 113              	.LVL2:
 946:Drivers/STM32F3xx_HAL_Driver/Src/stm32f3xx_hal_flash_ex.c ****   }
 947:Drivers/STM32F3xx_HAL_Driver/Src/stm32f3xx_hal_flash_ex.c **** 
 948:Drivers/STM32F3xx_HAL_Driver/Src/stm32f3xx_hal_flash_ex.c ****   return readstatus;
 949:Drivers/STM32F3xx_HAL_Driver/Src/stm32f3xx_hal_flash_ex.c **** }
 114              		.loc 1 949 0
 115 001a 7047     		bx	lr
 116              	.L12:
 117              		.align	2
 118              	.L11:
 119 001c 00200240 		.word	1073881088
 120              		.cfi_endproc
 121              	.LFE136:
 123              		.section	.text.FLASH_OB_RDP_LevelConfig,"ax",%progbits
 124              		.align	2
 125              		.thumb
 126              		.thumb_func
 128              	FLASH_OB_RDP_LevelConfig:
 129              	.LFB132:
 762:Drivers/STM32F3xx_HAL_Driver/Src/stm32f3xx_hal_flash_ex.c **** {
 130              		.loc 1 762 0
 131              		.cfi_startproc
 132              		@ args = 0, pretend = 0, frame = 0
 133              		@ frame_needed = 0, uses_anonymous_args = 0
 134              	.LVL3:
 135 0000 38B5     		push	{r3, r4, r5, lr}
 136              	.LCFI0:
 137              		.cfi_def_cfa_offset 16
 138              		.cfi_offset 3, -16
 139              		.cfi_offset 4, -12
ARM GAS  /tmp/cc6tAl1r.s 			page 20


 140              		.cfi_offset 5, -8
 141              		.cfi_offset 14, -4
 142 0002 0546     		mov	r5, r0
 143              	.LVL4:
 769:Drivers/STM32F3xx_HAL_Driver/Src/stm32f3xx_hal_flash_ex.c ****   status = FLASH_WaitForLastOperation((uint32_t)FLASH_TIMEOUT_VALUE);
 144              		.loc 1 769 0
 145 0004 4CF25030 		movw	r0, #50000
 146              	.LVL5:
 147 0008 FFF7FEFF 		bl	FLASH_WaitForLastOperation
 148              	.LVL6:
 771:Drivers/STM32F3xx_HAL_Driver/Src/stm32f3xx_hal_flash_ex.c ****   if(status == HAL_OK)
 149              		.loc 1 771 0
 150 000c 0346     		mov	r3, r0
 151 000e 20BB     		cbnz	r0, .L14
 774:Drivers/STM32F3xx_HAL_Driver/Src/stm32f3xx_hal_flash_ex.c ****     pFlash.ErrorCode = HAL_FLASH_ERROR_NONE;
 152              		.loc 1 774 0
 153 0010 0022     		movs	r2, #0
 154 0012 134B     		ldr	r3, .L15
 155 0014 DA61     		str	r2, [r3, #28]
 777:Drivers/STM32F3xx_HAL_Driver/Src/stm32f3xx_hal_flash_ex.c ****     SET_BIT(FLASH->CR, FLASH_CR_OPTER);
 156              		.loc 1 777 0
 157 0016 134C     		ldr	r4, .L15+4
 158 0018 2369     		ldr	r3, [r4, #16]
 159 001a 43F02003 		orr	r3, r3, #32
 160 001e 2361     		str	r3, [r4, #16]
 778:Drivers/STM32F3xx_HAL_Driver/Src/stm32f3xx_hal_flash_ex.c ****     SET_BIT(FLASH->CR, FLASH_CR_STRT);
 161              		.loc 1 778 0
 162 0020 2369     		ldr	r3, [r4, #16]
 163 0022 43F04003 		orr	r3, r3, #64
 164 0026 2361     		str	r3, [r4, #16]
 781:Drivers/STM32F3xx_HAL_Driver/Src/stm32f3xx_hal_flash_ex.c ****     status = FLASH_WaitForLastOperation((uint32_t)FLASH_TIMEOUT_VALUE);
 165              		.loc 1 781 0
 166 0028 4CF25030 		movw	r0, #50000
 167              	.LVL7:
 168 002c FFF7FEFF 		bl	FLASH_WaitForLastOperation
 169              	.LVL8:
 784:Drivers/STM32F3xx_HAL_Driver/Src/stm32f3xx_hal_flash_ex.c ****     CLEAR_BIT(FLASH->CR, FLASH_CR_OPTER);
 170              		.loc 1 784 0
 171 0030 2369     		ldr	r3, [r4, #16]
 172 0032 23F02003 		bic	r3, r3, #32
 173 0036 2361     		str	r3, [r4, #16]
 786:Drivers/STM32F3xx_HAL_Driver/Src/stm32f3xx_hal_flash_ex.c ****     if(status == HAL_OK)
 174              		.loc 1 786 0
 175 0038 0346     		mov	r3, r0
 176 003a 70B9     		cbnz	r0, .L14
 789:Drivers/STM32F3xx_HAL_Driver/Src/stm32f3xx_hal_flash_ex.c ****       SET_BIT(FLASH->CR, FLASH_CR_OPTPG);
 177              		.loc 1 789 0
 178 003c 2369     		ldr	r3, [r4, #16]
 179 003e 43F01003 		orr	r3, r3, #16
 180 0042 2361     		str	r3, [r4, #16]
 791:Drivers/STM32F3xx_HAL_Driver/Src/stm32f3xx_hal_flash_ex.c ****       WRITE_REG(OB->RDP, ReadProtectLevel);
 181              		.loc 1 791 0
 182 0044 084B     		ldr	r3, .L15+8
 183 0046 1D80     		strh	r5, [r3]	@ movhi
 794:Drivers/STM32F3xx_HAL_Driver/Src/stm32f3xx_hal_flash_ex.c ****       status = FLASH_WaitForLastOperation((uint32_t)FLASH_TIMEOUT_VALUE); 
 184              		.loc 1 794 0
 185 0048 4CF25030 		movw	r0, #50000
ARM GAS  /tmp/cc6tAl1r.s 			page 21


 186              	.LVL9:
 187 004c FFF7FEFF 		bl	FLASH_WaitForLastOperation
 188              	.LVL10:
 189 0050 0346     		mov	r3, r0
 190              	.LVL11:
 797:Drivers/STM32F3xx_HAL_Driver/Src/stm32f3xx_hal_flash_ex.c ****       CLEAR_BIT(FLASH->CR, FLASH_CR_OPTPG);
 191              		.loc 1 797 0
 192 0052 2269     		ldr	r2, [r4, #16]
 193 0054 22F01002 		bic	r2, r2, #16
 194 0058 2261     		str	r2, [r4, #16]
 195              	.LVL12:
 196              	.L14:
 802:Drivers/STM32F3xx_HAL_Driver/Src/stm32f3xx_hal_flash_ex.c **** }
 197              		.loc 1 802 0
 198 005a 1846     		mov	r0, r3
 199 005c 38BD     		pop	{r3, r4, r5, pc}
 200              	.LVL13:
 201              	.L16:
 202 005e 00BF     		.align	2
 203              	.L15:
 204 0060 00000000 		.word	pFlash
 205 0064 00200240 		.word	1073881088
 206 0068 00F8FF1F 		.word	536868864
 207              		.cfi_endproc
 208              	.LFE132:
 210              		.section	.text.FLASH_OB_UserConfig,"ax",%progbits
 211              		.align	2
 212              		.thumb
 213              		.thumb_func
 215              	FLASH_OB_UserConfig:
 216              	.LFB133:
 813:Drivers/STM32F3xx_HAL_Driver/Src/stm32f3xx_hal_flash_ex.c **** {
 217              		.loc 1 813 0
 218              		.cfi_startproc
 219              		@ args = 0, pretend = 0, frame = 0
 220              		@ frame_needed = 0, uses_anonymous_args = 0
 221              	.LVL14:
 222 0000 38B5     		push	{r3, r4, r5, lr}
 223              	.LCFI1:
 224              		.cfi_def_cfa_offset 16
 225              		.cfi_offset 3, -16
 226              		.cfi_offset 4, -12
 227              		.cfi_offset 5, -8
 228              		.cfi_offset 14, -4
 229 0002 0546     		mov	r5, r0
 230              	.LVL15:
 828:Drivers/STM32F3xx_HAL_Driver/Src/stm32f3xx_hal_flash_ex.c ****   status = FLASH_WaitForLastOperation((uint32_t)FLASH_TIMEOUT_VALUE);
 231              		.loc 1 828 0
 232 0004 4CF25030 		movw	r0, #50000
 233              	.LVL16:
 234 0008 FFF7FEFF 		bl	FLASH_WaitForLastOperation
 235              	.LVL17:
 830:Drivers/STM32F3xx_HAL_Driver/Src/stm32f3xx_hal_flash_ex.c ****   if(status == HAL_OK)
 236              		.loc 1 830 0
 237 000c 0346     		mov	r3, r0
 238 000e A0B9     		cbnz	r0, .L18
 833:Drivers/STM32F3xx_HAL_Driver/Src/stm32f3xx_hal_flash_ex.c ****     pFlash.ErrorCode = HAL_FLASH_ERROR_NONE;
ARM GAS  /tmp/cc6tAl1r.s 			page 22


 239              		.loc 1 833 0
 240 0010 0022     		movs	r2, #0
 241 0012 0B4B     		ldr	r3, .L19
 242 0014 DA61     		str	r2, [r3, #28]
 836:Drivers/STM32F3xx_HAL_Driver/Src/stm32f3xx_hal_flash_ex.c ****     SET_BIT(FLASH->CR, FLASH_CR_OPTPG); 
 243              		.loc 1 836 0
 244 0016 0B4C     		ldr	r4, .L19+4
 245 0018 2369     		ldr	r3, [r4, #16]
 246 001a 43F01003 		orr	r3, r3, #16
 247 001e 2361     		str	r3, [r4, #16]
 841:Drivers/STM32F3xx_HAL_Driver/Src/stm32f3xx_hal_flash_ex.c ****     OB->USER = (UserConfig | 0x88U);
 248              		.loc 1 841 0
 249 0020 45F08805 		orr	r5, r5, #136
 250 0024 084B     		ldr	r3, .L19+8
 251 0026 5D80     		strh	r5, [r3, #2]	@ movhi
 845:Drivers/STM32F3xx_HAL_Driver/Src/stm32f3xx_hal_flash_ex.c ****     status = FLASH_WaitForLastOperation((uint32_t)FLASH_TIMEOUT_VALUE);
 252              		.loc 1 845 0
 253 0028 4CF25030 		movw	r0, #50000
 254              	.LVL18:
 255 002c FFF7FEFF 		bl	FLASH_WaitForLastOperation
 256              	.LVL19:
 257 0030 0346     		mov	r3, r0
 258              	.LVL20:
 848:Drivers/STM32F3xx_HAL_Driver/Src/stm32f3xx_hal_flash_ex.c ****     CLEAR_BIT(FLASH->CR, FLASH_CR_OPTPG);
 259              		.loc 1 848 0
 260 0032 2269     		ldr	r2, [r4, #16]
 261 0034 22F01002 		bic	r2, r2, #16
 262 0038 2261     		str	r2, [r4, #16]
 263              	.LVL21:
 264              	.L18:
 852:Drivers/STM32F3xx_HAL_Driver/Src/stm32f3xx_hal_flash_ex.c **** }
 265              		.loc 1 852 0
 266 003a 1846     		mov	r0, r3
 267 003c 38BD     		pop	{r3, r4, r5, pc}
 268              	.LVL22:
 269              	.L20:
 270 003e 00BF     		.align	2
 271              	.L19:
 272 0040 00000000 		.word	pFlash
 273 0044 00200240 		.word	1073881088
 274 0048 00F8FF1F 		.word	536868864
 275              		.cfi_endproc
 276              	.LFE133:
 278              		.section	.text.FLASH_OB_ProgramData,"ax",%progbits
 279              		.align	2
 280              		.thumb
 281              		.thumb_func
 283              	FLASH_OB_ProgramData:
 284              	.LFB134:
 867:Drivers/STM32F3xx_HAL_Driver/Src/stm32f3xx_hal_flash_ex.c **** {
 285              		.loc 1 867 0
 286              		.cfi_startproc
 287              		@ args = 0, pretend = 0, frame = 0
 288              		@ frame_needed = 0, uses_anonymous_args = 0
 289              	.LVL23:
 290 0000 70B5     		push	{r4, r5, r6, lr}
 291              	.LCFI2:
ARM GAS  /tmp/cc6tAl1r.s 			page 23


 292              		.cfi_def_cfa_offset 16
 293              		.cfi_offset 4, -16
 294              		.cfi_offset 5, -12
 295              		.cfi_offset 6, -8
 296              		.cfi_offset 14, -4
 297 0002 0546     		mov	r5, r0
 298 0004 0E46     		mov	r6, r1
 299              	.LVL24:
 874:Drivers/STM32F3xx_HAL_Driver/Src/stm32f3xx_hal_flash_ex.c ****   status = FLASH_WaitForLastOperation((uint32_t)FLASH_TIMEOUT_VALUE);
 300              		.loc 1 874 0
 301 0006 4CF25030 		movw	r0, #50000
 302              	.LVL25:
 303 000a FFF7FEFF 		bl	FLASH_WaitForLastOperation
 304              	.LVL26:
 876:Drivers/STM32F3xx_HAL_Driver/Src/stm32f3xx_hal_flash_ex.c ****   if(status == HAL_OK)
 305              		.loc 1 876 0
 306 000e 0346     		mov	r3, r0
 307 0010 88B9     		cbnz	r0, .L22
 879:Drivers/STM32F3xx_HAL_Driver/Src/stm32f3xx_hal_flash_ex.c ****     pFlash.ErrorCode = HAL_FLASH_ERROR_NONE;
 308              		.loc 1 879 0
 309 0012 0022     		movs	r2, #0
 310 0014 094B     		ldr	r3, .L23
 311 0016 DA61     		str	r2, [r3, #28]
 882:Drivers/STM32F3xx_HAL_Driver/Src/stm32f3xx_hal_flash_ex.c ****     SET_BIT(FLASH->CR, FLASH_CR_OPTPG); 
 312              		.loc 1 882 0
 313 0018 094C     		ldr	r4, .L23+4
 314 001a 2369     		ldr	r3, [r4, #16]
 315 001c 43F01003 		orr	r3, r3, #16
 316 0020 2361     		str	r3, [r4, #16]
 883:Drivers/STM32F3xx_HAL_Driver/Src/stm32f3xx_hal_flash_ex.c ****     *(__IO uint16_t*)Address = Data;
 317              		.loc 1 883 0
 318 0022 2E80     		strh	r6, [r5]	@ movhi
 886:Drivers/STM32F3xx_HAL_Driver/Src/stm32f3xx_hal_flash_ex.c ****     status = FLASH_WaitForLastOperation((uint32_t)FLASH_TIMEOUT_VALUE);
 319              		.loc 1 886 0
 320 0024 4CF25030 		movw	r0, #50000
 321              	.LVL27:
 322 0028 FFF7FEFF 		bl	FLASH_WaitForLastOperation
 323              	.LVL28:
 324 002c 0346     		mov	r3, r0
 325              	.LVL29:
 889:Drivers/STM32F3xx_HAL_Driver/Src/stm32f3xx_hal_flash_ex.c ****     CLEAR_BIT(FLASH->CR, FLASH_CR_OPTPG);
 326              		.loc 1 889 0
 327 002e 2269     		ldr	r2, [r4, #16]
 328 0030 22F01002 		bic	r2, r2, #16
 329 0034 2261     		str	r2, [r4, #16]
 330              	.LVL30:
 331              	.L22:
 893:Drivers/STM32F3xx_HAL_Driver/Src/stm32f3xx_hal_flash_ex.c **** }
 332              		.loc 1 893 0
 333 0036 1846     		mov	r0, r3
 334 0038 70BD     		pop	{r4, r5, r6, pc}
 335              	.LVL31:
 336              	.L24:
 337 003a 00BF     		.align	2
 338              	.L23:
 339 003c 00000000 		.word	pFlash
 340 0040 00200240 		.word	1073881088
ARM GAS  /tmp/cc6tAl1r.s 			page 24


 341              		.cfi_endproc
 342              	.LFE134:
 344              		.section	.text.FLASH_OB_GetUser,"ax",%progbits
 345              		.align	2
 346              		.thumb
 347              		.thumb_func
 349              	FLASH_OB_GetUser:
 350              	.LFB137:
 950:Drivers/STM32F3xx_HAL_Driver/Src/stm32f3xx_hal_flash_ex.c **** 
 951:Drivers/STM32F3xx_HAL_Driver/Src/stm32f3xx_hal_flash_ex.c **** /**
 952:Drivers/STM32F3xx_HAL_Driver/Src/stm32f3xx_hal_flash_ex.c ****   * @brief  Return the FLASH User Option Byte value.
 953:Drivers/STM32F3xx_HAL_Driver/Src/stm32f3xx_hal_flash_ex.c ****   * @retval  The FLASH User Option Bytes values: IWDG_SW(Bit0), RST_STOP(Bit1), RST_STDBY(Bit2), nB
 954:Drivers/STM32F3xx_HAL_Driver/Src/stm32f3xx_hal_flash_ex.c ****   *         VDDA_Analog_Monitoring(Bit5) and SRAM_Parity_Enable(Bit6). 
 955:Drivers/STM32F3xx_HAL_Driver/Src/stm32f3xx_hal_flash_ex.c ****   *         And SDADC12_VDD_MONITOR(Bit7) for STM32F373 or STM32F378 . 
 956:Drivers/STM32F3xx_HAL_Driver/Src/stm32f3xx_hal_flash_ex.c ****   */
 957:Drivers/STM32F3xx_HAL_Driver/Src/stm32f3xx_hal_flash_ex.c **** static uint8_t FLASH_OB_GetUser(void)
 958:Drivers/STM32F3xx_HAL_Driver/Src/stm32f3xx_hal_flash_ex.c **** {
 351              		.loc 1 958 0
 352              		.cfi_startproc
 353              		@ args = 0, pretend = 0, frame = 0
 354              		@ frame_needed = 0, uses_anonymous_args = 0
 355              		@ link register save eliminated.
 959:Drivers/STM32F3xx_HAL_Driver/Src/stm32f3xx_hal_flash_ex.c ****   /* Return the User Option Byte */
 960:Drivers/STM32F3xx_HAL_Driver/Src/stm32f3xx_hal_flash_ex.c ****   return (uint8_t)((READ_REG(FLASH->OBR) & FLASH_OBR_USER) >> FLASH_POSITION_IWDGSW_BIT);
 356              		.loc 1 960 0
 357 0000 064B     		ldr	r3, .L26
 358 0002 DB69     		ldr	r3, [r3, #28]
 359 0004 03F4EE43 		and	r3, r3, #30464
 360              	.LVL32:
 361              	.LBB8:
 362              	.LBB9:
 363              		.file 2 "Drivers/CMSIS/Include/cmsis_gcc.h"
   1:Drivers/CMSIS/Include/cmsis_gcc.h **** /**************************************************************************//**
   2:Drivers/CMSIS/Include/cmsis_gcc.h ****  * @file     cmsis_gcc.h
   3:Drivers/CMSIS/Include/cmsis_gcc.h ****  * @brief    CMSIS Cortex-M Core Function/Instruction Header File
   4:Drivers/CMSIS/Include/cmsis_gcc.h ****  * @version  V4.30
   5:Drivers/CMSIS/Include/cmsis_gcc.h ****  * @date     20. October 2015
   6:Drivers/CMSIS/Include/cmsis_gcc.h ****  ******************************************************************************/
   7:Drivers/CMSIS/Include/cmsis_gcc.h **** /* Copyright (c) 2009 - 2015 ARM LIMITED
   8:Drivers/CMSIS/Include/cmsis_gcc.h **** 
   9:Drivers/CMSIS/Include/cmsis_gcc.h ****    All rights reserved.
  10:Drivers/CMSIS/Include/cmsis_gcc.h ****    Redistribution and use in source and binary forms, with or without
  11:Drivers/CMSIS/Include/cmsis_gcc.h ****    modification, are permitted provided that the following conditions are met:
  12:Drivers/CMSIS/Include/cmsis_gcc.h ****    - Redistributions of source code must retain the above copyright
  13:Drivers/CMSIS/Include/cmsis_gcc.h ****      notice, this list of conditions and the following disclaimer.
  14:Drivers/CMSIS/Include/cmsis_gcc.h ****    - Redistributions in binary form must reproduce the above copyright
  15:Drivers/CMSIS/Include/cmsis_gcc.h ****      notice, this list of conditions and the following disclaimer in the
  16:Drivers/CMSIS/Include/cmsis_gcc.h ****      documentation and/or other materials provided with the distribution.
  17:Drivers/CMSIS/Include/cmsis_gcc.h ****    - Neither the name of ARM nor the names of its contributors may be used
  18:Drivers/CMSIS/Include/cmsis_gcc.h ****      to endorse or promote products derived from this software without
  19:Drivers/CMSIS/Include/cmsis_gcc.h ****      specific prior written permission.
  20:Drivers/CMSIS/Include/cmsis_gcc.h ****    *
  21:Drivers/CMSIS/Include/cmsis_gcc.h ****    THIS SOFTWARE IS PROVIDED BY THE COPYRIGHT HOLDERS AND CONTRIBUTORS "AS IS"
  22:Drivers/CMSIS/Include/cmsis_gcc.h ****    AND ANY EXPRESS OR IMPLIED WARRANTIES, INCLUDING, BUT NOT LIMITED TO, THE
  23:Drivers/CMSIS/Include/cmsis_gcc.h ****    IMPLIED WARRANTIES OF MERCHANTABILITY AND FITNESS FOR A PARTICULAR PURPOSE
  24:Drivers/CMSIS/Include/cmsis_gcc.h ****    ARE DISCLAIMED. IN NO EVENT SHALL COPYRIGHT HOLDERS AND CONTRIBUTORS BE
  25:Drivers/CMSIS/Include/cmsis_gcc.h ****    LIABLE FOR ANY DIRECT, INDIRECT, INCIDENTAL, SPECIAL, EXEMPLARY, OR
ARM GAS  /tmp/cc6tAl1r.s 			page 25


  26:Drivers/CMSIS/Include/cmsis_gcc.h ****    CONSEQUENTIAL DAMAGES (INCLUDING, BUT NOT LIMITED TO, PROCUREMENT OF
  27:Drivers/CMSIS/Include/cmsis_gcc.h ****    SUBSTITUTE GOODS OR SERVICES; LOSS OF USE, DATA, OR PROFITS; OR BUSINESS
  28:Drivers/CMSIS/Include/cmsis_gcc.h ****    INTERRUPTION) HOWEVER CAUSED AND ON ANY THEORY OF LIABILITY, WHETHER IN
  29:Drivers/CMSIS/Include/cmsis_gcc.h ****    CONTRACT, STRICT LIABILITY, OR TORT (INCLUDING NEGLIGENCE OR OTHERWISE)
  30:Drivers/CMSIS/Include/cmsis_gcc.h ****    ARISING IN ANY WAY OUT OF THE USE OF THIS SOFTWARE, EVEN IF ADVISED OF THE
  31:Drivers/CMSIS/Include/cmsis_gcc.h ****    POSSIBILITY OF SUCH DAMAGE.
  32:Drivers/CMSIS/Include/cmsis_gcc.h ****    ---------------------------------------------------------------------------*/
  33:Drivers/CMSIS/Include/cmsis_gcc.h **** 
  34:Drivers/CMSIS/Include/cmsis_gcc.h **** 
  35:Drivers/CMSIS/Include/cmsis_gcc.h **** #ifndef __CMSIS_GCC_H
  36:Drivers/CMSIS/Include/cmsis_gcc.h **** #define __CMSIS_GCC_H
  37:Drivers/CMSIS/Include/cmsis_gcc.h **** 
  38:Drivers/CMSIS/Include/cmsis_gcc.h **** /* ignore some GCC warnings */
  39:Drivers/CMSIS/Include/cmsis_gcc.h **** #if defined ( __GNUC__ )
  40:Drivers/CMSIS/Include/cmsis_gcc.h **** #pragma GCC diagnostic push
  41:Drivers/CMSIS/Include/cmsis_gcc.h **** #pragma GCC diagnostic ignored "-Wsign-conversion"
  42:Drivers/CMSIS/Include/cmsis_gcc.h **** #pragma GCC diagnostic ignored "-Wconversion"
  43:Drivers/CMSIS/Include/cmsis_gcc.h **** #pragma GCC diagnostic ignored "-Wunused-parameter"
  44:Drivers/CMSIS/Include/cmsis_gcc.h **** #endif
  45:Drivers/CMSIS/Include/cmsis_gcc.h **** 
  46:Drivers/CMSIS/Include/cmsis_gcc.h **** 
  47:Drivers/CMSIS/Include/cmsis_gcc.h **** /* ###########################  Core Function Access  ########################### */
  48:Drivers/CMSIS/Include/cmsis_gcc.h **** /** \ingroup  CMSIS_Core_FunctionInterface
  49:Drivers/CMSIS/Include/cmsis_gcc.h ****     \defgroup CMSIS_Core_RegAccFunctions CMSIS Core Register Access Functions
  50:Drivers/CMSIS/Include/cmsis_gcc.h ****   @{
  51:Drivers/CMSIS/Include/cmsis_gcc.h ****  */
  52:Drivers/CMSIS/Include/cmsis_gcc.h **** 
  53:Drivers/CMSIS/Include/cmsis_gcc.h **** /**
  54:Drivers/CMSIS/Include/cmsis_gcc.h ****   \brief   Enable IRQ Interrupts
  55:Drivers/CMSIS/Include/cmsis_gcc.h ****   \details Enables IRQ interrupts by clearing the I-bit in the CPSR.
  56:Drivers/CMSIS/Include/cmsis_gcc.h ****            Can only be executed in Privileged modes.
  57:Drivers/CMSIS/Include/cmsis_gcc.h ****  */
  58:Drivers/CMSIS/Include/cmsis_gcc.h **** __attribute__( ( always_inline ) ) __STATIC_INLINE void __enable_irq(void)
  59:Drivers/CMSIS/Include/cmsis_gcc.h **** {
  60:Drivers/CMSIS/Include/cmsis_gcc.h ****   __ASM volatile ("cpsie i" : : : "memory");
  61:Drivers/CMSIS/Include/cmsis_gcc.h **** }
  62:Drivers/CMSIS/Include/cmsis_gcc.h **** 
  63:Drivers/CMSIS/Include/cmsis_gcc.h **** 
  64:Drivers/CMSIS/Include/cmsis_gcc.h **** /**
  65:Drivers/CMSIS/Include/cmsis_gcc.h ****   \brief   Disable IRQ Interrupts
  66:Drivers/CMSIS/Include/cmsis_gcc.h ****   \details Disables IRQ interrupts by setting the I-bit in the CPSR.
  67:Drivers/CMSIS/Include/cmsis_gcc.h ****   Can only be executed in Privileged modes.
  68:Drivers/CMSIS/Include/cmsis_gcc.h ****  */
  69:Drivers/CMSIS/Include/cmsis_gcc.h **** __attribute__( ( always_inline ) ) __STATIC_INLINE void __disable_irq(void)
  70:Drivers/CMSIS/Include/cmsis_gcc.h **** {
  71:Drivers/CMSIS/Include/cmsis_gcc.h ****   __ASM volatile ("cpsid i" : : : "memory");
  72:Drivers/CMSIS/Include/cmsis_gcc.h **** }
  73:Drivers/CMSIS/Include/cmsis_gcc.h **** 
  74:Drivers/CMSIS/Include/cmsis_gcc.h **** 
  75:Drivers/CMSIS/Include/cmsis_gcc.h **** /**
  76:Drivers/CMSIS/Include/cmsis_gcc.h ****   \brief   Get Control Register
  77:Drivers/CMSIS/Include/cmsis_gcc.h ****   \details Returns the content of the Control Register.
  78:Drivers/CMSIS/Include/cmsis_gcc.h ****   \return               Control Register value
  79:Drivers/CMSIS/Include/cmsis_gcc.h ****  */
  80:Drivers/CMSIS/Include/cmsis_gcc.h **** __attribute__( ( always_inline ) ) __STATIC_INLINE uint32_t __get_CONTROL(void)
  81:Drivers/CMSIS/Include/cmsis_gcc.h **** {
  82:Drivers/CMSIS/Include/cmsis_gcc.h ****   uint32_t result;
ARM GAS  /tmp/cc6tAl1r.s 			page 26


  83:Drivers/CMSIS/Include/cmsis_gcc.h **** 
  84:Drivers/CMSIS/Include/cmsis_gcc.h ****   __ASM volatile ("MRS %0, control" : "=r" (result) );
  85:Drivers/CMSIS/Include/cmsis_gcc.h ****   return(result);
  86:Drivers/CMSIS/Include/cmsis_gcc.h **** }
  87:Drivers/CMSIS/Include/cmsis_gcc.h **** 
  88:Drivers/CMSIS/Include/cmsis_gcc.h **** 
  89:Drivers/CMSIS/Include/cmsis_gcc.h **** /**
  90:Drivers/CMSIS/Include/cmsis_gcc.h ****   \brief   Set Control Register
  91:Drivers/CMSIS/Include/cmsis_gcc.h ****   \details Writes the given value to the Control Register.
  92:Drivers/CMSIS/Include/cmsis_gcc.h ****   \param [in]    control  Control Register value to set
  93:Drivers/CMSIS/Include/cmsis_gcc.h ****  */
  94:Drivers/CMSIS/Include/cmsis_gcc.h **** __attribute__( ( always_inline ) ) __STATIC_INLINE void __set_CONTROL(uint32_t control)
  95:Drivers/CMSIS/Include/cmsis_gcc.h **** {
  96:Drivers/CMSIS/Include/cmsis_gcc.h ****   __ASM volatile ("MSR control, %0" : : "r" (control) : "memory");
  97:Drivers/CMSIS/Include/cmsis_gcc.h **** }
  98:Drivers/CMSIS/Include/cmsis_gcc.h **** 
  99:Drivers/CMSIS/Include/cmsis_gcc.h **** 
 100:Drivers/CMSIS/Include/cmsis_gcc.h **** /**
 101:Drivers/CMSIS/Include/cmsis_gcc.h ****   \brief   Get IPSR Register
 102:Drivers/CMSIS/Include/cmsis_gcc.h ****   \details Returns the content of the IPSR Register.
 103:Drivers/CMSIS/Include/cmsis_gcc.h ****   \return               IPSR Register value
 104:Drivers/CMSIS/Include/cmsis_gcc.h ****  */
 105:Drivers/CMSIS/Include/cmsis_gcc.h **** __attribute__( ( always_inline ) ) __STATIC_INLINE uint32_t __get_IPSR(void)
 106:Drivers/CMSIS/Include/cmsis_gcc.h **** {
 107:Drivers/CMSIS/Include/cmsis_gcc.h ****   uint32_t result;
 108:Drivers/CMSIS/Include/cmsis_gcc.h **** 
 109:Drivers/CMSIS/Include/cmsis_gcc.h ****   __ASM volatile ("MRS %0, ipsr" : "=r" (result) );
 110:Drivers/CMSIS/Include/cmsis_gcc.h ****   return(result);
 111:Drivers/CMSIS/Include/cmsis_gcc.h **** }
 112:Drivers/CMSIS/Include/cmsis_gcc.h **** 
 113:Drivers/CMSIS/Include/cmsis_gcc.h **** 
 114:Drivers/CMSIS/Include/cmsis_gcc.h **** /**
 115:Drivers/CMSIS/Include/cmsis_gcc.h ****   \brief   Get APSR Register
 116:Drivers/CMSIS/Include/cmsis_gcc.h ****   \details Returns the content of the APSR Register.
 117:Drivers/CMSIS/Include/cmsis_gcc.h ****   \return               APSR Register value
 118:Drivers/CMSIS/Include/cmsis_gcc.h ****  */
 119:Drivers/CMSIS/Include/cmsis_gcc.h **** __attribute__( ( always_inline ) ) __STATIC_INLINE uint32_t __get_APSR(void)
 120:Drivers/CMSIS/Include/cmsis_gcc.h **** {
 121:Drivers/CMSIS/Include/cmsis_gcc.h ****   uint32_t result;
 122:Drivers/CMSIS/Include/cmsis_gcc.h **** 
 123:Drivers/CMSIS/Include/cmsis_gcc.h ****   __ASM volatile ("MRS %0, apsr" : "=r" (result) );
 124:Drivers/CMSIS/Include/cmsis_gcc.h ****   return(result);
 125:Drivers/CMSIS/Include/cmsis_gcc.h **** }
 126:Drivers/CMSIS/Include/cmsis_gcc.h **** 
 127:Drivers/CMSIS/Include/cmsis_gcc.h **** 
 128:Drivers/CMSIS/Include/cmsis_gcc.h **** /**
 129:Drivers/CMSIS/Include/cmsis_gcc.h ****   \brief   Get xPSR Register
 130:Drivers/CMSIS/Include/cmsis_gcc.h ****   \details Returns the content of the xPSR Register.
 131:Drivers/CMSIS/Include/cmsis_gcc.h **** 
 132:Drivers/CMSIS/Include/cmsis_gcc.h ****     \return               xPSR Register value
 133:Drivers/CMSIS/Include/cmsis_gcc.h ****  */
 134:Drivers/CMSIS/Include/cmsis_gcc.h **** __attribute__( ( always_inline ) ) __STATIC_INLINE uint32_t __get_xPSR(void)
 135:Drivers/CMSIS/Include/cmsis_gcc.h **** {
 136:Drivers/CMSIS/Include/cmsis_gcc.h ****   uint32_t result;
 137:Drivers/CMSIS/Include/cmsis_gcc.h **** 
 138:Drivers/CMSIS/Include/cmsis_gcc.h ****   __ASM volatile ("MRS %0, xpsr" : "=r" (result) );
 139:Drivers/CMSIS/Include/cmsis_gcc.h ****   return(result);
ARM GAS  /tmp/cc6tAl1r.s 			page 27


 140:Drivers/CMSIS/Include/cmsis_gcc.h **** }
 141:Drivers/CMSIS/Include/cmsis_gcc.h **** 
 142:Drivers/CMSIS/Include/cmsis_gcc.h **** 
 143:Drivers/CMSIS/Include/cmsis_gcc.h **** /**
 144:Drivers/CMSIS/Include/cmsis_gcc.h ****   \brief   Get Process Stack Pointer
 145:Drivers/CMSIS/Include/cmsis_gcc.h ****   \details Returns the current value of the Process Stack Pointer (PSP).
 146:Drivers/CMSIS/Include/cmsis_gcc.h ****   \return               PSP Register value
 147:Drivers/CMSIS/Include/cmsis_gcc.h ****  */
 148:Drivers/CMSIS/Include/cmsis_gcc.h **** __attribute__( ( always_inline ) ) __STATIC_INLINE uint32_t __get_PSP(void)
 149:Drivers/CMSIS/Include/cmsis_gcc.h **** {
 150:Drivers/CMSIS/Include/cmsis_gcc.h ****   register uint32_t result;
 151:Drivers/CMSIS/Include/cmsis_gcc.h **** 
 152:Drivers/CMSIS/Include/cmsis_gcc.h ****   __ASM volatile ("MRS %0, psp\n"  : "=r" (result) );
 153:Drivers/CMSIS/Include/cmsis_gcc.h ****   return(result);
 154:Drivers/CMSIS/Include/cmsis_gcc.h **** }
 155:Drivers/CMSIS/Include/cmsis_gcc.h **** 
 156:Drivers/CMSIS/Include/cmsis_gcc.h **** 
 157:Drivers/CMSIS/Include/cmsis_gcc.h **** /**
 158:Drivers/CMSIS/Include/cmsis_gcc.h ****   \brief   Set Process Stack Pointer
 159:Drivers/CMSIS/Include/cmsis_gcc.h ****   \details Assigns the given value to the Process Stack Pointer (PSP).
 160:Drivers/CMSIS/Include/cmsis_gcc.h ****   \param [in]    topOfProcStack  Process Stack Pointer value to set
 161:Drivers/CMSIS/Include/cmsis_gcc.h ****  */
 162:Drivers/CMSIS/Include/cmsis_gcc.h **** __attribute__( ( always_inline ) ) __STATIC_INLINE void __set_PSP(uint32_t topOfProcStack)
 163:Drivers/CMSIS/Include/cmsis_gcc.h **** {
 164:Drivers/CMSIS/Include/cmsis_gcc.h ****   __ASM volatile ("MSR psp, %0\n" : : "r" (topOfProcStack) : "sp");
 165:Drivers/CMSIS/Include/cmsis_gcc.h **** }
 166:Drivers/CMSIS/Include/cmsis_gcc.h **** 
 167:Drivers/CMSIS/Include/cmsis_gcc.h **** 
 168:Drivers/CMSIS/Include/cmsis_gcc.h **** /**
 169:Drivers/CMSIS/Include/cmsis_gcc.h ****   \brief   Get Main Stack Pointer
 170:Drivers/CMSIS/Include/cmsis_gcc.h ****   \details Returns the current value of the Main Stack Pointer (MSP).
 171:Drivers/CMSIS/Include/cmsis_gcc.h ****   \return               MSP Register value
 172:Drivers/CMSIS/Include/cmsis_gcc.h ****  */
 173:Drivers/CMSIS/Include/cmsis_gcc.h **** __attribute__( ( always_inline ) ) __STATIC_INLINE uint32_t __get_MSP(void)
 174:Drivers/CMSIS/Include/cmsis_gcc.h **** {
 175:Drivers/CMSIS/Include/cmsis_gcc.h ****   register uint32_t result;
 176:Drivers/CMSIS/Include/cmsis_gcc.h **** 
 177:Drivers/CMSIS/Include/cmsis_gcc.h ****   __ASM volatile ("MRS %0, msp\n" : "=r" (result) );
 178:Drivers/CMSIS/Include/cmsis_gcc.h ****   return(result);
 179:Drivers/CMSIS/Include/cmsis_gcc.h **** }
 180:Drivers/CMSIS/Include/cmsis_gcc.h **** 
 181:Drivers/CMSIS/Include/cmsis_gcc.h **** 
 182:Drivers/CMSIS/Include/cmsis_gcc.h **** /**
 183:Drivers/CMSIS/Include/cmsis_gcc.h ****   \brief   Set Main Stack Pointer
 184:Drivers/CMSIS/Include/cmsis_gcc.h ****   \details Assigns the given value to the Main Stack Pointer (MSP).
 185:Drivers/CMSIS/Include/cmsis_gcc.h **** 
 186:Drivers/CMSIS/Include/cmsis_gcc.h ****     \param [in]    topOfMainStack  Main Stack Pointer value to set
 187:Drivers/CMSIS/Include/cmsis_gcc.h ****  */
 188:Drivers/CMSIS/Include/cmsis_gcc.h **** __attribute__( ( always_inline ) ) __STATIC_INLINE void __set_MSP(uint32_t topOfMainStack)
 189:Drivers/CMSIS/Include/cmsis_gcc.h **** {
 190:Drivers/CMSIS/Include/cmsis_gcc.h ****   __ASM volatile ("MSR msp, %0\n" : : "r" (topOfMainStack) : "sp");
 191:Drivers/CMSIS/Include/cmsis_gcc.h **** }
 192:Drivers/CMSIS/Include/cmsis_gcc.h **** 
 193:Drivers/CMSIS/Include/cmsis_gcc.h **** 
 194:Drivers/CMSIS/Include/cmsis_gcc.h **** /**
 195:Drivers/CMSIS/Include/cmsis_gcc.h ****   \brief   Get Priority Mask
 196:Drivers/CMSIS/Include/cmsis_gcc.h ****   \details Returns the current state of the priority mask bit from the Priority Mask Register.
ARM GAS  /tmp/cc6tAl1r.s 			page 28


 197:Drivers/CMSIS/Include/cmsis_gcc.h ****   \return               Priority Mask value
 198:Drivers/CMSIS/Include/cmsis_gcc.h ****  */
 199:Drivers/CMSIS/Include/cmsis_gcc.h **** __attribute__( ( always_inline ) ) __STATIC_INLINE uint32_t __get_PRIMASK(void)
 200:Drivers/CMSIS/Include/cmsis_gcc.h **** {
 201:Drivers/CMSIS/Include/cmsis_gcc.h ****   uint32_t result;
 202:Drivers/CMSIS/Include/cmsis_gcc.h **** 
 203:Drivers/CMSIS/Include/cmsis_gcc.h ****   __ASM volatile ("MRS %0, primask" : "=r" (result) );
 204:Drivers/CMSIS/Include/cmsis_gcc.h ****   return(result);
 205:Drivers/CMSIS/Include/cmsis_gcc.h **** }
 206:Drivers/CMSIS/Include/cmsis_gcc.h **** 
 207:Drivers/CMSIS/Include/cmsis_gcc.h **** 
 208:Drivers/CMSIS/Include/cmsis_gcc.h **** /**
 209:Drivers/CMSIS/Include/cmsis_gcc.h ****   \brief   Set Priority Mask
 210:Drivers/CMSIS/Include/cmsis_gcc.h ****   \details Assigns the given value to the Priority Mask Register.
 211:Drivers/CMSIS/Include/cmsis_gcc.h ****   \param [in]    priMask  Priority Mask
 212:Drivers/CMSIS/Include/cmsis_gcc.h ****  */
 213:Drivers/CMSIS/Include/cmsis_gcc.h **** __attribute__( ( always_inline ) ) __STATIC_INLINE void __set_PRIMASK(uint32_t priMask)
 214:Drivers/CMSIS/Include/cmsis_gcc.h **** {
 215:Drivers/CMSIS/Include/cmsis_gcc.h ****   __ASM volatile ("MSR primask, %0" : : "r" (priMask) : "memory");
 216:Drivers/CMSIS/Include/cmsis_gcc.h **** }
 217:Drivers/CMSIS/Include/cmsis_gcc.h **** 
 218:Drivers/CMSIS/Include/cmsis_gcc.h **** 
 219:Drivers/CMSIS/Include/cmsis_gcc.h **** #if       (__CORTEX_M >= 0x03U)
 220:Drivers/CMSIS/Include/cmsis_gcc.h **** 
 221:Drivers/CMSIS/Include/cmsis_gcc.h **** /**
 222:Drivers/CMSIS/Include/cmsis_gcc.h ****   \brief   Enable FIQ
 223:Drivers/CMSIS/Include/cmsis_gcc.h ****   \details Enables FIQ interrupts by clearing the F-bit in the CPSR.
 224:Drivers/CMSIS/Include/cmsis_gcc.h ****            Can only be executed in Privileged modes.
 225:Drivers/CMSIS/Include/cmsis_gcc.h ****  */
 226:Drivers/CMSIS/Include/cmsis_gcc.h **** __attribute__( ( always_inline ) ) __STATIC_INLINE void __enable_fault_irq(void)
 227:Drivers/CMSIS/Include/cmsis_gcc.h **** {
 228:Drivers/CMSIS/Include/cmsis_gcc.h ****   __ASM volatile ("cpsie f" : : : "memory");
 229:Drivers/CMSIS/Include/cmsis_gcc.h **** }
 230:Drivers/CMSIS/Include/cmsis_gcc.h **** 
 231:Drivers/CMSIS/Include/cmsis_gcc.h **** 
 232:Drivers/CMSIS/Include/cmsis_gcc.h **** /**
 233:Drivers/CMSIS/Include/cmsis_gcc.h ****   \brief   Disable FIQ
 234:Drivers/CMSIS/Include/cmsis_gcc.h ****   \details Disables FIQ interrupts by setting the F-bit in the CPSR.
 235:Drivers/CMSIS/Include/cmsis_gcc.h ****            Can only be executed in Privileged modes.
 236:Drivers/CMSIS/Include/cmsis_gcc.h ****  */
 237:Drivers/CMSIS/Include/cmsis_gcc.h **** __attribute__( ( always_inline ) ) __STATIC_INLINE void __disable_fault_irq(void)
 238:Drivers/CMSIS/Include/cmsis_gcc.h **** {
 239:Drivers/CMSIS/Include/cmsis_gcc.h ****   __ASM volatile ("cpsid f" : : : "memory");
 240:Drivers/CMSIS/Include/cmsis_gcc.h **** }
 241:Drivers/CMSIS/Include/cmsis_gcc.h **** 
 242:Drivers/CMSIS/Include/cmsis_gcc.h **** 
 243:Drivers/CMSIS/Include/cmsis_gcc.h **** /**
 244:Drivers/CMSIS/Include/cmsis_gcc.h ****   \brief   Get Base Priority
 245:Drivers/CMSIS/Include/cmsis_gcc.h ****   \details Returns the current value of the Base Priority register.
 246:Drivers/CMSIS/Include/cmsis_gcc.h ****   \return               Base Priority register value
 247:Drivers/CMSIS/Include/cmsis_gcc.h ****  */
 248:Drivers/CMSIS/Include/cmsis_gcc.h **** __attribute__( ( always_inline ) ) __STATIC_INLINE uint32_t __get_BASEPRI(void)
 249:Drivers/CMSIS/Include/cmsis_gcc.h **** {
 250:Drivers/CMSIS/Include/cmsis_gcc.h ****   uint32_t result;
 251:Drivers/CMSIS/Include/cmsis_gcc.h **** 
 252:Drivers/CMSIS/Include/cmsis_gcc.h ****   __ASM volatile ("MRS %0, basepri" : "=r" (result) );
 253:Drivers/CMSIS/Include/cmsis_gcc.h ****   return(result);
ARM GAS  /tmp/cc6tAl1r.s 			page 29


 254:Drivers/CMSIS/Include/cmsis_gcc.h **** }
 255:Drivers/CMSIS/Include/cmsis_gcc.h **** 
 256:Drivers/CMSIS/Include/cmsis_gcc.h **** 
 257:Drivers/CMSIS/Include/cmsis_gcc.h **** /**
 258:Drivers/CMSIS/Include/cmsis_gcc.h ****   \brief   Set Base Priority
 259:Drivers/CMSIS/Include/cmsis_gcc.h ****   \details Assigns the given value to the Base Priority register.
 260:Drivers/CMSIS/Include/cmsis_gcc.h ****   \param [in]    basePri  Base Priority value to set
 261:Drivers/CMSIS/Include/cmsis_gcc.h ****  */
 262:Drivers/CMSIS/Include/cmsis_gcc.h **** __attribute__( ( always_inline ) ) __STATIC_INLINE void __set_BASEPRI(uint32_t value)
 263:Drivers/CMSIS/Include/cmsis_gcc.h **** {
 264:Drivers/CMSIS/Include/cmsis_gcc.h ****   __ASM volatile ("MSR basepri, %0" : : "r" (value) : "memory");
 265:Drivers/CMSIS/Include/cmsis_gcc.h **** }
 266:Drivers/CMSIS/Include/cmsis_gcc.h **** 
 267:Drivers/CMSIS/Include/cmsis_gcc.h **** 
 268:Drivers/CMSIS/Include/cmsis_gcc.h **** /**
 269:Drivers/CMSIS/Include/cmsis_gcc.h ****   \brief   Set Base Priority with condition
 270:Drivers/CMSIS/Include/cmsis_gcc.h ****   \details Assigns the given value to the Base Priority register only if BASEPRI masking is disable
 271:Drivers/CMSIS/Include/cmsis_gcc.h ****            or the new value increases the BASEPRI priority level.
 272:Drivers/CMSIS/Include/cmsis_gcc.h ****   \param [in]    basePri  Base Priority value to set
 273:Drivers/CMSIS/Include/cmsis_gcc.h ****  */
 274:Drivers/CMSIS/Include/cmsis_gcc.h **** __attribute__( ( always_inline ) ) __STATIC_INLINE void __set_BASEPRI_MAX(uint32_t value)
 275:Drivers/CMSIS/Include/cmsis_gcc.h **** {
 276:Drivers/CMSIS/Include/cmsis_gcc.h ****   __ASM volatile ("MSR basepri_max, %0" : : "r" (value) : "memory");
 277:Drivers/CMSIS/Include/cmsis_gcc.h **** }
 278:Drivers/CMSIS/Include/cmsis_gcc.h **** 
 279:Drivers/CMSIS/Include/cmsis_gcc.h **** 
 280:Drivers/CMSIS/Include/cmsis_gcc.h **** /**
 281:Drivers/CMSIS/Include/cmsis_gcc.h ****   \brief   Get Fault Mask
 282:Drivers/CMSIS/Include/cmsis_gcc.h ****   \details Returns the current value of the Fault Mask register.
 283:Drivers/CMSIS/Include/cmsis_gcc.h ****   \return               Fault Mask register value
 284:Drivers/CMSIS/Include/cmsis_gcc.h ****  */
 285:Drivers/CMSIS/Include/cmsis_gcc.h **** __attribute__( ( always_inline ) ) __STATIC_INLINE uint32_t __get_FAULTMASK(void)
 286:Drivers/CMSIS/Include/cmsis_gcc.h **** {
 287:Drivers/CMSIS/Include/cmsis_gcc.h ****   uint32_t result;
 288:Drivers/CMSIS/Include/cmsis_gcc.h **** 
 289:Drivers/CMSIS/Include/cmsis_gcc.h ****   __ASM volatile ("MRS %0, faultmask" : "=r" (result) );
 290:Drivers/CMSIS/Include/cmsis_gcc.h ****   return(result);
 291:Drivers/CMSIS/Include/cmsis_gcc.h **** }
 292:Drivers/CMSIS/Include/cmsis_gcc.h **** 
 293:Drivers/CMSIS/Include/cmsis_gcc.h **** 
 294:Drivers/CMSIS/Include/cmsis_gcc.h **** /**
 295:Drivers/CMSIS/Include/cmsis_gcc.h ****   \brief   Set Fault Mask
 296:Drivers/CMSIS/Include/cmsis_gcc.h ****   \details Assigns the given value to the Fault Mask register.
 297:Drivers/CMSIS/Include/cmsis_gcc.h ****   \param [in]    faultMask  Fault Mask value to set
 298:Drivers/CMSIS/Include/cmsis_gcc.h ****  */
 299:Drivers/CMSIS/Include/cmsis_gcc.h **** __attribute__( ( always_inline ) ) __STATIC_INLINE void __set_FAULTMASK(uint32_t faultMask)
 300:Drivers/CMSIS/Include/cmsis_gcc.h **** {
 301:Drivers/CMSIS/Include/cmsis_gcc.h ****   __ASM volatile ("MSR faultmask, %0" : : "r" (faultMask) : "memory");
 302:Drivers/CMSIS/Include/cmsis_gcc.h **** }
 303:Drivers/CMSIS/Include/cmsis_gcc.h **** 
 304:Drivers/CMSIS/Include/cmsis_gcc.h **** #endif /* (__CORTEX_M >= 0x03U) */
 305:Drivers/CMSIS/Include/cmsis_gcc.h **** 
 306:Drivers/CMSIS/Include/cmsis_gcc.h **** 
 307:Drivers/CMSIS/Include/cmsis_gcc.h **** #if       (__CORTEX_M == 0x04U) || (__CORTEX_M == 0x07U)
 308:Drivers/CMSIS/Include/cmsis_gcc.h **** 
 309:Drivers/CMSIS/Include/cmsis_gcc.h **** /**
 310:Drivers/CMSIS/Include/cmsis_gcc.h ****   \brief   Get FPSCR
ARM GAS  /tmp/cc6tAl1r.s 			page 30


 311:Drivers/CMSIS/Include/cmsis_gcc.h ****   \details Returns the current value of the Floating Point Status/Control register.
 312:Drivers/CMSIS/Include/cmsis_gcc.h ****   \return               Floating Point Status/Control register value
 313:Drivers/CMSIS/Include/cmsis_gcc.h ****  */
 314:Drivers/CMSIS/Include/cmsis_gcc.h **** __attribute__( ( always_inline ) ) __STATIC_INLINE uint32_t __get_FPSCR(void)
 315:Drivers/CMSIS/Include/cmsis_gcc.h **** {
 316:Drivers/CMSIS/Include/cmsis_gcc.h **** #if (__FPU_PRESENT == 1U) && (__FPU_USED == 1U)
 317:Drivers/CMSIS/Include/cmsis_gcc.h ****   uint32_t result;
 318:Drivers/CMSIS/Include/cmsis_gcc.h **** 
 319:Drivers/CMSIS/Include/cmsis_gcc.h ****   /* Empty asm statement works as a scheduling barrier */
 320:Drivers/CMSIS/Include/cmsis_gcc.h ****   __ASM volatile ("");
 321:Drivers/CMSIS/Include/cmsis_gcc.h ****   __ASM volatile ("VMRS %0, fpscr" : "=r" (result) );
 322:Drivers/CMSIS/Include/cmsis_gcc.h ****   __ASM volatile ("");
 323:Drivers/CMSIS/Include/cmsis_gcc.h ****   return(result);
 324:Drivers/CMSIS/Include/cmsis_gcc.h **** #else
 325:Drivers/CMSIS/Include/cmsis_gcc.h ****    return(0);
 326:Drivers/CMSIS/Include/cmsis_gcc.h **** #endif
 327:Drivers/CMSIS/Include/cmsis_gcc.h **** }
 328:Drivers/CMSIS/Include/cmsis_gcc.h **** 
 329:Drivers/CMSIS/Include/cmsis_gcc.h **** 
 330:Drivers/CMSIS/Include/cmsis_gcc.h **** /**
 331:Drivers/CMSIS/Include/cmsis_gcc.h ****   \brief   Set FPSCR
 332:Drivers/CMSIS/Include/cmsis_gcc.h ****   \details Assigns the given value to the Floating Point Status/Control register.
 333:Drivers/CMSIS/Include/cmsis_gcc.h ****   \param [in]    fpscr  Floating Point Status/Control value to set
 334:Drivers/CMSIS/Include/cmsis_gcc.h ****  */
 335:Drivers/CMSIS/Include/cmsis_gcc.h **** __attribute__( ( always_inline ) ) __STATIC_INLINE void __set_FPSCR(uint32_t fpscr)
 336:Drivers/CMSIS/Include/cmsis_gcc.h **** {
 337:Drivers/CMSIS/Include/cmsis_gcc.h **** #if (__FPU_PRESENT == 1U) && (__FPU_USED == 1U)
 338:Drivers/CMSIS/Include/cmsis_gcc.h ****   /* Empty asm statement works as a scheduling barrier */
 339:Drivers/CMSIS/Include/cmsis_gcc.h ****   __ASM volatile ("");
 340:Drivers/CMSIS/Include/cmsis_gcc.h ****   __ASM volatile ("VMSR fpscr, %0" : : "r" (fpscr) : "vfpcc");
 341:Drivers/CMSIS/Include/cmsis_gcc.h ****   __ASM volatile ("");
 342:Drivers/CMSIS/Include/cmsis_gcc.h **** #endif
 343:Drivers/CMSIS/Include/cmsis_gcc.h **** }
 344:Drivers/CMSIS/Include/cmsis_gcc.h **** 
 345:Drivers/CMSIS/Include/cmsis_gcc.h **** #endif /* (__CORTEX_M == 0x04U) || (__CORTEX_M == 0x07U) */
 346:Drivers/CMSIS/Include/cmsis_gcc.h **** 
 347:Drivers/CMSIS/Include/cmsis_gcc.h **** 
 348:Drivers/CMSIS/Include/cmsis_gcc.h **** 
 349:Drivers/CMSIS/Include/cmsis_gcc.h **** /*@} end of CMSIS_Core_RegAccFunctions */
 350:Drivers/CMSIS/Include/cmsis_gcc.h **** 
 351:Drivers/CMSIS/Include/cmsis_gcc.h **** 
 352:Drivers/CMSIS/Include/cmsis_gcc.h **** /* ##########################  Core Instruction Access  ######################### */
 353:Drivers/CMSIS/Include/cmsis_gcc.h **** /** \defgroup CMSIS_Core_InstructionInterface CMSIS Core Instruction Interface
 354:Drivers/CMSIS/Include/cmsis_gcc.h ****   Access to dedicated instructions
 355:Drivers/CMSIS/Include/cmsis_gcc.h ****   @{
 356:Drivers/CMSIS/Include/cmsis_gcc.h **** */
 357:Drivers/CMSIS/Include/cmsis_gcc.h **** 
 358:Drivers/CMSIS/Include/cmsis_gcc.h **** /* Define macros for porting to both thumb1 and thumb2.
 359:Drivers/CMSIS/Include/cmsis_gcc.h ****  * For thumb1, use low register (r0-r7), specified by constraint "l"
 360:Drivers/CMSIS/Include/cmsis_gcc.h ****  * Otherwise, use general registers, specified by constraint "r" */
 361:Drivers/CMSIS/Include/cmsis_gcc.h **** #if defined (__thumb__) && !defined (__thumb2__)
 362:Drivers/CMSIS/Include/cmsis_gcc.h **** #define __CMSIS_GCC_OUT_REG(r) "=l" (r)
 363:Drivers/CMSIS/Include/cmsis_gcc.h **** #define __CMSIS_GCC_USE_REG(r) "l" (r)
 364:Drivers/CMSIS/Include/cmsis_gcc.h **** #else
 365:Drivers/CMSIS/Include/cmsis_gcc.h **** #define __CMSIS_GCC_OUT_REG(r) "=r" (r)
 366:Drivers/CMSIS/Include/cmsis_gcc.h **** #define __CMSIS_GCC_USE_REG(r) "r" (r)
 367:Drivers/CMSIS/Include/cmsis_gcc.h **** #endif
ARM GAS  /tmp/cc6tAl1r.s 			page 31


 368:Drivers/CMSIS/Include/cmsis_gcc.h **** 
 369:Drivers/CMSIS/Include/cmsis_gcc.h **** /**
 370:Drivers/CMSIS/Include/cmsis_gcc.h ****   \brief   No Operation
 371:Drivers/CMSIS/Include/cmsis_gcc.h ****   \details No Operation does nothing. This instruction can be used for code alignment purposes.
 372:Drivers/CMSIS/Include/cmsis_gcc.h ****  */
 373:Drivers/CMSIS/Include/cmsis_gcc.h **** __attribute__((always_inline)) __STATIC_INLINE void __NOP(void)
 374:Drivers/CMSIS/Include/cmsis_gcc.h **** {
 375:Drivers/CMSIS/Include/cmsis_gcc.h ****   __ASM volatile ("nop");
 376:Drivers/CMSIS/Include/cmsis_gcc.h **** }
 377:Drivers/CMSIS/Include/cmsis_gcc.h **** 
 378:Drivers/CMSIS/Include/cmsis_gcc.h **** 
 379:Drivers/CMSIS/Include/cmsis_gcc.h **** /**
 380:Drivers/CMSIS/Include/cmsis_gcc.h ****   \brief   Wait For Interrupt
 381:Drivers/CMSIS/Include/cmsis_gcc.h ****   \details Wait For Interrupt is a hint instruction that suspends execution until one of a number o
 382:Drivers/CMSIS/Include/cmsis_gcc.h ****  */
 383:Drivers/CMSIS/Include/cmsis_gcc.h **** __attribute__((always_inline)) __STATIC_INLINE void __WFI(void)
 384:Drivers/CMSIS/Include/cmsis_gcc.h **** {
 385:Drivers/CMSIS/Include/cmsis_gcc.h ****   __ASM volatile ("wfi");
 386:Drivers/CMSIS/Include/cmsis_gcc.h **** }
 387:Drivers/CMSIS/Include/cmsis_gcc.h **** 
 388:Drivers/CMSIS/Include/cmsis_gcc.h **** 
 389:Drivers/CMSIS/Include/cmsis_gcc.h **** /**
 390:Drivers/CMSIS/Include/cmsis_gcc.h ****   \brief   Wait For Event
 391:Drivers/CMSIS/Include/cmsis_gcc.h ****   \details Wait For Event is a hint instruction that permits the processor to enter
 392:Drivers/CMSIS/Include/cmsis_gcc.h ****     a low-power state until one of a number of events occurs.
 393:Drivers/CMSIS/Include/cmsis_gcc.h ****  */
 394:Drivers/CMSIS/Include/cmsis_gcc.h **** __attribute__((always_inline)) __STATIC_INLINE void __WFE(void)
 395:Drivers/CMSIS/Include/cmsis_gcc.h **** {
 396:Drivers/CMSIS/Include/cmsis_gcc.h ****   __ASM volatile ("wfe");
 397:Drivers/CMSIS/Include/cmsis_gcc.h **** }
 398:Drivers/CMSIS/Include/cmsis_gcc.h **** 
 399:Drivers/CMSIS/Include/cmsis_gcc.h **** 
 400:Drivers/CMSIS/Include/cmsis_gcc.h **** /**
 401:Drivers/CMSIS/Include/cmsis_gcc.h ****   \brief   Send Event
 402:Drivers/CMSIS/Include/cmsis_gcc.h ****   \details Send Event is a hint instruction. It causes an event to be signaled to the CPU.
 403:Drivers/CMSIS/Include/cmsis_gcc.h ****  */
 404:Drivers/CMSIS/Include/cmsis_gcc.h **** __attribute__((always_inline)) __STATIC_INLINE void __SEV(void)
 405:Drivers/CMSIS/Include/cmsis_gcc.h **** {
 406:Drivers/CMSIS/Include/cmsis_gcc.h ****   __ASM volatile ("sev");
 407:Drivers/CMSIS/Include/cmsis_gcc.h **** }
 408:Drivers/CMSIS/Include/cmsis_gcc.h **** 
 409:Drivers/CMSIS/Include/cmsis_gcc.h **** 
 410:Drivers/CMSIS/Include/cmsis_gcc.h **** /**
 411:Drivers/CMSIS/Include/cmsis_gcc.h ****   \brief   Instruction Synchronization Barrier
 412:Drivers/CMSIS/Include/cmsis_gcc.h ****   \details Instruction Synchronization Barrier flushes the pipeline in the processor,
 413:Drivers/CMSIS/Include/cmsis_gcc.h ****            so that all instructions following the ISB are fetched from cache or memory,
 414:Drivers/CMSIS/Include/cmsis_gcc.h ****            after the instruction has been completed.
 415:Drivers/CMSIS/Include/cmsis_gcc.h ****  */
 416:Drivers/CMSIS/Include/cmsis_gcc.h **** __attribute__((always_inline)) __STATIC_INLINE void __ISB(void)
 417:Drivers/CMSIS/Include/cmsis_gcc.h **** {
 418:Drivers/CMSIS/Include/cmsis_gcc.h ****   __ASM volatile ("isb 0xF":::"memory");
 419:Drivers/CMSIS/Include/cmsis_gcc.h **** }
 420:Drivers/CMSIS/Include/cmsis_gcc.h **** 
 421:Drivers/CMSIS/Include/cmsis_gcc.h **** 
 422:Drivers/CMSIS/Include/cmsis_gcc.h **** /**
 423:Drivers/CMSIS/Include/cmsis_gcc.h ****   \brief   Data Synchronization Barrier
 424:Drivers/CMSIS/Include/cmsis_gcc.h ****   \details Acts as a special kind of Data Memory Barrier.
ARM GAS  /tmp/cc6tAl1r.s 			page 32


 425:Drivers/CMSIS/Include/cmsis_gcc.h ****            It completes when all explicit memory accesses before this instruction complete.
 426:Drivers/CMSIS/Include/cmsis_gcc.h ****  */
 427:Drivers/CMSIS/Include/cmsis_gcc.h **** __attribute__((always_inline)) __STATIC_INLINE void __DSB(void)
 428:Drivers/CMSIS/Include/cmsis_gcc.h **** {
 429:Drivers/CMSIS/Include/cmsis_gcc.h ****   __ASM volatile ("dsb 0xF":::"memory");
 430:Drivers/CMSIS/Include/cmsis_gcc.h **** }
 431:Drivers/CMSIS/Include/cmsis_gcc.h **** 
 432:Drivers/CMSIS/Include/cmsis_gcc.h **** 
 433:Drivers/CMSIS/Include/cmsis_gcc.h **** /**
 434:Drivers/CMSIS/Include/cmsis_gcc.h ****   \brief   Data Memory Barrier
 435:Drivers/CMSIS/Include/cmsis_gcc.h ****   \details Ensures the apparent order of the explicit memory operations before
 436:Drivers/CMSIS/Include/cmsis_gcc.h ****            and after the instruction, without ensuring their completion.
 437:Drivers/CMSIS/Include/cmsis_gcc.h ****  */
 438:Drivers/CMSIS/Include/cmsis_gcc.h **** __attribute__((always_inline)) __STATIC_INLINE void __DMB(void)
 439:Drivers/CMSIS/Include/cmsis_gcc.h **** {
 440:Drivers/CMSIS/Include/cmsis_gcc.h ****   __ASM volatile ("dmb 0xF":::"memory");
 441:Drivers/CMSIS/Include/cmsis_gcc.h **** }
 442:Drivers/CMSIS/Include/cmsis_gcc.h **** 
 443:Drivers/CMSIS/Include/cmsis_gcc.h **** 
 444:Drivers/CMSIS/Include/cmsis_gcc.h **** /**
 445:Drivers/CMSIS/Include/cmsis_gcc.h ****   \brief   Reverse byte order (32 bit)
 446:Drivers/CMSIS/Include/cmsis_gcc.h ****   \details Reverses the byte order in integer value.
 447:Drivers/CMSIS/Include/cmsis_gcc.h ****   \param [in]    value  Value to reverse
 448:Drivers/CMSIS/Include/cmsis_gcc.h ****   \return               Reversed value
 449:Drivers/CMSIS/Include/cmsis_gcc.h ****  */
 450:Drivers/CMSIS/Include/cmsis_gcc.h **** __attribute__((always_inline)) __STATIC_INLINE uint32_t __REV(uint32_t value)
 451:Drivers/CMSIS/Include/cmsis_gcc.h **** {
 452:Drivers/CMSIS/Include/cmsis_gcc.h **** #if (__GNUC__ > 4) || (__GNUC__ == 4 && __GNUC_MINOR__ >= 5)
 453:Drivers/CMSIS/Include/cmsis_gcc.h ****   return __builtin_bswap32(value);
 454:Drivers/CMSIS/Include/cmsis_gcc.h **** #else
 455:Drivers/CMSIS/Include/cmsis_gcc.h ****   uint32_t result;
 456:Drivers/CMSIS/Include/cmsis_gcc.h **** 
 457:Drivers/CMSIS/Include/cmsis_gcc.h ****   __ASM volatile ("rev %0, %1" : __CMSIS_GCC_OUT_REG (result) : __CMSIS_GCC_USE_REG (value) );
 458:Drivers/CMSIS/Include/cmsis_gcc.h ****   return(result);
 459:Drivers/CMSIS/Include/cmsis_gcc.h **** #endif
 460:Drivers/CMSIS/Include/cmsis_gcc.h **** }
 461:Drivers/CMSIS/Include/cmsis_gcc.h **** 
 462:Drivers/CMSIS/Include/cmsis_gcc.h **** 
 463:Drivers/CMSIS/Include/cmsis_gcc.h **** /**
 464:Drivers/CMSIS/Include/cmsis_gcc.h ****   \brief   Reverse byte order (16 bit)
 465:Drivers/CMSIS/Include/cmsis_gcc.h ****   \details Reverses the byte order in two unsigned short values.
 466:Drivers/CMSIS/Include/cmsis_gcc.h ****   \param [in]    value  Value to reverse
 467:Drivers/CMSIS/Include/cmsis_gcc.h ****   \return               Reversed value
 468:Drivers/CMSIS/Include/cmsis_gcc.h ****  */
 469:Drivers/CMSIS/Include/cmsis_gcc.h **** __attribute__((always_inline)) __STATIC_INLINE uint32_t __REV16(uint32_t value)
 470:Drivers/CMSIS/Include/cmsis_gcc.h **** {
 471:Drivers/CMSIS/Include/cmsis_gcc.h ****   uint32_t result;
 472:Drivers/CMSIS/Include/cmsis_gcc.h **** 
 473:Drivers/CMSIS/Include/cmsis_gcc.h ****   __ASM volatile ("rev16 %0, %1" : __CMSIS_GCC_OUT_REG (result) : __CMSIS_GCC_USE_REG (value) );
 474:Drivers/CMSIS/Include/cmsis_gcc.h ****   return(result);
 475:Drivers/CMSIS/Include/cmsis_gcc.h **** }
 476:Drivers/CMSIS/Include/cmsis_gcc.h **** 
 477:Drivers/CMSIS/Include/cmsis_gcc.h **** 
 478:Drivers/CMSIS/Include/cmsis_gcc.h **** /**
 479:Drivers/CMSIS/Include/cmsis_gcc.h ****   \brief   Reverse byte order in signed short value
 480:Drivers/CMSIS/Include/cmsis_gcc.h ****   \details Reverses the byte order in a signed short value with sign extension to integer.
 481:Drivers/CMSIS/Include/cmsis_gcc.h ****   \param [in]    value  Value to reverse
ARM GAS  /tmp/cc6tAl1r.s 			page 33


 482:Drivers/CMSIS/Include/cmsis_gcc.h ****   \return               Reversed value
 483:Drivers/CMSIS/Include/cmsis_gcc.h ****  */
 484:Drivers/CMSIS/Include/cmsis_gcc.h **** __attribute__((always_inline)) __STATIC_INLINE int32_t __REVSH(int32_t value)
 485:Drivers/CMSIS/Include/cmsis_gcc.h **** {
 486:Drivers/CMSIS/Include/cmsis_gcc.h **** #if (__GNUC__ > 4) || (__GNUC__ == 4 && __GNUC_MINOR__ >= 8)
 487:Drivers/CMSIS/Include/cmsis_gcc.h ****   return (short)__builtin_bswap16(value);
 488:Drivers/CMSIS/Include/cmsis_gcc.h **** #else
 489:Drivers/CMSIS/Include/cmsis_gcc.h ****   int32_t result;
 490:Drivers/CMSIS/Include/cmsis_gcc.h **** 
 491:Drivers/CMSIS/Include/cmsis_gcc.h ****   __ASM volatile ("revsh %0, %1" : __CMSIS_GCC_OUT_REG (result) : __CMSIS_GCC_USE_REG (value) );
 492:Drivers/CMSIS/Include/cmsis_gcc.h ****   return(result);
 493:Drivers/CMSIS/Include/cmsis_gcc.h **** #endif
 494:Drivers/CMSIS/Include/cmsis_gcc.h **** }
 495:Drivers/CMSIS/Include/cmsis_gcc.h **** 
 496:Drivers/CMSIS/Include/cmsis_gcc.h **** 
 497:Drivers/CMSIS/Include/cmsis_gcc.h **** /**
 498:Drivers/CMSIS/Include/cmsis_gcc.h ****   \brief   Rotate Right in unsigned value (32 bit)
 499:Drivers/CMSIS/Include/cmsis_gcc.h ****   \details Rotate Right (immediate) provides the value of the contents of a register rotated by a v
 500:Drivers/CMSIS/Include/cmsis_gcc.h ****   \param [in]    value  Value to rotate
 501:Drivers/CMSIS/Include/cmsis_gcc.h ****   \param [in]    value  Number of Bits to rotate
 502:Drivers/CMSIS/Include/cmsis_gcc.h ****   \return               Rotated value
 503:Drivers/CMSIS/Include/cmsis_gcc.h ****  */
 504:Drivers/CMSIS/Include/cmsis_gcc.h **** __attribute__((always_inline)) __STATIC_INLINE uint32_t __ROR(uint32_t op1, uint32_t op2)
 505:Drivers/CMSIS/Include/cmsis_gcc.h **** {
 506:Drivers/CMSIS/Include/cmsis_gcc.h ****   return (op1 >> op2) | (op1 << (32U - op2));
 507:Drivers/CMSIS/Include/cmsis_gcc.h **** }
 508:Drivers/CMSIS/Include/cmsis_gcc.h **** 
 509:Drivers/CMSIS/Include/cmsis_gcc.h **** 
 510:Drivers/CMSIS/Include/cmsis_gcc.h **** /**
 511:Drivers/CMSIS/Include/cmsis_gcc.h ****   \brief   Breakpoint
 512:Drivers/CMSIS/Include/cmsis_gcc.h ****   \details Causes the processor to enter Debug state.
 513:Drivers/CMSIS/Include/cmsis_gcc.h ****            Debug tools can use this to investigate system state when the instruction at a particula
 514:Drivers/CMSIS/Include/cmsis_gcc.h ****   \param [in]    value  is ignored by the processor.
 515:Drivers/CMSIS/Include/cmsis_gcc.h ****                  If required, a debugger can use it to store additional information about the break
 516:Drivers/CMSIS/Include/cmsis_gcc.h ****  */
 517:Drivers/CMSIS/Include/cmsis_gcc.h **** #define __BKPT(value)                       __ASM volatile ("bkpt "#value)
 518:Drivers/CMSIS/Include/cmsis_gcc.h **** 
 519:Drivers/CMSIS/Include/cmsis_gcc.h **** 
 520:Drivers/CMSIS/Include/cmsis_gcc.h **** /**
 521:Drivers/CMSIS/Include/cmsis_gcc.h ****   \brief   Reverse bit order of value
 522:Drivers/CMSIS/Include/cmsis_gcc.h ****   \details Reverses the bit order of the given value.
 523:Drivers/CMSIS/Include/cmsis_gcc.h ****   \param [in]    value  Value to reverse
 524:Drivers/CMSIS/Include/cmsis_gcc.h ****   \return               Reversed value
 525:Drivers/CMSIS/Include/cmsis_gcc.h ****  */
 526:Drivers/CMSIS/Include/cmsis_gcc.h **** __attribute__((always_inline)) __STATIC_INLINE uint32_t __RBIT(uint32_t value)
 527:Drivers/CMSIS/Include/cmsis_gcc.h **** {
 528:Drivers/CMSIS/Include/cmsis_gcc.h ****   uint32_t result;
 529:Drivers/CMSIS/Include/cmsis_gcc.h **** 
 530:Drivers/CMSIS/Include/cmsis_gcc.h **** #if       (__CORTEX_M >= 0x03U) || (__CORTEX_SC >= 300U)
 531:Drivers/CMSIS/Include/cmsis_gcc.h ****    __ASM volatile ("rbit %0, %1" : "=r" (result) : "r" (value) );
 364              		.loc 2 531 0
 365 0008 4FF48070 		mov	r0, #256
 366              	@ 531 "Drivers/CMSIS/Include/cmsis_gcc.h" 1
 367 000c 90FAA0F0 		rbit r0, r0
 368              	@ 0 "" 2
 369              	.LVL33:
 370              		.thumb
ARM GAS  /tmp/cc6tAl1r.s 			page 34


 371              	.LBE9:
 372              	.LBE8:
 373              		.loc 1 960 0
 374 0010 B0FA80F0 		clz	r0, r0
 375              	.LVL34:
 376 0014 23FA00F0 		lsr	r0, r3, r0
 961:Drivers/STM32F3xx_HAL_Driver/Src/stm32f3xx_hal_flash_ex.c **** }
 377              		.loc 1 961 0
 378 0018 C0B2     		uxtb	r0, r0
 379 001a 7047     		bx	lr
 380              	.L27:
 381              		.align	2
 382              	.L26:
 383 001c 00200240 		.word	1073881088
 384              		.cfi_endproc
 385              	.LFE137:
 387              		.section	.text.HAL_FLASHEx_OBErase,"ax",%progbits
 388              		.align	2
 389              		.global	HAL_FLASHEx_OBErase
 390              		.thumb
 391              		.thumb_func
 393              	HAL_FLASHEx_OBErase:
 394              	.LFB125:
 332:Drivers/STM32F3xx_HAL_Driver/Src/stm32f3xx_hal_flash_ex.c **** {
 395              		.loc 1 332 0
 396              		.cfi_startproc
 397              		@ args = 0, pretend = 0, frame = 0
 398              		@ frame_needed = 0, uses_anonymous_args = 0
 399 0000 38B5     		push	{r3, r4, r5, lr}
 400              	.LCFI3:
 401              		.cfi_def_cfa_offset 16
 402              		.cfi_offset 3, -16
 403              		.cfi_offset 4, -12
 404              		.cfi_offset 5, -8
 405              		.cfi_offset 14, -4
 406              	.LVL35:
 337:Drivers/STM32F3xx_HAL_Driver/Src/stm32f3xx_hal_flash_ex.c ****   rdptmp = FLASH_OB_GetRDP();
 407              		.loc 1 337 0
 408 0002 FFF7FEFF 		bl	FLASH_OB_GetRDP
 409              	.LVL36:
 410 0006 C5B2     		uxtb	r5, r0
 411              	.LVL37:
 340:Drivers/STM32F3xx_HAL_Driver/Src/stm32f3xx_hal_flash_ex.c ****   status = FLASH_WaitForLastOperation((uint32_t)FLASH_TIMEOUT_VALUE);
 412              		.loc 1 340 0
 413 0008 4CF25030 		movw	r0, #50000
 414              	.LVL38:
 415 000c FFF7FEFF 		bl	FLASH_WaitForLastOperation
 416              	.LVL39:
 342:Drivers/STM32F3xx_HAL_Driver/Src/stm32f3xx_hal_flash_ex.c ****   if(status == HAL_OK)
 417              		.loc 1 342 0
 418 0010 0346     		mov	r3, r0
 419 0012 C8B9     		cbnz	r0, .L29
 345:Drivers/STM32F3xx_HAL_Driver/Src/stm32f3xx_hal_flash_ex.c ****     pFlash.ErrorCode = HAL_FLASH_ERROR_NONE;
 420              		.loc 1 345 0
 421 0014 0022     		movs	r2, #0
 422 0016 0D4B     		ldr	r3, .L30
 423 0018 DA61     		str	r2, [r3, #28]
ARM GAS  /tmp/cc6tAl1r.s 			page 35


 348:Drivers/STM32F3xx_HAL_Driver/Src/stm32f3xx_hal_flash_ex.c ****     SET_BIT(FLASH->CR, FLASH_CR_OPTER);
 424              		.loc 1 348 0
 425 001a 0D4C     		ldr	r4, .L30+4
 426 001c 2369     		ldr	r3, [r4, #16]
 427 001e 43F02003 		orr	r3, r3, #32
 428 0022 2361     		str	r3, [r4, #16]
 349:Drivers/STM32F3xx_HAL_Driver/Src/stm32f3xx_hal_flash_ex.c ****     SET_BIT(FLASH->CR, FLASH_CR_STRT);
 429              		.loc 1 349 0
 430 0024 2369     		ldr	r3, [r4, #16]
 431 0026 43F04003 		orr	r3, r3, #64
 432 002a 2361     		str	r3, [r4, #16]
 352:Drivers/STM32F3xx_HAL_Driver/Src/stm32f3xx_hal_flash_ex.c ****     status = FLASH_WaitForLastOperation((uint32_t)FLASH_TIMEOUT_VALUE);
 433              		.loc 1 352 0
 434 002c 4CF25030 		movw	r0, #50000
 435              	.LVL40:
 436 0030 FFF7FEFF 		bl	FLASH_WaitForLastOperation
 437              	.LVL41:
 355:Drivers/STM32F3xx_HAL_Driver/Src/stm32f3xx_hal_flash_ex.c ****     CLEAR_BIT(FLASH->CR, FLASH_CR_OPTER);
 438              		.loc 1 355 0
 439 0034 2369     		ldr	r3, [r4, #16]
 440 0036 23F02003 		bic	r3, r3, #32
 441 003a 2361     		str	r3, [r4, #16]
 357:Drivers/STM32F3xx_HAL_Driver/Src/stm32f3xx_hal_flash_ex.c ****     if(status == HAL_OK)
 442              		.loc 1 357 0
 443 003c 0346     		mov	r3, r0
 444 003e 18B9     		cbnz	r0, .L29
 360:Drivers/STM32F3xx_HAL_Driver/Src/stm32f3xx_hal_flash_ex.c ****       status = FLASH_OB_RDP_LevelConfig(rdptmp);
 445              		.loc 1 360 0
 446 0040 2846     		mov	r0, r5
 447              	.LVL42:
 448 0042 FFF7FEFF 		bl	FLASH_OB_RDP_LevelConfig
 449              	.LVL43:
 450 0046 0346     		mov	r3, r0
 451              	.LVL44:
 452              	.L29:
 366:Drivers/STM32F3xx_HAL_Driver/Src/stm32f3xx_hal_flash_ex.c **** }
 453              		.loc 1 366 0
 454 0048 1846     		mov	r0, r3
 455 004a 38BD     		pop	{r3, r4, r5, pc}
 456              	.LVL45:
 457              	.L31:
 458              		.align	2
 459              	.L30:
 460 004c 00000000 		.word	pFlash
 461 0050 00200240 		.word	1073881088
 462              		.cfi_endproc
 463              	.LFE125:
 465              		.section	.text.FLASH_OB_EnableWRP,"ax",%progbits
 466              		.align	2
 467              		.thumb
 468              		.thumb_func
 470              	FLASH_OB_EnableWRP:
 471              	.LFB130:
 540:Drivers/STM32F3xx_HAL_Driver/Src/stm32f3xx_hal_flash_ex.c **** {
 472              		.loc 1 540 0
 473              		.cfi_startproc
 474              		@ args = 0, pretend = 0, frame = 0
ARM GAS  /tmp/cc6tAl1r.s 			page 36


 475              		@ frame_needed = 0, uses_anonymous_args = 0
 476              	.LVL46:
 477 0000 38B5     		push	{r3, r4, r5, lr}
 478              	.LCFI4:
 479              		.cfi_def_cfa_offset 16
 480              		.cfi_offset 3, -16
 481              		.cfi_offset 4, -12
 482              		.cfi_offset 5, -8
 483              		.cfi_offset 14, -4
 484 0002 0446     		mov	r4, r0
 485              	.LVL47:
 557:Drivers/STM32F3xx_HAL_Driver/Src/stm32f3xx_hal_flash_ex.c ****   WriteProtectPage = (uint32_t)(~((~FLASH_OB_GetWRP()) | WriteProtectPage));
 486              		.loc 1 557 0
 487 0004 FFF7FEFF 		bl	FLASH_OB_GetWRP
 488              	.LVL48:
 489 0008 20EA0400 		bic	r0, r0, r4
 490              	.LVL49:
 560:Drivers/STM32F3xx_HAL_Driver/Src/stm32f3xx_hal_flash_ex.c ****   WRP0_Data = (uint16_t)(WriteProtectPage & OB_WRP_PAGES0TO15MASK);
 491              		.loc 1 560 0
 492 000c C4B2     		uxtb	r4, r0
 493              	.LVL50:
 564:Drivers/STM32F3xx_HAL_Driver/Src/stm32f3xx_hal_flash_ex.c ****   WRP1_Data = (uint16_t)((WriteProtectPage & OB_WRP_PAGES16TO31MASK) >> 8U);
 494              		.loc 1 564 0
 495 000e C0F30725 		ubfx	r5, r0, #8, #8
 496              	.LVL51:
 578:Drivers/STM32F3xx_HAL_Driver/Src/stm32f3xx_hal_flash_ex.c ****   status = FLASH_WaitForLastOperation((uint32_t)FLASH_TIMEOUT_VALUE);
 497              		.loc 1 578 0
 498 0012 4CF25030 		movw	r0, #50000
 499              	.LVL52:
 500 0016 FFF7FEFF 		bl	FLASH_WaitForLastOperation
 501              	.LVL53:
 580:Drivers/STM32F3xx_HAL_Driver/Src/stm32f3xx_hal_flash_ex.c ****   if(status == HAL_OK)
 502              		.loc 1 580 0
 503 001a 0346     		mov	r3, r0
 504 001c 0028     		cmp	r0, #0
 505 001e 3CD1     		bne	.L33
 583:Drivers/STM32F3xx_HAL_Driver/Src/stm32f3xx_hal_flash_ex.c ****     pFlash.ErrorCode = HAL_FLASH_ERROR_NONE;
 506              		.loc 1 583 0
 507 0020 0022     		movs	r2, #0
 508 0022 1F4B     		ldr	r3, .L38
 509 0024 DA61     		str	r2, [r3, #28]
 586:Drivers/STM32F3xx_HAL_Driver/Src/stm32f3xx_hal_flash_ex.c ****     status = HAL_FLASHEx_OBErase();
 510              		.loc 1 586 0
 511 0026 FFF7FEFF 		bl	HAL_FLASHEx_OBErase
 512              	.LVL54:
 587:Drivers/STM32F3xx_HAL_Driver/Src/stm32f3xx_hal_flash_ex.c ****     if (status == HAL_OK)  
 513              		.loc 1 587 0
 514 002a 0346     		mov	r3, r0
 515 002c 0028     		cmp	r0, #0
 516 002e 34D1     		bne	.L33
 590:Drivers/STM32F3xx_HAL_Driver/Src/stm32f3xx_hal_flash_ex.c ****       SET_BIT(FLASH->CR, FLASH_CR_OPTPG);
 517              		.loc 1 590 0
 518 0030 1C4A     		ldr	r2, .L38+4
 519 0032 1169     		ldr	r1, [r2, #16]
 520 0034 41F01001 		orr	r1, r1, #16
 521 0038 1161     		str	r1, [r2, #16]
 593:Drivers/STM32F3xx_HAL_Driver/Src/stm32f3xx_hal_flash_ex.c ****       if(WRP0_Data != 0xFFU)
ARM GAS  /tmp/cc6tAl1r.s 			page 37


 522              		.loc 1 593 0
 523 003a FF2C     		cmp	r4, #255
 524 003c 08D0     		beq	.L34
 595:Drivers/STM32F3xx_HAL_Driver/Src/stm32f3xx_hal_flash_ex.c ****         OB->WRP0 &= WRP0_Data;
 525              		.loc 1 595 0
 526 003e 1A4B     		ldr	r3, .L38+8
 527 0040 1A89     		ldrh	r2, [r3, #8]
 528 0042 1440     		ands	r4, r4, r2
 529              	.LVL55:
 530 0044 1C81     		strh	r4, [r3, #8]	@ movhi
 598:Drivers/STM32F3xx_HAL_Driver/Src/stm32f3xx_hal_flash_ex.c ****         status = FLASH_WaitForLastOperation((uint32_t)FLASH_TIMEOUT_VALUE);
 531              		.loc 1 598 0
 532 0046 4CF25030 		movw	r0, #50000
 533              	.LVL56:
 534 004a FFF7FEFF 		bl	FLASH_WaitForLastOperation
 535              	.LVL57:
 536 004e 0346     		mov	r3, r0
 537              	.LVL58:
 538              	.L34:
 603:Drivers/STM32F3xx_HAL_Driver/Src/stm32f3xx_hal_flash_ex.c ****       if((status == HAL_OK) && (WRP1_Data != 0xFFU))
 539              		.loc 1 603 0
 540 0050 53B9     		cbnz	r3, .L35
 603:Drivers/STM32F3xx_HAL_Driver/Src/stm32f3xx_hal_flash_ex.c ****       if((status == HAL_OK) && (WRP1_Data != 0xFFU))
 541              		.loc 1 603 0 is_stmt 0 discriminator 1
 542 0052 FF2D     		cmp	r5, #255
 543 0054 08D0     		beq	.L35
 605:Drivers/STM32F3xx_HAL_Driver/Src/stm32f3xx_hal_flash_ex.c ****         OB->WRP1 &= WRP1_Data;
 544              		.loc 1 605 0 is_stmt 1
 545 0056 144B     		ldr	r3, .L38+8
 546              	.LVL59:
 547 0058 5A89     		ldrh	r2, [r3, #10]
 548 005a 1540     		ands	r5, r5, r2
 549              	.LVL60:
 550 005c 5D81     		strh	r5, [r3, #10]	@ movhi
 608:Drivers/STM32F3xx_HAL_Driver/Src/stm32f3xx_hal_flash_ex.c ****         status = FLASH_WaitForLastOperation((uint32_t)FLASH_TIMEOUT_VALUE);
 551              		.loc 1 608 0
 552 005e 4CF25030 		movw	r0, #50000
 553 0062 FFF7FEFF 		bl	FLASH_WaitForLastOperation
 554              	.LVL61:
 555 0066 0346     		mov	r3, r0
 556              	.LVL62:
 557              	.L35:
 613:Drivers/STM32F3xx_HAL_Driver/Src/stm32f3xx_hal_flash_ex.c ****       if((status == HAL_OK) && (WRP2_Data != 0xFFU))
 558              		.loc 1 613 0
 559 0068 43B9     		cbnz	r3, .L36
 615:Drivers/STM32F3xx_HAL_Driver/Src/stm32f3xx_hal_flash_ex.c ****         OB->WRP2 &= WRP2_Data;
 560              		.loc 1 615 0
 561 006a 0F4B     		ldr	r3, .L38+8
 562              	.LVL63:
 563 006c 9A89     		ldrh	r2, [r3, #12]
 564 006e 92B2     		uxth	r2, r2
 565 0070 9A81     		strh	r2, [r3, #12]	@ movhi
 618:Drivers/STM32F3xx_HAL_Driver/Src/stm32f3xx_hal_flash_ex.c ****         status = FLASH_WaitForLastOperation((uint32_t)FLASH_TIMEOUT_VALUE);
 566              		.loc 1 618 0
 567 0072 4CF25030 		movw	r0, #50000
 568 0076 FFF7FEFF 		bl	FLASH_WaitForLastOperation
 569              	.LVL64:
ARM GAS  /tmp/cc6tAl1r.s 			page 38


 570 007a 0346     		mov	r3, r0
 571              	.LVL65:
 572              	.L36:
 623:Drivers/STM32F3xx_HAL_Driver/Src/stm32f3xx_hal_flash_ex.c ****       if((status == HAL_OK) && (WRP3_Data != 0xFFU))
 573              		.loc 1 623 0
 574 007c 43B9     		cbnz	r3, .L37
 625:Drivers/STM32F3xx_HAL_Driver/Src/stm32f3xx_hal_flash_ex.c ****         OB->WRP3 &= WRP3_Data;
 575              		.loc 1 625 0
 576 007e 0A4B     		ldr	r3, .L38+8
 577              	.LVL66:
 578 0080 DA89     		ldrh	r2, [r3, #14]
 579 0082 92B2     		uxth	r2, r2
 580 0084 DA81     		strh	r2, [r3, #14]	@ movhi
 628:Drivers/STM32F3xx_HAL_Driver/Src/stm32f3xx_hal_flash_ex.c ****         status = FLASH_WaitForLastOperation((uint32_t)FLASH_TIMEOUT_VALUE);
 581              		.loc 1 628 0
 582 0086 4CF25030 		movw	r0, #50000
 583 008a FFF7FEFF 		bl	FLASH_WaitForLastOperation
 584              	.LVL67:
 585 008e 0346     		mov	r3, r0
 586              	.LVL68:
 587              	.L37:
 633:Drivers/STM32F3xx_HAL_Driver/Src/stm32f3xx_hal_flash_ex.c ****       CLEAR_BIT(FLASH->CR, FLASH_CR_OPTPG);
 588              		.loc 1 633 0
 589 0090 044A     		ldr	r2, .L38+4
 590 0092 1169     		ldr	r1, [r2, #16]
 591 0094 21F01001 		bic	r1, r1, #16
 592 0098 1161     		str	r1, [r2, #16]
 593              	.LVL69:
 594              	.L33:
 638:Drivers/STM32F3xx_HAL_Driver/Src/stm32f3xx_hal_flash_ex.c **** }
 595              		.loc 1 638 0
 596 009a 1846     		mov	r0, r3
 597 009c 38BD     		pop	{r3, r4, r5, pc}
 598              	.LVL70:
 599              	.L39:
 600 009e 00BF     		.align	2
 601              	.L38:
 602 00a0 00000000 		.word	pFlash
 603 00a4 00200240 		.word	1073881088
 604 00a8 00F8FF1F 		.word	536868864
 605              		.cfi_endproc
 606              	.LFE130:
 608              		.section	.text.FLASH_OB_DisableWRP,"ax",%progbits
 609              		.align	2
 610              		.thumb
 611              		.thumb_func
 613              	FLASH_OB_DisableWRP:
 614              	.LFB131:
 652:Drivers/STM32F3xx_HAL_Driver/Src/stm32f3xx_hal_flash_ex.c **** {
 615              		.loc 1 652 0
 616              		.cfi_startproc
 617              		@ args = 0, pretend = 0, frame = 0
 618              		@ frame_needed = 0, uses_anonymous_args = 0
 619              	.LVL71:
 620 0000 38B5     		push	{r3, r4, r5, lr}
 621              	.LCFI5:
 622              		.cfi_def_cfa_offset 16
ARM GAS  /tmp/cc6tAl1r.s 			page 39


 623              		.cfi_offset 3, -16
 624              		.cfi_offset 4, -12
 625              		.cfi_offset 5, -8
 626              		.cfi_offset 14, -4
 627 0002 0446     		mov	r4, r0
 628              	.LVL72:
 669:Drivers/STM32F3xx_HAL_Driver/Src/stm32f3xx_hal_flash_ex.c ****   WriteProtectPage = (FLASH_OB_GetWRP() | WriteProtectPage);
 629              		.loc 1 669 0
 630 0004 FFF7FEFF 		bl	FLASH_OB_GetWRP
 631              	.LVL73:
 632 0008 2043     		orrs	r0, r0, r4
 633              	.LVL74:
 672:Drivers/STM32F3xx_HAL_Driver/Src/stm32f3xx_hal_flash_ex.c ****   WRP0_Data = (uint16_t)(WriteProtectPage & OB_WRP_PAGES0TO15MASK);
 634              		.loc 1 672 0
 635 000a C4B2     		uxtb	r4, r0
 636              	.LVL75:
 676:Drivers/STM32F3xx_HAL_Driver/Src/stm32f3xx_hal_flash_ex.c ****   WRP1_Data = (uint16_t)((WriteProtectPage & OB_WRP_PAGES16TO31MASK) >> 8U);
 637              		.loc 1 676 0
 638 000c C0F30725 		ubfx	r5, r0, #8, #8
 639              	.LVL76:
 691:Drivers/STM32F3xx_HAL_Driver/Src/stm32f3xx_hal_flash_ex.c ****   status = FLASH_WaitForLastOperation((uint32_t)FLASH_TIMEOUT_VALUE);
 640              		.loc 1 691 0
 641 0010 4CF25030 		movw	r0, #50000
 642              	.LVL77:
 643 0014 FFF7FEFF 		bl	FLASH_WaitForLastOperation
 644              	.LVL78:
 693:Drivers/STM32F3xx_HAL_Driver/Src/stm32f3xx_hal_flash_ex.c ****   if(status == HAL_OK)
 645              		.loc 1 693 0
 646 0018 0346     		mov	r3, r0
 647 001a 0028     		cmp	r0, #0
 648 001c 40D1     		bne	.L41
 696:Drivers/STM32F3xx_HAL_Driver/Src/stm32f3xx_hal_flash_ex.c ****     pFlash.ErrorCode = HAL_FLASH_ERROR_NONE;
 649              		.loc 1 696 0
 650 001e 0022     		movs	r2, #0
 651 0020 204B     		ldr	r3, .L46
 652 0022 DA61     		str	r2, [r3, #28]
 699:Drivers/STM32F3xx_HAL_Driver/Src/stm32f3xx_hal_flash_ex.c ****     status = HAL_FLASHEx_OBErase();
 653              		.loc 1 699 0
 654 0024 FFF7FEFF 		bl	HAL_FLASHEx_OBErase
 655              	.LVL79:
 700:Drivers/STM32F3xx_HAL_Driver/Src/stm32f3xx_hal_flash_ex.c ****     if (status == HAL_OK)  
 656              		.loc 1 700 0
 657 0028 0346     		mov	r3, r0
 658 002a 0028     		cmp	r0, #0
 659 002c 38D1     		bne	.L41
 702:Drivers/STM32F3xx_HAL_Driver/Src/stm32f3xx_hal_flash_ex.c ****       SET_BIT(FLASH->CR, FLASH_CR_OPTPG);
 660              		.loc 1 702 0
 661 002e 1E4A     		ldr	r2, .L46+4
 662 0030 1169     		ldr	r1, [r2, #16]
 663 0032 41F01001 		orr	r1, r1, #16
 664 0036 1161     		str	r1, [r2, #16]
 705:Drivers/STM32F3xx_HAL_Driver/Src/stm32f3xx_hal_flash_ex.c ****       if(WRP0_Data != 0xFFU)
 665              		.loc 1 705 0
 666 0038 FF2C     		cmp	r4, #255
 667 003a 09D0     		beq	.L42
 707:Drivers/STM32F3xx_HAL_Driver/Src/stm32f3xx_hal_flash_ex.c ****         OB->WRP0 |= WRP0_Data;
 668              		.loc 1 707 0
ARM GAS  /tmp/cc6tAl1r.s 			page 40


 669 003c 1B4B     		ldr	r3, .L46+8
 670 003e 1A89     		ldrh	r2, [r3, #8]
 671 0040 92B2     		uxth	r2, r2
 672 0042 1443     		orrs	r4, r4, r2
 673              	.LVL80:
 674 0044 1C81     		strh	r4, [r3, #8]	@ movhi
 710:Drivers/STM32F3xx_HAL_Driver/Src/stm32f3xx_hal_flash_ex.c ****         status = FLASH_WaitForLastOperation((uint32_t)FLASH_TIMEOUT_VALUE);
 675              		.loc 1 710 0
 676 0046 4CF25030 		movw	r0, #50000
 677              	.LVL81:
 678 004a FFF7FEFF 		bl	FLASH_WaitForLastOperation
 679              	.LVL82:
 680 004e 0346     		mov	r3, r0
 681              	.LVL83:
 682              	.L42:
 715:Drivers/STM32F3xx_HAL_Driver/Src/stm32f3xx_hal_flash_ex.c ****       if((status == HAL_OK) && (WRP1_Data != 0xFFU))
 683              		.loc 1 715 0
 684 0050 5BB9     		cbnz	r3, .L43
 715:Drivers/STM32F3xx_HAL_Driver/Src/stm32f3xx_hal_flash_ex.c ****       if((status == HAL_OK) && (WRP1_Data != 0xFFU))
 685              		.loc 1 715 0 is_stmt 0 discriminator 1
 686 0052 FF2D     		cmp	r5, #255
 687 0054 09D0     		beq	.L43
 717:Drivers/STM32F3xx_HAL_Driver/Src/stm32f3xx_hal_flash_ex.c ****         OB->WRP1 |= WRP1_Data;
 688              		.loc 1 717 0 is_stmt 1
 689 0056 154B     		ldr	r3, .L46+8
 690              	.LVL84:
 691 0058 5A89     		ldrh	r2, [r3, #10]
 692 005a 92B2     		uxth	r2, r2
 693 005c 1543     		orrs	r5, r5, r2
 694              	.LVL85:
 695 005e 5D81     		strh	r5, [r3, #10]	@ movhi
 720:Drivers/STM32F3xx_HAL_Driver/Src/stm32f3xx_hal_flash_ex.c ****         status = FLASH_WaitForLastOperation((uint32_t)FLASH_TIMEOUT_VALUE);
 696              		.loc 1 720 0
 697 0060 4CF25030 		movw	r0, #50000
 698 0064 FFF7FEFF 		bl	FLASH_WaitForLastOperation
 699              	.LVL86:
 700 0068 0346     		mov	r3, r0
 701              	.LVL87:
 702              	.L43:
 725:Drivers/STM32F3xx_HAL_Driver/Src/stm32f3xx_hal_flash_ex.c ****       if((status == HAL_OK) && (WRP2_Data != 0xFFU))
 703              		.loc 1 725 0
 704 006a 4BB9     		cbnz	r3, .L44
 727:Drivers/STM32F3xx_HAL_Driver/Src/stm32f3xx_hal_flash_ex.c ****         OB->WRP2 |= WRP2_Data;
 705              		.loc 1 727 0
 706 006c 0F4B     		ldr	r3, .L46+8
 707              	.LVL88:
 708 006e 9A89     		ldrh	r2, [r3, #12]
 709 0070 4FF6FF72 		movw	r2, #65535
 710 0074 9A81     		strh	r2, [r3, #12]	@ movhi
 730:Drivers/STM32F3xx_HAL_Driver/Src/stm32f3xx_hal_flash_ex.c ****         status = FLASH_WaitForLastOperation((uint32_t)FLASH_TIMEOUT_VALUE);
 711              		.loc 1 730 0
 712 0076 4CF25030 		movw	r0, #50000
 713 007a FFF7FEFF 		bl	FLASH_WaitForLastOperation
 714              	.LVL89:
 715 007e 0346     		mov	r3, r0
 716              	.LVL90:
 717              	.L44:
ARM GAS  /tmp/cc6tAl1r.s 			page 41


 735:Drivers/STM32F3xx_HAL_Driver/Src/stm32f3xx_hal_flash_ex.c ****       if((status == HAL_OK) && (WRP3_Data != 0xFFU))
 718              		.loc 1 735 0
 719 0080 4BB9     		cbnz	r3, .L45
 737:Drivers/STM32F3xx_HAL_Driver/Src/stm32f3xx_hal_flash_ex.c ****         OB->WRP3 |= WRP3_Data;
 720              		.loc 1 737 0
 721 0082 0A4B     		ldr	r3, .L46+8
 722              	.LVL91:
 723 0084 DA89     		ldrh	r2, [r3, #14]
 724 0086 4FF6FF72 		movw	r2, #65535
 725 008a DA81     		strh	r2, [r3, #14]	@ movhi
 740:Drivers/STM32F3xx_HAL_Driver/Src/stm32f3xx_hal_flash_ex.c ****         status = FLASH_WaitForLastOperation((uint32_t)FLASH_TIMEOUT_VALUE);
 726              		.loc 1 740 0
 727 008c 4CF25030 		movw	r0, #50000
 728 0090 FFF7FEFF 		bl	FLASH_WaitForLastOperation
 729              	.LVL92:
 730 0094 0346     		mov	r3, r0
 731              	.LVL93:
 732              	.L45:
 745:Drivers/STM32F3xx_HAL_Driver/Src/stm32f3xx_hal_flash_ex.c ****       CLEAR_BIT(FLASH->CR, FLASH_CR_OPTPG);
 733              		.loc 1 745 0
 734 0096 044A     		ldr	r2, .L46+4
 735 0098 1169     		ldr	r1, [r2, #16]
 736 009a 21F01001 		bic	r1, r1, #16
 737 009e 1161     		str	r1, [r2, #16]
 738              	.LVL94:
 739              	.L41:
 749:Drivers/STM32F3xx_HAL_Driver/Src/stm32f3xx_hal_flash_ex.c **** }
 740              		.loc 1 749 0
 741 00a0 1846     		mov	r0, r3
 742 00a2 38BD     		pop	{r3, r4, r5, pc}
 743              	.LVL95:
 744              	.L47:
 745              		.align	2
 746              	.L46:
 747 00a4 00000000 		.word	pFlash
 748 00a8 00200240 		.word	1073881088
 749 00ac 00F8FF1F 		.word	536868864
 750              		.cfi_endproc
 751              	.LFE131:
 753              		.section	.text.HAL_FLASHEx_OBProgram,"ax",%progbits
 754              		.align	2
 755              		.global	HAL_FLASHEx_OBProgram
 756              		.thumb
 757              		.thumb_func
 759              	HAL_FLASHEx_OBProgram:
 760              	.LFB126:
 381:Drivers/STM32F3xx_HAL_Driver/Src/stm32f3xx_hal_flash_ex.c **** {
 761              		.loc 1 381 0
 762              		.cfi_startproc
 763              		@ args = 0, pretend = 0, frame = 0
 764              		@ frame_needed = 0, uses_anonymous_args = 0
 765              	.LVL96:
 766 0000 10B5     		push	{r4, lr}
 767              	.LCFI6:
 768              		.cfi_def_cfa_offset 8
 769              		.cfi_offset 4, -8
 770              		.cfi_offset 14, -4
ARM GAS  /tmp/cc6tAl1r.s 			page 42


 771 0002 0446     		mov	r4, r0
 772              	.LVL97:
 385:Drivers/STM32F3xx_HAL_Driver/Src/stm32f3xx_hal_flash_ex.c ****   __HAL_LOCK(&pFlash);
 773              		.loc 1 385 0
 774 0004 264B     		ldr	r3, .L58
 775 0006 1B7E     		ldrb	r3, [r3, #24]	@ zero_extendqisi2
 776 0008 012B     		cmp	r3, #1
 777 000a 46D0     		beq	.L56
 385:Drivers/STM32F3xx_HAL_Driver/Src/stm32f3xx_hal_flash_ex.c ****   __HAL_LOCK(&pFlash);
 778              		.loc 1 385 0 is_stmt 0 discriminator 2
 779 000c 0122     		movs	r2, #1
 780 000e 244B     		ldr	r3, .L58
 781 0010 1A76     		strb	r2, [r3, #24]
 391:Drivers/STM32F3xx_HAL_Driver/Src/stm32f3xx_hal_flash_ex.c ****   if((pOBInit->OptionType & OPTIONBYTE_WRP) == OPTIONBYTE_WRP)
 782              		.loc 1 391 0 is_stmt 1 discriminator 2
 783 0012 0368     		ldr	r3, [r0]
 784 0014 13F0010F 		tst	r3, #1
 785 0018 11D0     		beq	.L57
 394:Drivers/STM32F3xx_HAL_Driver/Src/stm32f3xx_hal_flash_ex.c ****     if (pOBInit->WRPState == OB_WRPSTATE_ENABLE)
 786              		.loc 1 394 0
 787 001a 4368     		ldr	r3, [r0, #4]
 788 001c 9342     		cmp	r3, r2
 789 001e 04D1     		bne	.L51
 397:Drivers/STM32F3xx_HAL_Driver/Src/stm32f3xx_hal_flash_ex.c ****       status = FLASH_OB_EnableWRP(pOBInit->WRPPage);
 790              		.loc 1 397 0
 791 0020 8068     		ldr	r0, [r0, #8]
 792              	.LVL98:
 793 0022 FFF7FEFF 		bl	FLASH_OB_EnableWRP
 794              	.LVL99:
 795 0026 0346     		mov	r3, r0
 796              	.LVL100:
 797 0028 03E0     		b	.L52
 798              	.LVL101:
 799              	.L51:
 402:Drivers/STM32F3xx_HAL_Driver/Src/stm32f3xx_hal_flash_ex.c ****       status = FLASH_OB_DisableWRP(pOBInit->WRPPage);
 800              		.loc 1 402 0
 801 002a 8068     		ldr	r0, [r0, #8]
 802              	.LVL102:
 803 002c FFF7FEFF 		bl	FLASH_OB_DisableWRP
 804              	.LVL103:
 805 0030 0346     		mov	r3, r0
 806              	.LVL104:
 807              	.L52:
 404:Drivers/STM32F3xx_HAL_Driver/Src/stm32f3xx_hal_flash_ex.c ****     if (status != HAL_OK)
 808              		.loc 1 404 0
 809 0032 2BB1     		cbz	r3, .L50
 407:Drivers/STM32F3xx_HAL_Driver/Src/stm32f3xx_hal_flash_ex.c ****       __HAL_UNLOCK(&pFlash);
 810              		.loc 1 407 0
 811 0034 0021     		movs	r1, #0
 812 0036 1A4A     		ldr	r2, .L58
 813 0038 1176     		strb	r1, [r2, #24]
 408:Drivers/STM32F3xx_HAL_Driver/Src/stm32f3xx_hal_flash_ex.c ****       return status;
 814              		.loc 1 408 0
 815 003a 1846     		mov	r0, r3
 816 003c 10BD     		pop	{r4, pc}
 817              	.LVL105:
 818              	.L57:
ARM GAS  /tmp/cc6tAl1r.s 			page 43


 382:Drivers/STM32F3xx_HAL_Driver/Src/stm32f3xx_hal_flash_ex.c ****   HAL_StatusTypeDef status = HAL_ERROR;
 819              		.loc 1 382 0
 820 003e 0123     		movs	r3, #1
 821              	.LVL106:
 822              	.L50:
 413:Drivers/STM32F3xx_HAL_Driver/Src/stm32f3xx_hal_flash_ex.c ****   if((pOBInit->OptionType & OPTIONBYTE_RDP) == OPTIONBYTE_RDP)
 823              		.loc 1 413 0
 824 0040 2268     		ldr	r2, [r4]
 825 0042 12F0020F 		tst	r2, #2
 826 0046 08D0     		beq	.L53
 415:Drivers/STM32F3xx_HAL_Driver/Src/stm32f3xx_hal_flash_ex.c ****     status = FLASH_OB_RDP_LevelConfig(pOBInit->RDPLevel);
 827              		.loc 1 415 0
 828 0048 207B     		ldrb	r0, [r4, #12]	@ zero_extendqisi2
 829 004a FFF7FEFF 		bl	FLASH_OB_RDP_LevelConfig
 830              	.LVL107:
 416:Drivers/STM32F3xx_HAL_Driver/Src/stm32f3xx_hal_flash_ex.c ****     if (status != HAL_OK)
 831              		.loc 1 416 0
 832 004e 0346     		mov	r3, r0
 833 0050 18B1     		cbz	r0, .L53
 419:Drivers/STM32F3xx_HAL_Driver/Src/stm32f3xx_hal_flash_ex.c ****       __HAL_UNLOCK(&pFlash);
 834              		.loc 1 419 0
 835 0052 0021     		movs	r1, #0
 836 0054 124A     		ldr	r2, .L58
 837 0056 1176     		strb	r1, [r2, #24]
 420:Drivers/STM32F3xx_HAL_Driver/Src/stm32f3xx_hal_flash_ex.c ****       return status;
 838              		.loc 1 420 0
 839 0058 10BD     		pop	{r4, pc}
 840              	.LVL108:
 841              	.L53:
 425:Drivers/STM32F3xx_HAL_Driver/Src/stm32f3xx_hal_flash_ex.c ****   if((pOBInit->OptionType & OPTIONBYTE_USER) == OPTIONBYTE_USER)
 842              		.loc 1 425 0
 843 005a 2268     		ldr	r2, [r4]
 844 005c 12F0040F 		tst	r2, #4
 845 0060 08D0     		beq	.L54
 427:Drivers/STM32F3xx_HAL_Driver/Src/stm32f3xx_hal_flash_ex.c ****     status = FLASH_OB_UserConfig(pOBInit->USERConfig);
 846              		.loc 1 427 0
 847 0062 607B     		ldrb	r0, [r4, #13]	@ zero_extendqisi2
 848 0064 FFF7FEFF 		bl	FLASH_OB_UserConfig
 849              	.LVL109:
 428:Drivers/STM32F3xx_HAL_Driver/Src/stm32f3xx_hal_flash_ex.c ****     if (status != HAL_OK)
 850              		.loc 1 428 0
 851 0068 0346     		mov	r3, r0
 852 006a 18B1     		cbz	r0, .L54
 431:Drivers/STM32F3xx_HAL_Driver/Src/stm32f3xx_hal_flash_ex.c ****       __HAL_UNLOCK(&pFlash);
 853              		.loc 1 431 0
 854 006c 0021     		movs	r1, #0
 855 006e 0C4A     		ldr	r2, .L58
 856 0070 1176     		strb	r1, [r2, #24]
 432:Drivers/STM32F3xx_HAL_Driver/Src/stm32f3xx_hal_flash_ex.c ****       return status;
 857              		.loc 1 432 0
 858 0072 10BD     		pop	{r4, pc}
 859              	.LVL110:
 860              	.L54:
 437:Drivers/STM32F3xx_HAL_Driver/Src/stm32f3xx_hal_flash_ex.c ****   if((pOBInit->OptionType & OPTIONBYTE_DATA) == OPTIONBYTE_DATA)
 861              		.loc 1 437 0
 862 0074 2268     		ldr	r2, [r4]
 863 0076 12F0080F 		tst	r2, #8
ARM GAS  /tmp/cc6tAl1r.s 			page 44


 864 007a 09D0     		beq	.L55
 439:Drivers/STM32F3xx_HAL_Driver/Src/stm32f3xx_hal_flash_ex.c ****     status = FLASH_OB_ProgramData(pOBInit->DATAAddress, pOBInit->DATAData);
 865              		.loc 1 439 0
 866 007c 2069     		ldr	r0, [r4, #16]
 867 007e 217D     		ldrb	r1, [r4, #20]	@ zero_extendqisi2
 868 0080 FFF7FEFF 		bl	FLASH_OB_ProgramData
 869              	.LVL111:
 440:Drivers/STM32F3xx_HAL_Driver/Src/stm32f3xx_hal_flash_ex.c ****     if (status != HAL_OK)
 870              		.loc 1 440 0
 871 0084 0346     		mov	r3, r0
 872 0086 18B1     		cbz	r0, .L55
 443:Drivers/STM32F3xx_HAL_Driver/Src/stm32f3xx_hal_flash_ex.c ****       __HAL_UNLOCK(&pFlash);
 873              		.loc 1 443 0
 874 0088 0021     		movs	r1, #0
 875 008a 054A     		ldr	r2, .L58
 876 008c 1176     		strb	r1, [r2, #24]
 444:Drivers/STM32F3xx_HAL_Driver/Src/stm32f3xx_hal_flash_ex.c ****       return status;
 877              		.loc 1 444 0
 878 008e 10BD     		pop	{r4, pc}
 879              	.LVL112:
 880              	.L55:
 449:Drivers/STM32F3xx_HAL_Driver/Src/stm32f3xx_hal_flash_ex.c ****   __HAL_UNLOCK(&pFlash);
 881              		.loc 1 449 0
 882 0090 0021     		movs	r1, #0
 883 0092 034A     		ldr	r2, .L58
 884 0094 1176     		strb	r1, [r2, #24]
 451:Drivers/STM32F3xx_HAL_Driver/Src/stm32f3xx_hal_flash_ex.c ****   return status;
 885              		.loc 1 451 0
 886 0096 1846     		mov	r0, r3
 887 0098 10BD     		pop	{r4, pc}
 888              	.LVL113:
 889              	.L56:
 385:Drivers/STM32F3xx_HAL_Driver/Src/stm32f3xx_hal_flash_ex.c ****   __HAL_LOCK(&pFlash);
 890              		.loc 1 385 0
 891 009a 0220     		movs	r0, #2
 892              	.LVL114:
 452:Drivers/STM32F3xx_HAL_Driver/Src/stm32f3xx_hal_flash_ex.c **** }
 893              		.loc 1 452 0
 894 009c 10BD     		pop	{r4, pc}
 895              	.LVL115:
 896              	.L59:
 897 009e 00BF     		.align	2
 898              	.L58:
 899 00a0 00000000 		.word	pFlash
 900              		.cfi_endproc
 901              	.LFE126:
 903              		.section	.text.HAL_FLASHEx_OBGetConfig,"ax",%progbits
 904              		.align	2
 905              		.global	HAL_FLASHEx_OBGetConfig
 906              		.thumb
 907              		.thumb_func
 909              	HAL_FLASHEx_OBGetConfig:
 910              	.LFB127:
 462:Drivers/STM32F3xx_HAL_Driver/Src/stm32f3xx_hal_flash_ex.c **** {
 911              		.loc 1 462 0
 912              		.cfi_startproc
 913              		@ args = 0, pretend = 0, frame = 0
ARM GAS  /tmp/cc6tAl1r.s 			page 45


 914              		@ frame_needed = 0, uses_anonymous_args = 0
 915              	.LVL116:
 916 0000 10B5     		push	{r4, lr}
 917              	.LCFI7:
 918              		.cfi_def_cfa_offset 8
 919              		.cfi_offset 4, -8
 920              		.cfi_offset 14, -4
 921 0002 0446     		mov	r4, r0
 463:Drivers/STM32F3xx_HAL_Driver/Src/stm32f3xx_hal_flash_ex.c ****   pOBInit->OptionType = OPTIONBYTE_WRP | OPTIONBYTE_RDP | OPTIONBYTE_USER;
 922              		.loc 1 463 0
 923 0004 0723     		movs	r3, #7
 924 0006 0360     		str	r3, [r0]
 466:Drivers/STM32F3xx_HAL_Driver/Src/stm32f3xx_hal_flash_ex.c ****   pOBInit->WRPPage = FLASH_OB_GetWRP();
 925              		.loc 1 466 0
 926 0008 FFF7FEFF 		bl	FLASH_OB_GetWRP
 927              	.LVL117:
 928 000c A060     		str	r0, [r4, #8]
 469:Drivers/STM32F3xx_HAL_Driver/Src/stm32f3xx_hal_flash_ex.c ****   pOBInit->RDPLevel = FLASH_OB_GetRDP();
 929              		.loc 1 469 0
 930 000e FFF7FEFF 		bl	FLASH_OB_GetRDP
 931              	.LVL118:
 932 0012 2073     		strb	r0, [r4, #12]
 472:Drivers/STM32F3xx_HAL_Driver/Src/stm32f3xx_hal_flash_ex.c ****   pOBInit->USERConfig = FLASH_OB_GetUser();
 933              		.loc 1 472 0
 934 0014 FFF7FEFF 		bl	FLASH_OB_GetUser
 935              	.LVL119:
 936 0018 6073     		strb	r0, [r4, #13]
 937 001a 10BD     		pop	{r4, pc}
 938              		.cfi_endproc
 939              	.LFE127:
 941              		.section	.text.HAL_FLASHEx_OBGetUserData,"ax",%progbits
 942              		.align	2
 943              		.global	HAL_FLASHEx_OBGetUserData
 944              		.thumb
 945              		.thumb_func
 947              	HAL_FLASHEx_OBGetUserData:
 948              	.LFB128:
 484:Drivers/STM32F3xx_HAL_Driver/Src/stm32f3xx_hal_flash_ex.c **** {
 949              		.loc 1 484 0
 950              		.cfi_startproc
 951              		@ args = 0, pretend = 0, frame = 0
 952              		@ frame_needed = 0, uses_anonymous_args = 0
 953              		@ link register save eliminated.
 954              	.LVL120:
 487:Drivers/STM32F3xx_HAL_Driver/Src/stm32f3xx_hal_flash_ex.c ****   if (DATAAdress == OB_DATA_ADDRESS_DATA0)
 955              		.loc 1 487 0
 956 0000 0D4B     		ldr	r3, .L64
 957 0002 9842     		cmp	r0, r3
 958 0004 0BD1     		bne	.L62
 490:Drivers/STM32F3xx_HAL_Driver/Src/stm32f3xx_hal_flash_ex.c ****     value = READ_BIT(FLASH->OBR, FLASH_OBR_DATA0) >> FLASH_POSITION_OB_USERDATA0_BIT;
 959              		.loc 1 490 0
 960 0006 0D4B     		ldr	r3, .L64+4
 961 0008 D869     		ldr	r0, [r3, #28]
 962              	.LVL121:
 963 000a 00F47F00 		and	r0, r0, #16711680
 964              	.LVL122:
 965              	.LBB10:
ARM GAS  /tmp/cc6tAl1r.s 			page 46


 966              	.LBB11:
 967              		.loc 2 531 0
 968 000e 4FF47F03 		mov	r3, #16711680
 969              	@ 531 "Drivers/CMSIS/Include/cmsis_gcc.h" 1
 970 0012 93FAA3F3 		rbit r3, r3
 971              	@ 0 "" 2
 972              	.LVL123:
 973              		.thumb
 974              	.LBE11:
 975              	.LBE10:
 490:Drivers/STM32F3xx_HAL_Driver/Src/stm32f3xx_hal_flash_ex.c ****     value = READ_BIT(FLASH->OBR, FLASH_OBR_DATA0) >> FLASH_POSITION_OB_USERDATA0_BIT;
 976              		.loc 1 490 0
 977 0016 B3FA83F3 		clz	r3, r3
 978              	.LVL124:
 979 001a D840     		lsrs	r0, r0, r3
 980              	.LVL125:
 981 001c 7047     		bx	lr
 982              	.LVL126:
 983              	.L62:
 495:Drivers/STM32F3xx_HAL_Driver/Src/stm32f3xx_hal_flash_ex.c ****     value = READ_BIT(FLASH->OBR, FLASH_OBR_DATA1) >> FLASH_POSITION_OB_USERDATA1_BIT;
 984              		.loc 1 495 0
 985 001e 074B     		ldr	r3, .L64+4
 986 0020 D869     		ldr	r0, [r3, #28]
 987              	.LVL127:
 988 0022 00F07F40 		and	r0, r0, #-16777216
 989              	.LVL128:
 990              	.LBB12:
 991              	.LBB13:
 992              		.loc 2 531 0
 993 0026 4FF07F43 		mov	r3, #-16777216
 994              	@ 531 "Drivers/CMSIS/Include/cmsis_gcc.h" 1
 995 002a 93FAA3F3 		rbit r3, r3
 996              	@ 0 "" 2
 997              	.LVL129:
 998              		.thumb
 999              	.LBE13:
 1000              	.LBE12:
 495:Drivers/STM32F3xx_HAL_Driver/Src/stm32f3xx_hal_flash_ex.c ****     value = READ_BIT(FLASH->OBR, FLASH_OBR_DATA1) >> FLASH_POSITION_OB_USERDATA1_BIT;
 1001              		.loc 1 495 0
 1002 002e B3FA83F3 		clz	r3, r3
 1003              	.LVL130:
 1004 0032 D840     		lsrs	r0, r0, r3
 1005              	.LVL131:
 499:Drivers/STM32F3xx_HAL_Driver/Src/stm32f3xx_hal_flash_ex.c **** }
 1006              		.loc 1 499 0
 1007 0034 7047     		bx	lr
 1008              	.L65:
 1009 0036 00BF     		.align	2
 1010              	.L64:
 1011 0038 04F8FF1F 		.word	536868868
 1012 003c 00200240 		.word	1073881088
 1013              		.cfi_endproc
 1014              	.LFE128:
 1016              		.section	.text.FLASH_PageErase,"ax",%progbits
 1017              		.align	2
 1018              		.global	FLASH_PageErase
 1019              		.thumb
ARM GAS  /tmp/cc6tAl1r.s 			page 47


 1020              		.thumb_func
 1022              	FLASH_PageErase:
 1023              	.LFB138:
 962:Drivers/STM32F3xx_HAL_Driver/Src/stm32f3xx_hal_flash_ex.c **** 
 963:Drivers/STM32F3xx_HAL_Driver/Src/stm32f3xx_hal_flash_ex.c **** /**
 964:Drivers/STM32F3xx_HAL_Driver/Src/stm32f3xx_hal_flash_ex.c ****   * @}
 965:Drivers/STM32F3xx_HAL_Driver/Src/stm32f3xx_hal_flash_ex.c ****   */
 966:Drivers/STM32F3xx_HAL_Driver/Src/stm32f3xx_hal_flash_ex.c **** 
 967:Drivers/STM32F3xx_HAL_Driver/Src/stm32f3xx_hal_flash_ex.c **** /**
 968:Drivers/STM32F3xx_HAL_Driver/Src/stm32f3xx_hal_flash_ex.c ****   * @}
 969:Drivers/STM32F3xx_HAL_Driver/Src/stm32f3xx_hal_flash_ex.c ****   */
 970:Drivers/STM32F3xx_HAL_Driver/Src/stm32f3xx_hal_flash_ex.c **** 
 971:Drivers/STM32F3xx_HAL_Driver/Src/stm32f3xx_hal_flash_ex.c **** /** @addtogroup FLASH
 972:Drivers/STM32F3xx_HAL_Driver/Src/stm32f3xx_hal_flash_ex.c ****   * @{
 973:Drivers/STM32F3xx_HAL_Driver/Src/stm32f3xx_hal_flash_ex.c ****   */
 974:Drivers/STM32F3xx_HAL_Driver/Src/stm32f3xx_hal_flash_ex.c **** 
 975:Drivers/STM32F3xx_HAL_Driver/Src/stm32f3xx_hal_flash_ex.c **** /** @addtogroup FLASH_Private_Functions
 976:Drivers/STM32F3xx_HAL_Driver/Src/stm32f3xx_hal_flash_ex.c ****  * @{
 977:Drivers/STM32F3xx_HAL_Driver/Src/stm32f3xx_hal_flash_ex.c ****  */
 978:Drivers/STM32F3xx_HAL_Driver/Src/stm32f3xx_hal_flash_ex.c **** 
 979:Drivers/STM32F3xx_HAL_Driver/Src/stm32f3xx_hal_flash_ex.c **** /**
 980:Drivers/STM32F3xx_HAL_Driver/Src/stm32f3xx_hal_flash_ex.c ****   * @brief  Erase the specified FLASH memory page
 981:Drivers/STM32F3xx_HAL_Driver/Src/stm32f3xx_hal_flash_ex.c ****   * @param  PageAddress FLASH page to erase
 982:Drivers/STM32F3xx_HAL_Driver/Src/stm32f3xx_hal_flash_ex.c ****   *         The value of this parameter depend on device used within the same series      
 983:Drivers/STM32F3xx_HAL_Driver/Src/stm32f3xx_hal_flash_ex.c ****   * 
 984:Drivers/STM32F3xx_HAL_Driver/Src/stm32f3xx_hal_flash_ex.c ****   * @retval None
 985:Drivers/STM32F3xx_HAL_Driver/Src/stm32f3xx_hal_flash_ex.c ****   */
 986:Drivers/STM32F3xx_HAL_Driver/Src/stm32f3xx_hal_flash_ex.c **** void FLASH_PageErase(uint32_t PageAddress)
 987:Drivers/STM32F3xx_HAL_Driver/Src/stm32f3xx_hal_flash_ex.c **** {
 1024              		.loc 1 987 0
 1025              		.cfi_startproc
 1026              		@ args = 0, pretend = 0, frame = 0
 1027              		@ frame_needed = 0, uses_anonymous_args = 0
 1028              		@ link register save eliminated.
 1029              	.LVL132:
 988:Drivers/STM32F3xx_HAL_Driver/Src/stm32f3xx_hal_flash_ex.c ****   /* Clean the error context */
 989:Drivers/STM32F3xx_HAL_Driver/Src/stm32f3xx_hal_flash_ex.c ****   pFlash.ErrorCode = HAL_FLASH_ERROR_NONE;
 1030              		.loc 1 989 0
 1031 0000 0022     		movs	r2, #0
 1032 0002 064B     		ldr	r3, .L67
 1033 0004 DA61     		str	r2, [r3, #28]
 990:Drivers/STM32F3xx_HAL_Driver/Src/stm32f3xx_hal_flash_ex.c **** 
 991:Drivers/STM32F3xx_HAL_Driver/Src/stm32f3xx_hal_flash_ex.c ****     /* Proceed to erase the page */
 992:Drivers/STM32F3xx_HAL_Driver/Src/stm32f3xx_hal_flash_ex.c ****     SET_BIT(FLASH->CR, FLASH_CR_PER);
 1034              		.loc 1 992 0
 1035 0006 064B     		ldr	r3, .L67+4
 1036 0008 1A69     		ldr	r2, [r3, #16]
 1037 000a 42F00202 		orr	r2, r2, #2
 1038 000e 1A61     		str	r2, [r3, #16]
 993:Drivers/STM32F3xx_HAL_Driver/Src/stm32f3xx_hal_flash_ex.c ****     WRITE_REG(FLASH->AR, PageAddress);
 1039              		.loc 1 993 0
 1040 0010 5861     		str	r0, [r3, #20]
 994:Drivers/STM32F3xx_HAL_Driver/Src/stm32f3xx_hal_flash_ex.c ****     SET_BIT(FLASH->CR, FLASH_CR_STRT);
 1041              		.loc 1 994 0
 1042 0012 1A69     		ldr	r2, [r3, #16]
 1043 0014 42F04002 		orr	r2, r2, #64
 1044 0018 1A61     		str	r2, [r3, #16]
ARM GAS  /tmp/cc6tAl1r.s 			page 48


 1045 001a 7047     		bx	lr
 1046              	.L68:
 1047              		.align	2
 1048              	.L67:
 1049 001c 00000000 		.word	pFlash
 1050 0020 00200240 		.word	1073881088
 1051              		.cfi_endproc
 1052              	.LFE138:
 1054              		.section	.text.HAL_FLASHEx_Erase,"ax",%progbits
 1055              		.align	2
 1056              		.global	HAL_FLASHEx_Erase
 1057              		.thumb
 1058              		.thumb_func
 1060              	HAL_FLASHEx_Erase:
 1061              	.LFB123:
 178:Drivers/STM32F3xx_HAL_Driver/Src/stm32f3xx_hal_flash_ex.c **** {
 1062              		.loc 1 178 0
 1063              		.cfi_startproc
 1064              		@ args = 0, pretend = 0, frame = 0
 1065              		@ frame_needed = 0, uses_anonymous_args = 0
 1066              	.LVL133:
 1067 0000 2DE9F041 		push	{r4, r5, r6, r7, r8, lr}
 1068              	.LCFI8:
 1069              		.cfi_def_cfa_offset 24
 1070              		.cfi_offset 4, -24
 1071              		.cfi_offset 5, -20
 1072              		.cfi_offset 6, -16
 1073              		.cfi_offset 7, -12
 1074              		.cfi_offset 8, -8
 1075              		.cfi_offset 14, -4
 1076 0004 0546     		mov	r5, r0
 1077 0006 8846     		mov	r8, r1
 1078              	.LVL134:
 183:Drivers/STM32F3xx_HAL_Driver/Src/stm32f3xx_hal_flash_ex.c ****   __HAL_LOCK(&pFlash);
 1079              		.loc 1 183 0
 1080 0008 274B     		ldr	r3, .L79
 1081 000a 1B7E     		ldrb	r3, [r3, #24]	@ zero_extendqisi2
 1082 000c 012B     		cmp	r3, #1
 1083 000e 48D0     		beq	.L76
 183:Drivers/STM32F3xx_HAL_Driver/Src/stm32f3xx_hal_flash_ex.c ****   __HAL_LOCK(&pFlash);
 1084              		.loc 1 183 0 is_stmt 0 discriminator 2
 1085 0010 0122     		movs	r2, #1
 1086 0012 254B     		ldr	r3, .L79
 1087 0014 1A76     		strb	r2, [r3, #24]
 188:Drivers/STM32F3xx_HAL_Driver/Src/stm32f3xx_hal_flash_ex.c ****   if (pEraseInit->TypeErase == FLASH_TYPEERASE_MASSERASE)
 1088              		.loc 1 188 0 is_stmt 1 discriminator 2
 1089 0016 0368     		ldr	r3, [r0]
 1090 0018 9342     		cmp	r3, r2
 1091 001a 12D1     		bne	.L71
 192:Drivers/STM32F3xx_HAL_Driver/Src/stm32f3xx_hal_flash_ex.c ****       if (FLASH_WaitForLastOperation((uint32_t)FLASH_TIMEOUT_VALUE) == HAL_OK)
 1092              		.loc 1 192 0
 1093 001c 4CF25030 		movw	r0, #50000
 1094              	.LVL135:
 1095 0020 FFF7FEFF 		bl	FLASH_WaitForLastOperation
 1096              	.LVL136:
 1097 0024 0028     		cmp	r0, #0
 1098 0026 33D1     		bne	.L77
ARM GAS  /tmp/cc6tAl1r.s 			page 49


 195:Drivers/STM32F3xx_HAL_Driver/Src/stm32f3xx_hal_flash_ex.c ****         FLASH_MassErase();
 1099              		.loc 1 195 0
 1100 0028 FFF7FEFF 		bl	FLASH_MassErase
 1101              	.LVL137:
 198:Drivers/STM32F3xx_HAL_Driver/Src/stm32f3xx_hal_flash_ex.c ****         status = FLASH_WaitForLastOperation((uint32_t)FLASH_TIMEOUT_VALUE);
 1102              		.loc 1 198 0
 1103 002c 4CF25030 		movw	r0, #50000
 1104 0030 FFF7FEFF 		bl	FLASH_WaitForLastOperation
 1105              	.LVL138:
 1106 0034 0146     		mov	r1, r0
 1107              	.LVL139:
 201:Drivers/STM32F3xx_HAL_Driver/Src/stm32f3xx_hal_flash_ex.c ****         CLEAR_BIT(FLASH->CR, FLASH_CR_MER);
 1108              		.loc 1 201 0
 1109 0036 1D4B     		ldr	r3, .L79+4
 1110 0038 1A69     		ldr	r2, [r3, #16]
 1111 003a 22F00402 		bic	r2, r2, #4
 1112 003e 1A61     		str	r2, [r3, #16]
 1113 0040 29E0     		b	.L72
 1114              	.LVL140:
 1115              	.L71:
 213:Drivers/STM32F3xx_HAL_Driver/Src/stm32f3xx_hal_flash_ex.c ****       if (FLASH_WaitForLastOperation((uint32_t)FLASH_TIMEOUT_VALUE) == HAL_OK)
 1116              		.loc 1 213 0
 1117 0042 4CF25030 		movw	r0, #50000
 1118              	.LVL141:
 1119 0046 FFF7FEFF 		bl	FLASH_WaitForLastOperation
 1120              	.LVL142:
 1121 004a 18BB     		cbnz	r0, .L78
 216:Drivers/STM32F3xx_HAL_Driver/Src/stm32f3xx_hal_flash_ex.c ****         *PageError = 0xFFFFFFFFU;
 1122              		.loc 1 216 0
 1123 004c 4FF0FF33 		mov	r3, #-1
 1124 0050 C8F80030 		str	r3, [r8]
 219:Drivers/STM32F3xx_HAL_Driver/Src/stm32f3xx_hal_flash_ex.c ****         for(address = pEraseInit->PageAddress;
 1125              		.loc 1 219 0
 1126 0054 6C68     		ldr	r4, [r5, #4]
 1127              	.LVL143:
 179:Drivers/STM32F3xx_HAL_Driver/Src/stm32f3xx_hal_flash_ex.c ****   HAL_StatusTypeDef status = HAL_ERROR;
 1128              		.loc 1 179 0
 1129 0056 0121     		movs	r1, #1
 226:Drivers/STM32F3xx_HAL_Driver/Src/stm32f3xx_hal_flash_ex.c ****           status = FLASH_WaitForLastOperation((uint32_t)FLASH_TIMEOUT_VALUE);
 1130              		.loc 1 226 0
 1131 0058 4CF25037 		movw	r7, #50000
 229:Drivers/STM32F3xx_HAL_Driver/Src/stm32f3xx_hal_flash_ex.c ****           CLEAR_BIT(FLASH->CR, FLASH_CR_PER);
 1132              		.loc 1 229 0
 1133 005c 134E     		ldr	r6, .L79+4
 219:Drivers/STM32F3xx_HAL_Driver/Src/stm32f3xx_hal_flash_ex.c ****         for(address = pEraseInit->PageAddress;
 1134              		.loc 1 219 0
 1135 005e 10E0     		b	.L73
 1136              	.LVL144:
 1137              	.L75:
 223:Drivers/STM32F3xx_HAL_Driver/Src/stm32f3xx_hal_flash_ex.c ****           FLASH_PageErase(address);
 1138              		.loc 1 223 0
 1139 0060 2046     		mov	r0, r4
 1140 0062 FFF7FEFF 		bl	FLASH_PageErase
 1141              	.LVL145:
 226:Drivers/STM32F3xx_HAL_Driver/Src/stm32f3xx_hal_flash_ex.c ****           status = FLASH_WaitForLastOperation((uint32_t)FLASH_TIMEOUT_VALUE);
 1142              		.loc 1 226 0
 1143 0066 3846     		mov	r0, r7
ARM GAS  /tmp/cc6tAl1r.s 			page 50


 1144 0068 FFF7FEFF 		bl	FLASH_WaitForLastOperation
 1145              	.LVL146:
 229:Drivers/STM32F3xx_HAL_Driver/Src/stm32f3xx_hal_flash_ex.c ****           CLEAR_BIT(FLASH->CR, FLASH_CR_PER);
 1146              		.loc 1 229 0
 1147 006c 3369     		ldr	r3, [r6, #16]
 1148 006e 23F00203 		bic	r3, r3, #2
 1149 0072 3361     		str	r3, [r6, #16]
 231:Drivers/STM32F3xx_HAL_Driver/Src/stm32f3xx_hal_flash_ex.c ****           if (status != HAL_OK)
 1150              		.loc 1 231 0
 1151 0074 0146     		mov	r1, r0
 1152 0076 10B1     		cbz	r0, .L74
 234:Drivers/STM32F3xx_HAL_Driver/Src/stm32f3xx_hal_flash_ex.c ****             *PageError = address;
 1153              		.loc 1 234 0
 1154 0078 C8F80040 		str	r4, [r8]
 235:Drivers/STM32F3xx_HAL_Driver/Src/stm32f3xx_hal_flash_ex.c ****             break;
 1155              		.loc 1 235 0
 1156 007c 0BE0     		b	.L72
 1157              	.L74:
 221:Drivers/STM32F3xx_HAL_Driver/Src/stm32f3xx_hal_flash_ex.c ****             address += FLASH_PAGE_SIZE)
 1158              		.loc 1 221 0
 1159 007e 04F50064 		add	r4, r4, #2048
 1160              	.LVL147:
 1161              	.L73:
 220:Drivers/STM32F3xx_HAL_Driver/Src/stm32f3xx_hal_flash_ex.c ****             address < ((pEraseInit->NbPages * FLASH_PAGE_SIZE) + pEraseInit->PageAddress);
 1162              		.loc 1 220 0 discriminator 1
 1163 0082 AA68     		ldr	r2, [r5, #8]
 1164 0084 6B68     		ldr	r3, [r5, #4]
 1165 0086 03EBC223 		add	r3, r3, r2, lsl #11
 219:Drivers/STM32F3xx_HAL_Driver/Src/stm32f3xx_hal_flash_ex.c ****         for(address = pEraseInit->PageAddress;
 1166              		.loc 1 219 0 discriminator 1
 1167 008a A342     		cmp	r3, r4
 1168 008c E8D8     		bhi	.L75
 1169 008e 02E0     		b	.L72
 1170              	.LVL148:
 1171              	.L77:
 179:Drivers/STM32F3xx_HAL_Driver/Src/stm32f3xx_hal_flash_ex.c ****   HAL_StatusTypeDef status = HAL_ERROR;
 1172              		.loc 1 179 0
 1173 0090 0121     		movs	r1, #1
 1174 0092 00E0     		b	.L72
 1175              	.L78:
 1176 0094 0121     		movs	r1, #1
 1177              	.LVL149:
 1178              	.L72:
 242:Drivers/STM32F3xx_HAL_Driver/Src/stm32f3xx_hal_flash_ex.c ****   __HAL_UNLOCK(&pFlash);
 1179              		.loc 1 242 0
 1180 0096 0022     		movs	r2, #0
 1181 0098 034B     		ldr	r3, .L79
 1182 009a 1A76     		strb	r2, [r3, #24]
 244:Drivers/STM32F3xx_HAL_Driver/Src/stm32f3xx_hal_flash_ex.c ****   return status;
 1183              		.loc 1 244 0
 1184 009c 0846     		mov	r0, r1
 1185 009e BDE8F081 		pop	{r4, r5, r6, r7, r8, pc}
 1186              	.LVL150:
 1187              	.L76:
 183:Drivers/STM32F3xx_HAL_Driver/Src/stm32f3xx_hal_flash_ex.c ****   __HAL_LOCK(&pFlash);
 1188              		.loc 1 183 0
 1189 00a2 0220     		movs	r0, #2
ARM GAS  /tmp/cc6tAl1r.s 			page 51


 1190              	.LVL151:
 245:Drivers/STM32F3xx_HAL_Driver/Src/stm32f3xx_hal_flash_ex.c **** }
 1191              		.loc 1 245 0
 1192 00a4 BDE8F081 		pop	{r4, r5, r6, r7, r8, pc}
 1193              	.LVL152:
 1194              	.L80:
 1195              		.align	2
 1196              	.L79:
 1197 00a8 00000000 		.word	pFlash
 1198 00ac 00200240 		.word	1073881088
 1199              		.cfi_endproc
 1200              	.LFE123:
 1202              		.section	.text.HAL_FLASHEx_Erase_IT,"ax",%progbits
 1203              		.align	2
 1204              		.global	HAL_FLASHEx_Erase_IT
 1205              		.thumb
 1206              		.thumb_func
 1208              	HAL_FLASHEx_Erase_IT:
 1209              	.LFB124:
 259:Drivers/STM32F3xx_HAL_Driver/Src/stm32f3xx_hal_flash_ex.c **** {
 1210              		.loc 1 259 0
 1211              		.cfi_startproc
 1212              		@ args = 0, pretend = 0, frame = 0
 1213              		@ frame_needed = 0, uses_anonymous_args = 0
 1214              	.LVL153:
 1215 0000 08B5     		push	{r3, lr}
 1216              	.LCFI9:
 1217              		.cfi_def_cfa_offset 8
 1218              		.cfi_offset 3, -8
 1219              		.cfi_offset 14, -4
 1220              	.LVL154:
 263:Drivers/STM32F3xx_HAL_Driver/Src/stm32f3xx_hal_flash_ex.c ****   __HAL_LOCK(&pFlash);
 1221              		.loc 1 263 0
 1222 0002 154B     		ldr	r3, .L86
 1223 0004 1B7E     		ldrb	r3, [r3, #24]	@ zero_extendqisi2
 1224 0006 012B     		cmp	r3, #1
 1225 0008 21D0     		beq	.L84
 263:Drivers/STM32F3xx_HAL_Driver/Src/stm32f3xx_hal_flash_ex.c ****   __HAL_LOCK(&pFlash);
 1226              		.loc 1 263 0 is_stmt 0 discriminator 2
 1227 000a 134B     		ldr	r3, .L86
 1228 000c 0122     		movs	r2, #1
 1229 000e 1A76     		strb	r2, [r3, #24]
 266:Drivers/STM32F3xx_HAL_Driver/Src/stm32f3xx_hal_flash_ex.c ****   if (pFlash.ProcedureOnGoing != FLASH_PROC_NONE)
 1230              		.loc 1 266 0 is_stmt 1 discriminator 2
 1231 0010 1B78     		ldrb	r3, [r3]	@ zero_extendqisi2
 1232 0012 13F0FF0F 		tst	r3, #255
 1233 0016 1CD1     		bne	.L85
 275:Drivers/STM32F3xx_HAL_Driver/Src/stm32f3xx_hal_flash_ex.c ****   __HAL_FLASH_ENABLE_IT(FLASH_IT_EOP | FLASH_IT_ERR);
 1234              		.loc 1 275 0
 1235 0018 104B     		ldr	r3, .L86+4
 1236 001a 1A69     		ldr	r2, [r3, #16]
 1237 001c 42F4A052 		orr	r2, r2, #5120
 1238 0020 1A61     		str	r2, [r3, #16]
 277:Drivers/STM32F3xx_HAL_Driver/Src/stm32f3xx_hal_flash_ex.c ****   if (pEraseInit->TypeErase == FLASH_TYPEERASE_MASSERASE)
 1239              		.loc 1 277 0
 1240 0022 0368     		ldr	r3, [r0]
 1241 0024 012B     		cmp	r3, #1
ARM GAS  /tmp/cc6tAl1r.s 			page 52


 1242 0026 06D1     		bne	.L83
 280:Drivers/STM32F3xx_HAL_Driver/Src/stm32f3xx_hal_flash_ex.c ****     pFlash.ProcedureOnGoing = FLASH_PROC_MASSERASE;
 1243              		.loc 1 280 0
 1244 0028 0222     		movs	r2, #2
 1245 002a 0B4B     		ldr	r3, .L86
 1246 002c 1A70     		strb	r2, [r3]
 281:Drivers/STM32F3xx_HAL_Driver/Src/stm32f3xx_hal_flash_ex.c ****         FLASH_MassErase();
 1247              		.loc 1 281 0
 1248 002e FFF7FEFF 		bl	FLASH_MassErase
 1249              	.LVL155:
 299:Drivers/STM32F3xx_HAL_Driver/Src/stm32f3xx_hal_flash_ex.c ****   return status;
 1250              		.loc 1 299 0
 1251 0032 0020     		movs	r0, #0
 1252 0034 08BD     		pop	{r3, pc}
 1253              	.LVL156:
 1254              	.L83:
 291:Drivers/STM32F3xx_HAL_Driver/Src/stm32f3xx_hal_flash_ex.c ****     pFlash.ProcedureOnGoing = FLASH_PROC_PAGEERASE;
 1255              		.loc 1 291 0
 1256 0036 084B     		ldr	r3, .L86
 1257 0038 0122     		movs	r2, #1
 1258 003a 1A70     		strb	r2, [r3]
 292:Drivers/STM32F3xx_HAL_Driver/Src/stm32f3xx_hal_flash_ex.c ****     pFlash.DataRemaining = pEraseInit->NbPages;
 1259              		.loc 1 292 0
 1260 003c 8268     		ldr	r2, [r0, #8]
 1261 003e 5A60     		str	r2, [r3, #4]
 293:Drivers/STM32F3xx_HAL_Driver/Src/stm32f3xx_hal_flash_ex.c ****     pFlash.Address = pEraseInit->PageAddress;
 1262              		.loc 1 293 0
 1263 0040 4268     		ldr	r2, [r0, #4]
 1264 0042 9A60     		str	r2, [r3, #8]
 296:Drivers/STM32F3xx_HAL_Driver/Src/stm32f3xx_hal_flash_ex.c ****     FLASH_PageErase(pEraseInit->PageAddress);
 1265              		.loc 1 296 0
 1266 0044 4068     		ldr	r0, [r0, #4]
 1267              	.LVL157:
 1268 0046 FFF7FEFF 		bl	FLASH_PageErase
 1269              	.LVL158:
 299:Drivers/STM32F3xx_HAL_Driver/Src/stm32f3xx_hal_flash_ex.c ****   return status;
 1270              		.loc 1 299 0
 1271 004a 0020     		movs	r0, #0
 1272 004c 08BD     		pop	{r3, pc}
 1273              	.LVL159:
 1274              	.L84:
 263:Drivers/STM32F3xx_HAL_Driver/Src/stm32f3xx_hal_flash_ex.c ****   __HAL_LOCK(&pFlash);
 1275              		.loc 1 263 0
 1276 004e 0220     		movs	r0, #2
 1277              	.LVL160:
 1278 0050 08BD     		pop	{r3, pc}
 1279              	.LVL161:
 1280              	.L85:
 268:Drivers/STM32F3xx_HAL_Driver/Src/stm32f3xx_hal_flash_ex.c ****     return HAL_ERROR;
 1281              		.loc 1 268 0
 1282 0052 0120     		movs	r0, #1
 1283              	.LVL162:
 300:Drivers/STM32F3xx_HAL_Driver/Src/stm32f3xx_hal_flash_ex.c **** }
 1284              		.loc 1 300 0
 1285 0054 08BD     		pop	{r3, pc}
 1286              	.L87:
 1287 0056 00BF     		.align	2
ARM GAS  /tmp/cc6tAl1r.s 			page 53


 1288              	.L86:
 1289 0058 00000000 		.word	pFlash
 1290 005c 00200240 		.word	1073881088
 1291              		.cfi_endproc
 1292              	.LFE124:
 1294              		.text
 1295              	.Letext0:
 1296              		.file 3 "/home/niklas/Downloads/gcc-arm-none-eabi-4_8-2014q3/arm-none-eabi/include/machine/_defaul
 1297              		.file 4 "/home/niklas/Downloads/gcc-arm-none-eabi-4_8-2014q3/arm-none-eabi/include/stdint.h"
 1298              		.file 5 "Drivers/CMSIS/Device/ST/STM32F3xx/Include/stm32f334x8.h"
 1299              		.file 6 "Drivers/STM32F3xx_HAL_Driver/Inc/stm32f3xx_hal_def.h"
 1300              		.file 7 "Drivers/STM32F3xx_HAL_Driver/Inc/stm32f3xx_hal_flash.h"
 1301              		.file 8 "Drivers/STM32F3xx_HAL_Driver/Inc/stm32f3xx_hal_flash_ex.h"
 1302              		.file 9 "Drivers/CMSIS/Include/core_cm4.h"
ARM GAS  /tmp/cc6tAl1r.s 			page 54

